SF:/Users/francescopiogaglione/projects/personal/focus_flow_workspace/focus_flow_cloud/backend/crates/adapters/src/app.rs
FN:58,_RNCNvNtCsi6y5LRNeeCE_8adapters3app10create_app0B5_
FN:19,_RNvNtCsi6y5LRNeeCE_8adapters3app10create_app
FN:19,_RNvNtCsjp8PXOiLT2t_8adapters3app10create_app
FN:58,_RNCNvNtCsjp8PXOiLT2t_8adapters3app10create_app0B5_
FNDA:0,_RNCNvNtCsi6y5LRNeeCE_8adapters3app10create_app0B5_
FNDA:0,_RNvNtCsi6y5LRNeeCE_8adapters3app10create_app
FNDA:26,_RNvNtCsjp8PXOiLT2t_8adapters3app10create_app
FNDA:114,_RNCNvNtCsjp8PXOiLT2t_8adapters3app10create_app0B5_
FNF:2
FNH:2
DA:19,26
DA:20,26
DA:22,26
DA:23,26
DA:24,26
DA:26,26
DA:27,26
DA:28,26
DA:29,26
DA:30,26
DA:31,26
DA:33,26
DA:34,0
DA:35,0
DA:36,26
DA:38,26
DA:39,26
DA:40,26
DA:41,26
DA:42,26
DA:43,26
DA:44,26
DA:45,26
DA:46,26
DA:47,26
DA:48,26
DA:49,26
DA:50,26
DA:51,26
DA:52,26
DA:53,26
DA:55,26
DA:56,26
DA:57,26
DA:58,114
DA:59,114
DA:60,114
DA:61,114
DA:62,114
DA:63,114
DA:64,114
DA:65,114
DA:66,114
DA:68,0
DA:75,114
DA:76,26
DA:77,26
DA:78,26
DA:79,26
DA:82,26
BRF:0
BRH:0
LF:51
LH:48
end_of_record
SF:/Users/francescopiogaglione/projects/personal/focus_flow_workspace/focus_flow_cloud/backend/crates/adapters/src/flashcards/http/flashcards/create_flashcard.rs
FN:75,_RNvNtNtNtNtCsi6y5LRNeeCE_8adapters10flashcards4http10flashcards16create_flashcard20create_flashcard_api
FN:44,_RNvXNtNtNtNtCsi6y5LRNeeCE_8adapters10flashcards4http10flashcards16create_flashcardNtNtBa_10http_error9HttpErrorINtNtCsl8K0bEFm1U0_4core7convert4FromNtNtNtNtCs9ngygJYhGyL_11application10flashcards9use_cases17create_flashcards20CreateFlashcardErrorE4from
FN:82,_RNCNCNvNtNtNtNtCsi6y5LRNeeCE_8adapters10flashcards4http10flashcards16create_flashcard20create_flashcard_api00Bd_
FN:79,_RNCNvNtNtNtNtCsi6y5LRNeeCE_8adapters10flashcards4http10flashcards16create_flashcard20create_flashcard_api0Bb_
FN:75,_RNvNtNtNtNtCsjp8PXOiLT2t_8adapters10flashcards4http10flashcards16create_flashcard20create_flashcard_api
FN:82,_RNCNCNvNtNtNtNtCsjp8PXOiLT2t_8adapters10flashcards4http10flashcards16create_flashcard20create_flashcard_api00Bd_
FN:79,_RNCNvNtNtNtNtCsjp8PXOiLT2t_8adapters10flashcards4http10flashcards16create_flashcard20create_flashcard_api0Bb_
FN:44,_RNvXNtNtNtNtCsjp8PXOiLT2t_8adapters10flashcards4http10flashcards16create_flashcardNtNtBa_10http_error9HttpErrorINtNtCsl8K0bEFm1U0_4core7convert4FromNtNtNtNtCs9ngygJYhGyL_11application10flashcards9use_cases17create_flashcards20CreateFlashcardErrorE4from
FNDA:0,_RNvNtNtNtNtCsi6y5LRNeeCE_8adapters10flashcards4http10flashcards16create_flashcard20create_flashcard_api
FNDA:0,_RNvXNtNtNtNtCsi6y5LRNeeCE_8adapters10flashcards4http10flashcards16create_flashcardNtNtBa_10http_error9HttpErrorINtNtCsl8K0bEFm1U0_4core7convert4FromNtNtNtNtCs9ngygJYhGyL_11application10flashcards9use_cases17create_flashcards20CreateFlashcardErrorE4from
FNDA:0,_RNCNCNvNtNtNtNtCsi6y5LRNeeCE_8adapters10flashcards4http10flashcards16create_flashcard20create_flashcard_api00Bd_
FNDA:0,_RNCNvNtNtNtNtCsi6y5LRNeeCE_8adapters10flashcards4http10flashcards16create_flashcard20create_flashcard_api0Bb_
FNDA:0,_RNvNtNtNtNtCsjp8PXOiLT2t_8adapters10flashcards4http10flashcards16create_flashcard20create_flashcard_api
FNDA:0,_RNCNCNvNtNtNtNtCsjp8PXOiLT2t_8adapters10flashcards4http10flashcards16create_flashcard20create_flashcard_api00Bd_
FNDA:0,_RNCNvNtNtNtNtCsjp8PXOiLT2t_8adapters10flashcards4http10flashcards16create_flashcard20create_flashcard_api0Bb_
FNDA:0,_RNvXNtNtNtNtCsjp8PXOiLT2t_8adapters10flashcards4http10flashcards16create_flashcardNtNtBa_10http_error9HttpErrorINtNtCsl8K0bEFm1U0_4core7convert4FromNtNtNtNtCs9ngygJYhGyL_11application10flashcards9use_cases17create_flashcards20CreateFlashcardErrorE4from
FNF:4
FNH:0
DA:44,0
DA:45,0
DA:46,0
DA:47,0
DA:50,0
DA:53,0
DA:56,0
DA:75,0
DA:76,0
DA:77,0
DA:78,0
DA:79,0
DA:80,0
DA:81,0
DA:82,0
DA:83,0
DA:85,0
DA:86,0
DA:87,0
DA:88,0
DA:89,0
DA:90,0
DA:92,0
DA:93,0
DA:94,0
DA:95,0
DA:96,0
DA:98,0
DA:100,0
DA:101,0
BRF:0
BRH:0
LF:32
LH:0
end_of_record
SF:/Users/francescopiogaglione/projects/personal/focus_flow_workspace/focus_flow_cloud/backend/crates/adapters/src/flashcards/http/flashcards/delete_flashcard.rs
FN:35,_RNvNtNtNtNtCsi6y5LRNeeCE_8adapters10flashcards4http10flashcards16delete_flashcard20delete_flashcard_api
FN:47,_RNCNCNvNtNtNtNtCsi6y5LRNeeCE_8adapters10flashcards4http10flashcards16delete_flashcard20delete_flashcard_api00Bd_
FN:39,_RNCNvNtNtNtNtCsi6y5LRNeeCE_8adapters10flashcards4http10flashcards16delete_flashcard20delete_flashcard_api0Bb_
FN:47,_RNCNCNvNtNtNtNtCsjp8PXOiLT2t_8adapters10flashcards4http10flashcards16delete_flashcard20delete_flashcard_api00Bd_
FN:39,_RNCNvNtNtNtNtCsjp8PXOiLT2t_8adapters10flashcards4http10flashcards16delete_flashcard20delete_flashcard_api0Bb_
FN:35,_RNvNtNtNtNtCsjp8PXOiLT2t_8adapters10flashcards4http10flashcards16delete_flashcard20delete_flashcard_api
FNDA:0,_RNvNtNtNtNtCsi6y5LRNeeCE_8adapters10flashcards4http10flashcards16delete_flashcard20delete_flashcard_api
FNDA:0,_RNCNCNvNtNtNtNtCsi6y5LRNeeCE_8adapters10flashcards4http10flashcards16delete_flashcard20delete_flashcard_api00Bd_
FNDA:0,_RNCNvNtNtNtNtCsi6y5LRNeeCE_8adapters10flashcards4http10flashcards16delete_flashcard20delete_flashcard_api0Bb_
FNDA:0,_RNCNCNvNtNtNtNtCsjp8PXOiLT2t_8adapters10flashcards4http10flashcards16delete_flashcard20delete_flashcard_api00Bd_
FNDA:0,_RNCNvNtNtNtNtCsjp8PXOiLT2t_8adapters10flashcards4http10flashcards16delete_flashcard20delete_flashcard_api0Bb_
FNDA:0,_RNvNtNtNtNtCsjp8PXOiLT2t_8adapters10flashcards4http10flashcards16delete_flashcard20delete_flashcard_api
FNF:3
FNH:0
DA:35,0
DA:36,0
DA:37,0
DA:38,0
DA:39,0
DA:40,0
DA:42,0
DA:43,0
DA:44,0
DA:45,0
DA:46,0
DA:47,0
DA:49,0
DA:50,0
BRF:0
BRH:0
LF:16
LH:0
end_of_record
SF:/Users/francescopiogaglione/projects/personal/focus_flow_workspace/focus_flow_cloud/backend/crates/adapters/src/flashcards/http/flashcards/get_due_flashcards.rs
FN:43,_RNvNtNtNtNtCsi6y5LRNeeCE_8adapters10flashcards4http10flashcards18get_due_flashcards22get_due_flashcards_api
FN:54,_RNCNCNvNtNtNtNtCsi6y5LRNeeCE_8adapters10flashcards4http10flashcards18get_due_flashcards22get_due_flashcards_api00Bd_
FN:59,_RNCNCNvNtNtNtNtCsi6y5LRNeeCE_8adapters10flashcards4http10flashcards18get_due_flashcards22get_due_flashcards_api0s_0Bd_
FN:46,_RNCNvNtNtNtNtCsi6y5LRNeeCE_8adapters10flashcards4http10flashcards18get_due_flashcards22get_due_flashcards_api0Bb_
FN:54,_RNCNCNvNtNtNtNtCsjp8PXOiLT2t_8adapters10flashcards4http10flashcards18get_due_flashcards22get_due_flashcards_api00Bd_
FN:59,_RNCNCNvNtNtNtNtCsjp8PXOiLT2t_8adapters10flashcards4http10flashcards18get_due_flashcards22get_due_flashcards_api0s_0Bd_
FN:46,_RNCNvNtNtNtNtCsjp8PXOiLT2t_8adapters10flashcards4http10flashcards18get_due_flashcards22get_due_flashcards_api0Bb_
FN:43,_RNvNtNtNtNtCsjp8PXOiLT2t_8adapters10flashcards4http10flashcards18get_due_flashcards22get_due_flashcards_api
FNDA:0,_RNvNtNtNtNtCsi6y5LRNeeCE_8adapters10flashcards4http10flashcards18get_due_flashcards22get_due_flashcards_api
FNDA:0,_RNCNCNvNtNtNtNtCsi6y5LRNeeCE_8adapters10flashcards4http10flashcards18get_due_flashcards22get_due_flashcards_api00Bd_
FNDA:0,_RNCNCNvNtNtNtNtCsi6y5LRNeeCE_8adapters10flashcards4http10flashcards18get_due_flashcards22get_due_flashcards_api0s_0Bd_
FNDA:0,_RNCNvNtNtNtNtCsi6y5LRNeeCE_8adapters10flashcards4http10flashcards18get_due_flashcards22get_due_flashcards_api0Bb_
FNDA:0,_RNCNCNvNtNtNtNtCsjp8PXOiLT2t_8adapters10flashcards4http10flashcards18get_due_flashcards22get_due_flashcards_api00Bd_
FNDA:0,_RNCNCNvNtNtNtNtCsjp8PXOiLT2t_8adapters10flashcards4http10flashcards18get_due_flashcards22get_due_flashcards_api0s_0Bd_
FNDA:0,_RNCNvNtNtNtNtCsjp8PXOiLT2t_8adapters10flashcards4http10flashcards18get_due_flashcards22get_due_flashcards_api0Bb_
FNDA:0,_RNvNtNtNtNtCsjp8PXOiLT2t_8adapters10flashcards4http10flashcards18get_due_flashcards22get_due_flashcards_api
FNF:4
FNH:0
DA:43,0
DA:44,0
DA:45,0
DA:46,0
DA:47,0
DA:49,0
DA:50,0
DA:51,0
DA:52,0
DA:53,0
DA:54,0
DA:56,0
DA:57,0
DA:58,0
DA:59,0
DA:60,0
DA:61,0
DA:62,0
DA:63,0
DA:64,0
DA:66,0
DA:67,0
BRF:0
BRH:0
LF:24
LH:0
end_of_record
SF:/Users/francescopiogaglione/projects/personal/focus_flow_workspace/focus_flow_cloud/backend/crates/adapters/src/flashcards/http/flashcards/get_flashcard.rs
FN:42,_RNvNtNtNtNtCsi6y5LRNeeCE_8adapters10flashcards4http10flashcards13get_flashcard17get_flashcard_api
FN:54,_RNCNCNvNtNtNtNtCsi6y5LRNeeCE_8adapters10flashcards4http10flashcards13get_flashcard17get_flashcard_api00Bd_
FN:46,_RNCNvNtNtNtNtCsi6y5LRNeeCE_8adapters10flashcards4http10flashcards13get_flashcard17get_flashcard_api0Bb_
FN:54,_RNCNCNvNtNtNtNtCsjp8PXOiLT2t_8adapters10flashcards4http10flashcards13get_flashcard17get_flashcard_api00Bd_
FN:46,_RNCNvNtNtNtNtCsjp8PXOiLT2t_8adapters10flashcards4http10flashcards13get_flashcard17get_flashcard_api0Bb_
FN:42,_RNvNtNtNtNtCsjp8PXOiLT2t_8adapters10flashcards4http10flashcards13get_flashcard17get_flashcard_api
FNDA:0,_RNvNtNtNtNtCsi6y5LRNeeCE_8adapters10flashcards4http10flashcards13get_flashcard17get_flashcard_api
FNDA:0,_RNCNCNvNtNtNtNtCsi6y5LRNeeCE_8adapters10flashcards4http10flashcards13get_flashcard17get_flashcard_api00Bd_
FNDA:0,_RNCNvNtNtNtNtCsi6y5LRNeeCE_8adapters10flashcards4http10flashcards13get_flashcard17get_flashcard_api0Bb_
FNDA:0,_RNCNCNvNtNtNtNtCsjp8PXOiLT2t_8adapters10flashcards4http10flashcards13get_flashcard17get_flashcard_api00Bd_
FNDA:0,_RNCNvNtNtNtNtCsjp8PXOiLT2t_8adapters10flashcards4http10flashcards13get_flashcard17get_flashcard_api0Bb_
FNDA:0,_RNvNtNtNtNtCsjp8PXOiLT2t_8adapters10flashcards4http10flashcards13get_flashcard17get_flashcard_api
FNF:3
FNH:0
DA:42,0
DA:43,0
DA:44,0
DA:45,0
DA:46,0
DA:47,0
DA:49,0
DA:50,0
DA:51,0
DA:52,0
DA:53,0
DA:54,0
DA:56,0
DA:57,0
DA:58,0
DA:59,0
DA:60,0
DA:61,0
DA:62,0
BRF:0
BRH:0
LF:21
LH:0
end_of_record
SF:/Users/francescopiogaglione/projects/personal/focus_flow_workspace/focus_flow_cloud/backend/crates/adapters/src/flashcards/http/flashcards/review_flashcard.rs
FN:72,_RNvNtNtNtNtCsi6y5LRNeeCE_8adapters10flashcards4http10flashcards16review_flashcard20review_flashcard_api
FN:43,_RNvXNtNtNtNtCsi6y5LRNeeCE_8adapters10flashcards4http10flashcards16review_flashcardNtNtBa_10http_error9HttpErrorINtNtCsl8K0bEFm1U0_4core7convert4FromNtNtNtNtCs9ngygJYhGyL_11application10flashcards9use_cases16review_flashcard20ReviewFlashcardErrorE4from
FN:77,_RNCNvNtNtNtNtCsi6y5LRNeeCE_8adapters10flashcards4http10flashcards16review_flashcard20review_flashcard_api0Bb_
FN:72,_RNvNtNtNtNtCsjp8PXOiLT2t_8adapters10flashcards4http10flashcards16review_flashcard20review_flashcard_api
FN:77,_RNCNvNtNtNtNtCsjp8PXOiLT2t_8adapters10flashcards4http10flashcards16review_flashcard20review_flashcard_api0Bb_
FN:43,_RNvXNtNtNtNtCsjp8PXOiLT2t_8adapters10flashcards4http10flashcards16review_flashcardNtNtBa_10http_error9HttpErrorINtNtCsl8K0bEFm1U0_4core7convert4FromNtNtNtNtCs9ngygJYhGyL_11application10flashcards9use_cases16review_flashcard20ReviewFlashcardErrorE4from
FNDA:0,_RNvNtNtNtNtCsi6y5LRNeeCE_8adapters10flashcards4http10flashcards16review_flashcard20review_flashcard_api
FNDA:0,_RNvXNtNtNtNtCsi6y5LRNeeCE_8adapters10flashcards4http10flashcards16review_flashcardNtNtBa_10http_error9HttpErrorINtNtCsl8K0bEFm1U0_4core7convert4FromNtNtNtNtCs9ngygJYhGyL_11application10flashcards9use_cases16review_flashcard20ReviewFlashcardErrorE4from
FNDA:0,_RNCNvNtNtNtNtCsi6y5LRNeeCE_8adapters10flashcards4http10flashcards16review_flashcard20review_flashcard_api0Bb_
FNDA:0,_RNvNtNtNtNtCsjp8PXOiLT2t_8adapters10flashcards4http10flashcards16review_flashcard20review_flashcard_api
FNDA:0,_RNCNvNtNtNtNtCsjp8PXOiLT2t_8adapters10flashcards4http10flashcards16review_flashcard20review_flashcard_api0Bb_
FNDA:0,_RNvXNtNtNtNtCsjp8PXOiLT2t_8adapters10flashcards4http10flashcards16review_flashcardNtNtBa_10http_error9HttpErrorINtNtCsl8K0bEFm1U0_4core7convert4FromNtNtNtNtCs9ngygJYhGyL_11application10flashcards9use_cases16review_flashcard20ReviewFlashcardErrorE4from
FNF:3
FNH:0
DA:43,0
DA:44,0
DA:45,0
DA:47,0
DA:48,0
DA:49,0
DA:53,0
DA:72,0
DA:73,0
DA:74,0
DA:75,0
DA:76,0
DA:77,0
DA:78,0
DA:80,0
DA:81,0
DA:82,0
DA:83,0
DA:84,0
DA:87,0
DA:88,0
DA:89,0
DA:90,0
DA:91,0
DA:93,0
DA:94,0
DA:95,0
DA:96,0
DA:97,0
DA:99,0
DA:100,0
BRF:0
BRH:0
LF:32
LH:0
end_of_record
SF:/Users/francescopiogaglione/projects/personal/focus_flow_workspace/focus_flow_cloud/backend/crates/adapters/src/flashcards/http/flashcards/routes.rs
FN:11,_RNvNtNtNtNtCsi6y5LRNeeCE_8adapters10flashcards4http10flashcards6routes6routes
FN:11,_RNvNtNtNtNtCsjp8PXOiLT2t_8adapters10flashcards4http10flashcards6routes6routes
FNDA:0,_RNvNtNtNtNtCsi6y5LRNeeCE_8adapters10flashcards4http10flashcards6routes6routes
FNDA:26,_RNvNtNtNtNtCsjp8PXOiLT2t_8adapters10flashcards4http10flashcards6routes6routes
FNF:1
FNH:1
DA:11,26
DA:12,26
DA:13,26
DA:14,26
DA:15,26
DA:16,26
DA:17,26
DA:18,26
DA:19,26
BRF:0
BRH:0
LF:9
LH:9
end_of_record
SF:/Users/francescopiogaglione/projects/personal/focus_flow_workspace/focus_flow_cloud/backend/crates/adapters/src/flashcards/http/flashcards/update_flashcard.rs
FN:78,_RNvNtNtNtNtCsi6y5LRNeeCE_8adapters10flashcards4http10flashcards16update_flashcard20update_flashcard_api
FN:45,_RNvXNtNtNtNtCsi6y5LRNeeCE_8adapters10flashcards4http10flashcards16update_flashcardNtNtBa_10http_error9HttpErrorINtNtCsl8K0bEFm1U0_4core7convert4FromNtNtNtNtCs9ngygJYhGyL_11application10flashcards9use_cases16update_flashcard20UpdateFlashcardErrorE4from
FN:86,_RNCNCNvNtNtNtNtCsi6y5LRNeeCE_8adapters10flashcards4http10flashcards16update_flashcard20update_flashcard_api00Bd_
FN:83,_RNCNvNtNtNtNtCsi6y5LRNeeCE_8adapters10flashcards4http10flashcards16update_flashcard20update_flashcard_api0Bb_
FN:78,_RNvNtNtNtNtCsjp8PXOiLT2t_8adapters10flashcards4http10flashcards16update_flashcard20update_flashcard_api
FN:86,_RNCNCNvNtNtNtNtCsjp8PXOiLT2t_8adapters10flashcards4http10flashcards16update_flashcard20update_flashcard_api00Bd_
FN:83,_RNCNvNtNtNtNtCsjp8PXOiLT2t_8adapters10flashcards4http10flashcards16update_flashcard20update_flashcard_api0Bb_
FN:45,_RNvXNtNtNtNtCsjp8PXOiLT2t_8adapters10flashcards4http10flashcards16update_flashcardNtNtBa_10http_error9HttpErrorINtNtCsl8K0bEFm1U0_4core7convert4FromNtNtNtNtCs9ngygJYhGyL_11application10flashcards9use_cases16update_flashcard20UpdateFlashcardErrorE4from
FNDA:0,_RNvNtNtNtNtCsi6y5LRNeeCE_8adapters10flashcards4http10flashcards16update_flashcard20update_flashcard_api
FNDA:0,_RNvXNtNtNtNtCsi6y5LRNeeCE_8adapters10flashcards4http10flashcards16update_flashcardNtNtBa_10http_error9HttpErrorINtNtCsl8K0bEFm1U0_4core7convert4FromNtNtNtNtCs9ngygJYhGyL_11application10flashcards9use_cases16update_flashcard20UpdateFlashcardErrorE4from
FNDA:0,_RNCNCNvNtNtNtNtCsi6y5LRNeeCE_8adapters10flashcards4http10flashcards16update_flashcard20update_flashcard_api00Bd_
FNDA:0,_RNCNvNtNtNtNtCsi6y5LRNeeCE_8adapters10flashcards4http10flashcards16update_flashcard20update_flashcard_api0Bb_
FNDA:0,_RNvNtNtNtNtCsjp8PXOiLT2t_8adapters10flashcards4http10flashcards16update_flashcard20update_flashcard_api
FNDA:0,_RNCNCNvNtNtNtNtCsjp8PXOiLT2t_8adapters10flashcards4http10flashcards16update_flashcard20update_flashcard_api00Bd_
FNDA:0,_RNCNvNtNtNtNtCsjp8PXOiLT2t_8adapters10flashcards4http10flashcards16update_flashcard20update_flashcard_api0Bb_
FNDA:0,_RNvXNtNtNtNtCsjp8PXOiLT2t_8adapters10flashcards4http10flashcards16update_flashcardNtNtBa_10http_error9HttpErrorINtNtCsl8K0bEFm1U0_4core7convert4FromNtNtNtNtCs9ngygJYhGyL_11application10flashcards9use_cases16update_flashcard20UpdateFlashcardErrorE4from
FNF:4
FNH:0
DA:45,0
DA:46,0
DA:47,0
DA:49,0
DA:50,0
DA:51,0
DA:55,0
DA:58,0
DA:78,0
DA:79,0
DA:80,0
DA:81,0
DA:82,0
DA:83,0
DA:84,0
DA:85,0
DA:86,0
DA:87,0
DA:89,0
DA:90,0
DA:91,0
DA:92,0
DA:93,0
DA:95,0
DA:96,0
DA:97,0
DA:98,0
DA:99,0
DA:101,0
DA:102,0
BRF:0
BRH:0
LF:32
LH:0
end_of_record
SF:/Users/francescopiogaglione/projects/personal/focus_flow_workspace/focus_flow_cloud/backend/crates/adapters/src/flashcards/http/folder/create_folder.rs
FN:67,_RNvNtNtNtNtCsi6y5LRNeeCE_8adapters10flashcards4http6folder13create_folder17create_folder_api
FN:38,_RNvXNtNtNtNtCsi6y5LRNeeCE_8adapters10flashcards4http6folder13create_folderNtNtBa_10http_error9HttpErrorINtNtCsl8K0bEFm1U0_4core7convert4FromNtNtNtNtCs9ngygJYhGyL_11application10flashcards9use_cases13create_folder17CreateFolderErrorE4from
FN:74,_RNCNCNvNtNtNtNtCsi6y5LRNeeCE_8adapters10flashcards4http6folder13create_folder17create_folder_api00Bd_
FN:71,_RNCNvNtNtNtNtCsi6y5LRNeeCE_8adapters10flashcards4http6folder13create_folder17create_folder_api0Bb_
FN:67,_RNvNtNtNtNtCsjp8PXOiLT2t_8adapters10flashcards4http6folder13create_folder17create_folder_api
FN:38,_RNvXNtNtNtNtCsjp8PXOiLT2t_8adapters10flashcards4http6folder13create_folderNtNtBa_10http_error9HttpErrorINtNtCsl8K0bEFm1U0_4core7convert4FromNtNtNtNtCs9ngygJYhGyL_11application10flashcards9use_cases13create_folder17CreateFolderErrorE4from
FN:74,_RNCNCNvNtNtNtNtCsjp8PXOiLT2t_8adapters10flashcards4http6folder13create_folder17create_folder_api00Bd_
FN:71,_RNCNvNtNtNtNtCsjp8PXOiLT2t_8adapters10flashcards4http6folder13create_folder17create_folder_api0Bb_
FNDA:0,_RNvNtNtNtNtCsi6y5LRNeeCE_8adapters10flashcards4http6folder13create_folder17create_folder_api
FNDA:0,_RNvXNtNtNtNtCsi6y5LRNeeCE_8adapters10flashcards4http6folder13create_folderNtNtBa_10http_error9HttpErrorINtNtCsl8K0bEFm1U0_4core7convert4FromNtNtNtNtCs9ngygJYhGyL_11application10flashcards9use_cases13create_folder17CreateFolderErrorE4from
FNDA:0,_RNCNCNvNtNtNtNtCsi6y5LRNeeCE_8adapters10flashcards4http6folder13create_folder17create_folder_api00Bd_
FNDA:0,_RNCNvNtNtNtNtCsi6y5LRNeeCE_8adapters10flashcards4http6folder13create_folder17create_folder_api0Bb_
FNDA:0,_RNvNtNtNtNtCsjp8PXOiLT2t_8adapters10flashcards4http6folder13create_folder17create_folder_api
FNDA:0,_RNvXNtNtNtNtCsjp8PXOiLT2t_8adapters10flashcards4http6folder13create_folderNtNtBa_10http_error9HttpErrorINtNtCsl8K0bEFm1U0_4core7convert4FromNtNtNtNtCs9ngygJYhGyL_11application10flashcards9use_cases13create_folder17CreateFolderErrorE4from
FNDA:0,_RNCNCNvNtNtNtNtCsjp8PXOiLT2t_8adapters10flashcards4http6folder13create_folder17create_folder_api00Bd_
FNDA:0,_RNCNvNtNtNtNtCsjp8PXOiLT2t_8adapters10flashcards4http6folder13create_folder17create_folder_api0Bb_
FNF:4
FNH:0
DA:38,0
DA:39,0
DA:40,0
DA:42,0
DA:43,0
DA:44,0
DA:48,0
DA:51,0
DA:67,0
DA:68,0
DA:69,0
DA:70,0
DA:71,0
DA:72,0
DA:73,0
DA:74,0
DA:75,0
DA:77,0
DA:78,0
DA:79,0
DA:80,0
DA:81,0
DA:83,0
DA:85,0
DA:86,0
DA:87,0
DA:88,0
DA:89,0
BRF:0
BRH:0
LF:30
LH:0
end_of_record
SF:/Users/francescopiogaglione/projects/personal/focus_flow_workspace/focus_flow_cloud/backend/crates/adapters/src/flashcards/http/folder/delete_folder.rs
FN:35,_RNvNtNtNtNtCsi6y5LRNeeCE_8adapters10flashcards4http6folder13delete_folder17delete_folder_api
FN:47,_RNCNCNvNtNtNtNtCsi6y5LRNeeCE_8adapters10flashcards4http6folder13delete_folder17delete_folder_api00Bd_
FN:39,_RNCNvNtNtNtNtCsi6y5LRNeeCE_8adapters10flashcards4http6folder13delete_folder17delete_folder_api0Bb_
FN:35,_RNvNtNtNtNtCsjp8PXOiLT2t_8adapters10flashcards4http6folder13delete_folder17delete_folder_api
FN:47,_RNCNCNvNtNtNtNtCsjp8PXOiLT2t_8adapters10flashcards4http6folder13delete_folder17delete_folder_api00Bd_
FN:39,_RNCNvNtNtNtNtCsjp8PXOiLT2t_8adapters10flashcards4http6folder13delete_folder17delete_folder_api0Bb_
FNDA:0,_RNvNtNtNtNtCsi6y5LRNeeCE_8adapters10flashcards4http6folder13delete_folder17delete_folder_api
FNDA:0,_RNCNCNvNtNtNtNtCsi6y5LRNeeCE_8adapters10flashcards4http6folder13delete_folder17delete_folder_api00Bd_
FNDA:0,_RNCNvNtNtNtNtCsi6y5LRNeeCE_8adapters10flashcards4http6folder13delete_folder17delete_folder_api0Bb_
FNDA:0,_RNvNtNtNtNtCsjp8PXOiLT2t_8adapters10flashcards4http6folder13delete_folder17delete_folder_api
FNDA:0,_RNCNCNvNtNtNtNtCsjp8PXOiLT2t_8adapters10flashcards4http6folder13delete_folder17delete_folder_api00Bd_
FNDA:0,_RNCNvNtNtNtNtCsjp8PXOiLT2t_8adapters10flashcards4http6folder13delete_folder17delete_folder_api0Bb_
FNF:3
FNH:0
DA:35,0
DA:36,0
DA:37,0
DA:38,0
DA:39,0
DA:40,0
DA:42,0
DA:43,0
DA:44,0
DA:45,0
DA:46,0
DA:47,0
DA:49,0
DA:50,0
BRF:0
BRH:0
LF:16
LH:0
end_of_record
SF:/Users/francescopiogaglione/projects/personal/focus_flow_workspace/focus_flow_cloud/backend/crates/adapters/src/flashcards/http/folder/get_folder_content.rs
FN:98,_RNvNtNtNtNtCsi6y5LRNeeCE_8adapters10flashcards4http6folder18get_folder_content23get_folder_contents_api
FN:74,_RNvXNtNtNtNtCsi6y5LRNeeCE_8adapters10flashcards4http6folder18get_folder_contentNtNtBa_10http_error9HttpErrorINtNtCsl8K0bEFm1U0_4core7convert4FromNtNtNtNtCs9ngygJYhGyL_11application10flashcards9use_cases19get_folder_contents22GetFolderContentsErrorE4from
FN:55,_RNCNvNtNtNtNtCsi6y5LRNeeCE_8adapters10flashcards4http6folder18get_folder_content14build_response0Bb_
FN:64,_RNCNvNtNtNtNtCsi6y5LRNeeCE_8adapters10flashcards4http6folder18get_folder_content14build_responses_0Bb_
FN:102,_RNCNvNtNtNtNtCsi6y5LRNeeCE_8adapters10flashcards4http6folder18get_folder_content23get_folder_contents_api0Bb_
FN:47,_RNvNtNtNtNtCsi6y5LRNeeCE_8adapters10flashcards4http6folder18get_folder_content14build_response
FN:55,_RNCNvNtNtNtNtCsjp8PXOiLT2t_8adapters10flashcards4http6folder18get_folder_content14build_response0Bb_
FN:64,_RNCNvNtNtNtNtCsjp8PXOiLT2t_8adapters10flashcards4http6folder18get_folder_content14build_responses_0Bb_
FN:102,_RNCNvNtNtNtNtCsjp8PXOiLT2t_8adapters10flashcards4http6folder18get_folder_content23get_folder_contents_api0Bb_
FN:47,_RNvNtNtNtNtCsjp8PXOiLT2t_8adapters10flashcards4http6folder18get_folder_content14build_response
FN:98,_RNvNtNtNtNtCsjp8PXOiLT2t_8adapters10flashcards4http6folder18get_folder_content23get_folder_contents_api
FN:74,_RNvXNtNtNtNtCsjp8PXOiLT2t_8adapters10flashcards4http6folder18get_folder_contentNtNtBa_10http_error9HttpErrorINtNtCsl8K0bEFm1U0_4core7convert4FromNtNtNtNtCs9ngygJYhGyL_11application10flashcards9use_cases19get_folder_contents22GetFolderContentsErrorE4from
FNDA:0,_RNvNtNtNtNtCsi6y5LRNeeCE_8adapters10flashcards4http6folder18get_folder_content23get_folder_contents_api
FNDA:0,_RNvXNtNtNtNtCsi6y5LRNeeCE_8adapters10flashcards4http6folder18get_folder_contentNtNtBa_10http_error9HttpErrorINtNtCsl8K0bEFm1U0_4core7convert4FromNtNtNtNtCs9ngygJYhGyL_11application10flashcards9use_cases19get_folder_contents22GetFolderContentsErrorE4from
FNDA:0,_RNCNvNtNtNtNtCsi6y5LRNeeCE_8adapters10flashcards4http6folder18get_folder_content14build_response0Bb_
FNDA:0,_RNCNvNtNtNtNtCsi6y5LRNeeCE_8adapters10flashcards4http6folder18get_folder_content14build_responses_0Bb_
FNDA:0,_RNCNvNtNtNtNtCsi6y5LRNeeCE_8adapters10flashcards4http6folder18get_folder_content23get_folder_contents_api0Bb_
FNDA:0,_RNvNtNtNtNtCsi6y5LRNeeCE_8adapters10flashcards4http6folder18get_folder_content14build_response
FNDA:0,_RNCNvNtNtNtNtCsjp8PXOiLT2t_8adapters10flashcards4http6folder18get_folder_content14build_response0Bb_
FNDA:0,_RNCNvNtNtNtNtCsjp8PXOiLT2t_8adapters10flashcards4http6folder18get_folder_content14build_responses_0Bb_
FNDA:0,_RNCNvNtNtNtNtCsjp8PXOiLT2t_8adapters10flashcards4http6folder18get_folder_content23get_folder_contents_api0Bb_
FNDA:0,_RNvNtNtNtNtCsjp8PXOiLT2t_8adapters10flashcards4http6folder18get_folder_content14build_response
FNDA:0,_RNvNtNtNtNtCsjp8PXOiLT2t_8adapters10flashcards4http6folder18get_folder_content23get_folder_contents_api
FNDA:0,_RNvXNtNtNtNtCsjp8PXOiLT2t_8adapters10flashcards4http6folder18get_folder_contentNtNtBa_10http_error9HttpErrorINtNtCsl8K0bEFm1U0_4core7convert4FromNtNtNtNtCs9ngygJYhGyL_11application10flashcards9use_cases19get_folder_contents22GetFolderContentsErrorE4from
FNF:6
FNH:0
DA:47,0
DA:48,0
DA:49,0
DA:51,0
DA:52,0
DA:53,0
DA:54,0
DA:55,0
DA:56,0
DA:57,0
DA:58,0
DA:59,0
DA:60,0
DA:61,0
DA:62,0
DA:63,0
DA:64,0
DA:65,0
DA:66,0
DA:67,0
DA:68,0
DA:69,0
DA:71,0
DA:74,0
DA:75,0
DA:77,0
DA:80,0
DA:98,0
DA:99,0
DA:100,0
DA:101,0
DA:102,0
DA:103,0
DA:105,0
DA:106,0
DA:107,0
DA:108,0
DA:109,0
DA:111,0
DA:112,0
BRF:0
BRH:0
LF:41
LH:0
end_of_record
SF:/Users/francescopiogaglione/projects/personal/focus_flow_workspace/focus_flow_cloud/backend/crates/adapters/src/flashcards/http/folder/get_root_folder_content.rs
FN:35,_RNvNtNtNtNtCsi6y5LRNeeCE_8adapters10flashcards4http6folder23get_root_folder_content28get_root_folder_contents_api
FN:38,_RNCNvNtNtNtNtCsi6y5LRNeeCE_8adapters10flashcards4http6folder23get_root_folder_content28get_root_folder_contents_api0Bb_
FN:35,_RNvNtNtNtNtCsjp8PXOiLT2t_8adapters10flashcards4http6folder23get_root_folder_content28get_root_folder_contents_api
FN:38,_RNCNvNtNtNtNtCsjp8PXOiLT2t_8adapters10flashcards4http6folder23get_root_folder_content28get_root_folder_contents_api0Bb_
FNDA:0,_RNvNtNtNtNtCsi6y5LRNeeCE_8adapters10flashcards4http6folder23get_root_folder_content28get_root_folder_contents_api
FNDA:0,_RNCNvNtNtNtNtCsi6y5LRNeeCE_8adapters10flashcards4http6folder23get_root_folder_content28get_root_folder_contents_api0Bb_
FNDA:0,_RNvNtNtNtNtCsjp8PXOiLT2t_8adapters10flashcards4http6folder23get_root_folder_content28get_root_folder_contents_api
FNDA:0,_RNCNvNtNtNtNtCsjp8PXOiLT2t_8adapters10flashcards4http6folder23get_root_folder_content28get_root_folder_contents_api0Bb_
FNF:2
FNH:0
DA:35,0
DA:36,0
DA:37,0
DA:38,0
DA:39,0
DA:41,0
DA:42,0
DA:43,0
DA:44,0
DA:45,0
DA:47,0
DA:48,0
DA:49,0
DA:50,0
DA:51,0
DA:52,0
DA:53,0
BRF:0
BRH:0
LF:18
LH:0
end_of_record
SF:/Users/francescopiogaglione/projects/personal/focus_flow_workspace/focus_flow_cloud/backend/crates/adapters/src/flashcards/http/folder/routes.rs
FN:9,_RNvNtNtNtNtCsi6y5LRNeeCE_8adapters10flashcards4http6folder6routes6routes
FN:9,_RNvNtNtNtNtCsjp8PXOiLT2t_8adapters10flashcards4http6folder6routes6routes
FNDA:0,_RNvNtNtNtNtCsi6y5LRNeeCE_8adapters10flashcards4http6folder6routes6routes
FNDA:26,_RNvNtNtNtNtCsjp8PXOiLT2t_8adapters10flashcards4http6folder6routes6routes
FNF:1
FNH:1
DA:9,26
DA:10,26
DA:11,26
DA:12,26
DA:13,26
DA:14,26
DA:16,26
DA:17,26
DA:18,26
DA:20,26
DA:21,26
BRF:0
BRH:0
LF:11
LH:11
end_of_record
SF:/Users/francescopiogaglione/projects/personal/focus_flow_workspace/focus_flow_cloud/backend/crates/adapters/src/flashcards/persistence/db_models/db_flashcard.rs
FN:55,_RNvXNtNtNtNtCsi6y5LRNeeCE_8adapters10flashcards11persistence9db_models12db_flashcardNtB2_14NewDbFlashcardINtNtCsl8K0bEFm1U0_4core7convert4FromRNtNtNtNtCseoQRfqfIfnI_6domain10flashcards8entities9flashcard9FlashcardE4from
FN:81,_RNvXs0_NtNtNtNtCsi6y5LRNeeCE_8adapters10flashcards11persistence9db_models12db_flashcardNtNtNtNtCseoQRfqfIfnI_6domain10flashcards8entities9flashcard9FlashcardINtNtCsl8K0bEFm1U0_4core7convert4FromNtB5_11DbFlashcardE4from
FN:69,_RNvXs_NtNtNtNtCsi6y5LRNeeCE_8adapters10flashcards11persistence9db_models12db_flashcardNtB4_17UpdateDbFlashcardINtNtCsl8K0bEFm1U0_4core7convert4FromRNtNtNtNtCseoQRfqfIfnI_6domain10flashcards8entities9flashcard9FlashcardE4from
FN:55,_RNvXNtNtNtNtCsjp8PXOiLT2t_8adapters10flashcards11persistence9db_models12db_flashcardNtB2_14NewDbFlashcardINtNtCsl8K0bEFm1U0_4core7convert4FromRNtNtNtNtCseoQRfqfIfnI_6domain10flashcards8entities9flashcard9FlashcardE4from
FN:69,_RNvXs_NtNtNtNtCsjp8PXOiLT2t_8adapters10flashcards11persistence9db_models12db_flashcardNtB4_17UpdateDbFlashcardINtNtCsl8K0bEFm1U0_4core7convert4FromRNtNtNtNtCseoQRfqfIfnI_6domain10flashcards8entities9flashcard9FlashcardE4from
FN:81,_RNvXs0_NtNtNtNtCsjp8PXOiLT2t_8adapters10flashcards11persistence9db_models12db_flashcardNtNtNtNtCseoQRfqfIfnI_6domain10flashcards8entities9flashcard9FlashcardINtNtCsl8K0bEFm1U0_4core7convert4FromNtB5_11DbFlashcardE4from
FNDA:0,_RNvXNtNtNtNtCsi6y5LRNeeCE_8adapters10flashcards11persistence9db_models12db_flashcardNtB2_14NewDbFlashcardINtNtCsl8K0bEFm1U0_4core7convert4FromRNtNtNtNtCseoQRfqfIfnI_6domain10flashcards8entities9flashcard9FlashcardE4from
FNDA:0,_RNvXs0_NtNtNtNtCsi6y5LRNeeCE_8adapters10flashcards11persistence9db_models12db_flashcardNtNtNtNtCseoQRfqfIfnI_6domain10flashcards8entities9flashcard9FlashcardINtNtCsl8K0bEFm1U0_4core7convert4FromNtB5_11DbFlashcardE4from
FNDA:0,_RNvXs_NtNtNtNtCsi6y5LRNeeCE_8adapters10flashcards11persistence9db_models12db_flashcardNtB4_17UpdateDbFlashcardINtNtCsl8K0bEFm1U0_4core7convert4FromRNtNtNtNtCseoQRfqfIfnI_6domain10flashcards8entities9flashcard9FlashcardE4from
FNDA:0,_RNvXNtNtNtNtCsjp8PXOiLT2t_8adapters10flashcards11persistence9db_models12db_flashcardNtB2_14NewDbFlashcardINtNtCsl8K0bEFm1U0_4core7convert4FromRNtNtNtNtCseoQRfqfIfnI_6domain10flashcards8entities9flashcard9FlashcardE4from
FNDA:0,_RNvXs_NtNtNtNtCsjp8PXOiLT2t_8adapters10flashcards11persistence9db_models12db_flashcardNtB4_17UpdateDbFlashcardINtNtCsl8K0bEFm1U0_4core7convert4FromRNtNtNtNtCseoQRfqfIfnI_6domain10flashcards8entities9flashcard9FlashcardE4from
FNDA:0,_RNvXs0_NtNtNtNtCsjp8PXOiLT2t_8adapters10flashcards11persistence9db_models12db_flashcardNtNtNtNtCseoQRfqfIfnI_6domain10flashcards8entities9flashcard9FlashcardINtNtCsl8K0bEFm1U0_4core7convert4FromNtB5_11DbFlashcardE4from
FNF:3
FNH:0
DA:55,0
DA:56,0
DA:57,0
DA:58,0
DA:59,0
DA:60,0
DA:61,0
DA:62,0
DA:63,0
DA:64,0
DA:65,0
DA:69,0
DA:70,0
DA:71,0
DA:72,0
DA:73,0
DA:74,0
DA:75,0
DA:76,0
DA:77,0
DA:81,0
DA:82,0
DA:83,0
DA:84,0
DA:85,0
DA:86,0
DA:87,0
DA:88,0
DA:90,0
BRF:0
BRH:0
LF:29
LH:0
end_of_record
SF:/Users/francescopiogaglione/projects/personal/focus_flow_workspace/focus_flow_cloud/backend/crates/adapters/src/flashcards/persistence/db_models/db_folder.rs
FN:31,_RNvXNtNtNtNtCsi6y5LRNeeCE_8adapters10flashcards11persistence9db_models9db_folderNtNtNtNtCseoQRfqfIfnI_6domain6shared8entities15folder_metadata14FolderMetadataINtNtCsl8K0bEFm1U0_4core7convert4FromNtB2_8DbFolderE4from
FN:31,_RNvXNtNtNtNtCsjp8PXOiLT2t_8adapters10flashcards11persistence9db_models9db_folderNtNtNtNtCseoQRfqfIfnI_6domain6shared8entities15folder_metadata14FolderMetadataINtNtCsl8K0bEFm1U0_4core7convert4FromNtB2_8DbFolderE4from
FNDA:0,_RNvXNtNtNtNtCsi6y5LRNeeCE_8adapters10flashcards11persistence9db_models9db_folderNtNtNtNtCseoQRfqfIfnI_6domain6shared8entities15folder_metadata14FolderMetadataINtNtCsl8K0bEFm1U0_4core7convert4FromNtB2_8DbFolderE4from
FNDA:0,_RNvXNtNtNtNtCsjp8PXOiLT2t_8adapters10flashcards11persistence9db_models9db_folderNtNtNtNtCseoQRfqfIfnI_6domain6shared8entities15folder_metadata14FolderMetadataINtNtCsl8K0bEFm1U0_4core7convert4FromNtB2_8DbFolderE4from
FNF:1
FNH:0
DA:31,0
DA:32,0
DA:33,0
BRF:0
BRH:0
LF:3
LH:0
end_of_record
SF:/Users/francescopiogaglione/projects/personal/focus_flow_workspace/focus_flow_cloud/backend/crates/adapters/src/flashcards/persistence/fsrs_adapter.rs
FN:13,_RNvMNtNtNtCsi6y5LRNeeCE_8adapters10flashcards11persistence12fsrs_adapterNtB2_11FsrsAdapter3new
FN:27,_RNvNtNtNtCsi6y5LRNeeCE_8adapters10flashcards11persistence12fsrs_adapter20to_fsrs_memory_state
FN:34,_RNvNtNtNtCsi6y5LRNeeCE_8adapters10flashcards11persistence12fsrs_adapter22from_fsrs_memory_state
FN:39,_RNvXs0_NtNtNtCsi6y5LRNeeCE_8adapters10flashcards11persistence12fsrs_adapterNtB5_11FsrsAdapterNtNtNtNtCs9ngygJYhGyL_11application10flashcards6traits22spaced_repetition_port20SpacedRepetitionPort11next_states
FN:22,_RNvXs_NtNtNtCsi6y5LRNeeCE_8adapters10flashcards11persistence12fsrs_adapterNtB4_11FsrsAdapterNtNtCsl8K0bEFm1U0_4core7default7Default7default
FN:13,_RNvMNtNtNtCsjp8PXOiLT2t_8adapters10flashcards11persistence12fsrs_adapterNtB2_11FsrsAdapter3new
FN:27,_RNvNtNtNtCsjp8PXOiLT2t_8adapters10flashcards11persistence12fsrs_adapter20to_fsrs_memory_state
FN:34,_RNvNtNtNtCsjp8PXOiLT2t_8adapters10flashcards11persistence12fsrs_adapter22from_fsrs_memory_state
FN:39,_RNvXs0_NtNtNtCsjp8PXOiLT2t_8adapters10flashcards11persistence12fsrs_adapterNtB5_11FsrsAdapterNtNtNtNtCs9ngygJYhGyL_11application10flashcards6traits22spaced_repetition_port20SpacedRepetitionPort11next_states
FN:22,_RNvXs_NtNtNtCsjp8PXOiLT2t_8adapters10flashcards11persistence12fsrs_adapterNtB4_11FsrsAdapterNtNtCsl8K0bEFm1U0_4core7default7Default7default
FNDA:0,_RNvMNtNtNtCsi6y5LRNeeCE_8adapters10flashcards11persistence12fsrs_adapterNtB2_11FsrsAdapter3new
FNDA:0,_RNvNtNtNtCsi6y5LRNeeCE_8adapters10flashcards11persistence12fsrs_adapter20to_fsrs_memory_state
FNDA:0,_RNvNtNtNtCsi6y5LRNeeCE_8adapters10flashcards11persistence12fsrs_adapter22from_fsrs_memory_state
FNDA:0,_RNvXs0_NtNtNtCsi6y5LRNeeCE_8adapters10flashcards11persistence12fsrs_adapterNtB5_11FsrsAdapterNtNtNtNtCs9ngygJYhGyL_11application10flashcards6traits22spaced_repetition_port20SpacedRepetitionPort11next_states
FNDA:0,_RNvXs_NtNtNtCsi6y5LRNeeCE_8adapters10flashcards11persistence12fsrs_adapterNtB4_11FsrsAdapterNtNtCsl8K0bEFm1U0_4core7default7Default7default
FNDA:26,_RNvMNtNtNtCsjp8PXOiLT2t_8adapters10flashcards11persistence12fsrs_adapterNtB2_11FsrsAdapter3new
FNDA:0,_RNvNtNtNtCsjp8PXOiLT2t_8adapters10flashcards11persistence12fsrs_adapter20to_fsrs_memory_state
FNDA:0,_RNvNtNtNtCsjp8PXOiLT2t_8adapters10flashcards11persistence12fsrs_adapter22from_fsrs_memory_state
FNDA:0,_RNvXs0_NtNtNtCsjp8PXOiLT2t_8adapters10flashcards11persistence12fsrs_adapterNtB5_11FsrsAdapterNtNtNtNtCs9ngygJYhGyL_11application10flashcards6traits22spaced_repetition_port20SpacedRepetitionPort11next_states
FNDA:26,_RNvXs_NtNtNtCsjp8PXOiLT2t_8adapters10flashcards11persistence12fsrs_adapterNtB4_11FsrsAdapterNtNtCsl8K0bEFm1U0_4core7default7Default7default
FNF:5
FNH:2
DA:13,26
DA:14,26
DA:15,26
DA:16,26
DA:17,26
DA:18,26
DA:22,26
DA:23,26
DA:24,26
DA:27,0
DA:28,0
DA:29,0
DA:30,0
DA:31,0
DA:32,0
DA:34,0
DA:35,0
DA:36,0
DA:39,0
DA:40,0
DA:42,0
DA:43,0
DA:44,0
DA:45,0
DA:47,0
DA:48,0
DA:49,0
DA:50,0
DA:51,0
DA:52,0
DA:53,0
DA:54,0
DA:55,0
DA:56,0
DA:57,0
DA:58,0
DA:59,0
DA:60,0
DA:61,0
DA:62,0
DA:63,0
DA:64,0
DA:65,0
BRF:0
BRH:0
LF:43
LH:9
end_of_record
SF:/Users/francescopiogaglione/projects/personal/focus_flow_workspace/focus_flow_cloud/backend/crates/adapters/src/flashcards/persistence/impls/flashcard_persistence_impl.rs
FN:131,_RNCNCNCNvXNtNtNtNtCsi6y5LRNeeCE_8adapters10flashcards11persistence5impls26flashcard_persistence_implNtNtNtBg_6shared11persistence19PostgresPersistenceNtNtNtNtCs9ngygJYhGyL_11application10flashcards6traits21flashcard_persistence20FlashcardPersistence10find_by_id000Bg_
FN:142,_RNCNCNCNvXNtNtNtNtCsi6y5LRNeeCE_8adapters10flashcards11persistence5impls26flashcard_persistence_implNtNtNtBg_6shared11persistence19PostgresPersistenceNtNtNtNtCs9ngygJYhGyL_11application10flashcards6traits21flashcard_persistence20FlashcardPersistence10find_by_id00s0_0Bg_
FN:143,_RNCNCNCNvXNtNtNtNtCsi6y5LRNeeCE_8adapters10flashcards11persistence5impls26flashcard_persistence_implNtNtNtBg_6shared11persistence19PostgresPersistenceNtNtNtNtCs9ngygJYhGyL_11application10flashcards6traits21flashcard_persistence20FlashcardPersistence10find_by_id00s1_0Bg_
FN:134,_RNCNCNCNvXNtNtNtNtCsi6y5LRNeeCE_8adapters10flashcards11persistence5impls26flashcard_persistence_implNtNtNtBg_6shared11persistence19PostgresPersistenceNtNtNtNtCs9ngygJYhGyL_11application10flashcards6traits21flashcard_persistence20FlashcardPersistence10find_by_id00s_0Bg_
FN:280,_RNCNCNCNvXNtNtNtNtCsi6y5LRNeeCE_8adapters10flashcards11persistence5impls26flashcard_persistence_implNtNtNtBg_6shared11persistence19PostgresPersistenceNtNtNtNtCs9ngygJYhGyL_11application10flashcards6traits21flashcard_persistence20FlashcardPersistence13create_folder000Bg_
FN:320,_RNCNCNCNvXNtNtNtNtCsi6y5LRNeeCE_8adapters10flashcards11persistence5impls26flashcard_persistence_implNtNtNtBg_6shared11persistence19PostgresPersistenceNtNtNtNtCs9ngygJYhGyL_11application10flashcards6traits21flashcard_persistence20FlashcardPersistence13delete_folder000Bg_
FN:90,_RNCNCNCNvXNtNtNtNtCsi6y5LRNeeCE_8adapters10flashcards11persistence5impls26flashcard_persistence_implNtNtNtBg_6shared11persistence19PostgresPersistenceNtNtNtNtCs9ngygJYhGyL_11application10flashcards6traits21flashcard_persistence20FlashcardPersistence14find_by_folder000Bg_
FN:44,_RNCNCNCNvXNtNtNtNtCsi6y5LRNeeCE_8adapters10flashcards11persistence5impls26flashcard_persistence_implNtNtNtBg_6shared11persistence19PostgresPersistenceNtNtNtNtCs9ngygJYhGyL_11application10flashcards6traits21flashcard_persistence20FlashcardPersistence14save_to_folder000Bg_
FN:255,_RNCNCNCNvXNtNtNtNtCsi6y5LRNeeCE_8adapters10flashcards11persistence5impls26flashcard_persistence_implNtNtNtBg_6shared11persistence19PostgresPersistenceNtNtNtNtCs9ngygJYhGyL_11application10flashcards6traits21flashcard_persistence20FlashcardPersistence16find_due_by_user000Bg_
FN:68,_RNCNCNCNvXNtNtNtNtCsi6y5LRNeeCE_8adapters10flashcards11persistence5impls26flashcard_persistence_implNtNtNtBg_6shared11persistence19PostgresPersistenceNtNtNtNtCs9ngygJYhGyL_11application10flashcards6traits21flashcard_persistence20FlashcardPersistence18remove_from_folder000Bg_
FN:181,_RNCNCNCNvXNtNtNtNtCsi6y5LRNeeCE_8adapters10flashcards11persistence5impls26flashcard_persistence_implNtNtNtBg_6shared11persistence19PostgresPersistenceNtNtNtNtCs9ngygJYhGyL_11application10flashcards6traits21flashcard_persistence20FlashcardPersistence24find_root_folder_by_user000Bg_
FN:193,_RNCNCNCNvXNtNtNtNtCsi6y5LRNeeCE_8adapters10flashcards11persistence5impls26flashcard_persistence_implNtNtNtBg_6shared11persistence19PostgresPersistenceNtNtNtNtCs9ngygJYhGyL_11application10flashcards6traits21flashcard_persistence20FlashcardPersistence24find_root_folder_by_user00s0_0Bg_
FN:194,_RNCNCNCNvXNtNtNtNtCsi6y5LRNeeCE_8adapters10flashcards11persistence5impls26flashcard_persistence_implNtNtNtBg_6shared11persistence19PostgresPersistenceNtNtNtNtCs9ngygJYhGyL_11application10flashcards6traits21flashcard_persistence20FlashcardPersistence24find_root_folder_by_user00s1_0Bg_
FN:184,_RNCNCNCNvXNtNtNtNtCsi6y5LRNeeCE_8adapters10flashcards11persistence5impls26flashcard_persistence_implNtNtNtBg_6shared11persistence19PostgresPersistenceNtNtNtNtCs9ngygJYhGyL_11application10flashcards6traits21flashcard_persistence20FlashcardPersistence24find_root_folder_by_user00s_0Bg_
FN:162,_RNCNCNCNvXNtNtNtNtCsi6y5LRNeeCE_8adapters10flashcards11persistence5impls26flashcard_persistence_implNtNtNtBg_6shared11persistence19PostgresPersistenceNtNtNtNtCs9ngygJYhGyL_11application10flashcards6traits21flashcard_persistence20FlashcardPersistence25find_subfolders_by_parent000Bg_
FN:219,_RNCNCNCNvXNtNtNtNtCsi6y5LRNeeCE_8adapters10flashcards11persistence5impls26flashcard_persistence_implNtNtNtBg_6shared11persistence19PostgresPersistenceNtNtNtNtCs9ngygJYhGyL_11application10flashcards6traits21flashcard_persistence20FlashcardPersistence27create_root_folder_for_user000Bg_
FN:23,_RNCNCNCNvXNtNtNtNtCsi6y5LRNeeCE_8adapters10flashcards11persistence5impls26flashcard_persistence_implNtNtNtBg_6shared11persistence19PostgresPersistenceNtNtNtNtCs9ngygJYhGyL_11application10flashcards6traits21flashcard_persistence20FlashcardPersistence4save000Bg_
FN:233,_RNCNCNCNvXNtNtNtNtCsi6y5LRNeeCE_8adapters10flashcards11persistence5impls26flashcard_persistence_implNtNtNtBg_6shared11persistence19PostgresPersistenceNtNtNtNtCs9ngygJYhGyL_11application10flashcards6traits21flashcard_persistence20FlashcardPersistence6delete000Bg_
FN:108,_RNCNCNCNvXNtNtNtNtCsi6y5LRNeeCE_8adapters10flashcards11persistence5impls26flashcard_persistence_implNtNtNtBg_6shared11persistence19PostgresPersistenceNtNtNtNtCs9ngygJYhGyL_11application10flashcards6traits21flashcard_persistence20FlashcardPersistence6update000Bg_
FN:131,_RNCNCNCNvXNtNtNtNtCsjp8PXOiLT2t_8adapters10flashcards11persistence5impls26flashcard_persistence_implNtNtNtBg_6shared11persistence19PostgresPersistenceNtNtNtNtCs9ngygJYhGyL_11application10flashcards6traits21flashcard_persistence20FlashcardPersistence10find_by_id000Bg_
FN:142,_RNCNCNCNvXNtNtNtNtCsjp8PXOiLT2t_8adapters10flashcards11persistence5impls26flashcard_persistence_implNtNtNtBg_6shared11persistence19PostgresPersistenceNtNtNtNtCs9ngygJYhGyL_11application10flashcards6traits21flashcard_persistence20FlashcardPersistence10find_by_id00s0_0Bg_
FN:143,_RNCNCNCNvXNtNtNtNtCsjp8PXOiLT2t_8adapters10flashcards11persistence5impls26flashcard_persistence_implNtNtNtBg_6shared11persistence19PostgresPersistenceNtNtNtNtCs9ngygJYhGyL_11application10flashcards6traits21flashcard_persistence20FlashcardPersistence10find_by_id00s1_0Bg_
FN:134,_RNCNCNCNvXNtNtNtNtCsjp8PXOiLT2t_8adapters10flashcards11persistence5impls26flashcard_persistence_implNtNtNtBg_6shared11persistence19PostgresPersistenceNtNtNtNtCs9ngygJYhGyL_11application10flashcards6traits21flashcard_persistence20FlashcardPersistence10find_by_id00s_0Bg_
FN:280,_RNCNCNCNvXNtNtNtNtCsjp8PXOiLT2t_8adapters10flashcards11persistence5impls26flashcard_persistence_implNtNtNtBg_6shared11persistence19PostgresPersistenceNtNtNtNtCs9ngygJYhGyL_11application10flashcards6traits21flashcard_persistence20FlashcardPersistence13create_folder000Bg_
FN:320,_RNCNCNCNvXNtNtNtNtCsjp8PXOiLT2t_8adapters10flashcards11persistence5impls26flashcard_persistence_implNtNtNtBg_6shared11persistence19PostgresPersistenceNtNtNtNtCs9ngygJYhGyL_11application10flashcards6traits21flashcard_persistence20FlashcardPersistence13delete_folder000Bg_
FN:90,_RNCNCNCNvXNtNtNtNtCsjp8PXOiLT2t_8adapters10flashcards11persistence5impls26flashcard_persistence_implNtNtNtBg_6shared11persistence19PostgresPersistenceNtNtNtNtCs9ngygJYhGyL_11application10flashcards6traits21flashcard_persistence20FlashcardPersistence14find_by_folder000Bg_
FN:44,_RNCNCNCNvXNtNtNtNtCsjp8PXOiLT2t_8adapters10flashcards11persistence5impls26flashcard_persistence_implNtNtNtBg_6shared11persistence19PostgresPersistenceNtNtNtNtCs9ngygJYhGyL_11application10flashcards6traits21flashcard_persistence20FlashcardPersistence14save_to_folder000Bg_
FN:255,_RNCNCNCNvXNtNtNtNtCsjp8PXOiLT2t_8adapters10flashcards11persistence5impls26flashcard_persistence_implNtNtNtBg_6shared11persistence19PostgresPersistenceNtNtNtNtCs9ngygJYhGyL_11application10flashcards6traits21flashcard_persistence20FlashcardPersistence16find_due_by_user000Bg_
FN:68,_RNCNCNCNvXNtNtNtNtCsjp8PXOiLT2t_8adapters10flashcards11persistence5impls26flashcard_persistence_implNtNtNtBg_6shared11persistence19PostgresPersistenceNtNtNtNtCs9ngygJYhGyL_11application10flashcards6traits21flashcard_persistence20FlashcardPersistence18remove_from_folder000Bg_
FN:181,_RNCNCNCNvXNtNtNtNtCsjp8PXOiLT2t_8adapters10flashcards11persistence5impls26flashcard_persistence_implNtNtNtBg_6shared11persistence19PostgresPersistenceNtNtNtNtCs9ngygJYhGyL_11application10flashcards6traits21flashcard_persistence20FlashcardPersistence24find_root_folder_by_user000Bg_
FN:193,_RNCNCNCNvXNtNtNtNtCsjp8PXOiLT2t_8adapters10flashcards11persistence5impls26flashcard_persistence_implNtNtNtBg_6shared11persistence19PostgresPersistenceNtNtNtNtCs9ngygJYhGyL_11application10flashcards6traits21flashcard_persistence20FlashcardPersistence24find_root_folder_by_user00s0_0Bg_
FN:194,_RNCNCNCNvXNtNtNtNtCsjp8PXOiLT2t_8adapters10flashcards11persistence5impls26flashcard_persistence_implNtNtNtBg_6shared11persistence19PostgresPersistenceNtNtNtNtCs9ngygJYhGyL_11application10flashcards6traits21flashcard_persistence20FlashcardPersistence24find_root_folder_by_user00s1_0Bg_
FN:184,_RNCNCNCNvXNtNtNtNtCsjp8PXOiLT2t_8adapters10flashcards11persistence5impls26flashcard_persistence_implNtNtNtBg_6shared11persistence19PostgresPersistenceNtNtNtNtCs9ngygJYhGyL_11application10flashcards6traits21flashcard_persistence20FlashcardPersistence24find_root_folder_by_user00s_0Bg_
FN:162,_RNCNCNCNvXNtNtNtNtCsjp8PXOiLT2t_8adapters10flashcards11persistence5impls26flashcard_persistence_implNtNtNtBg_6shared11persistence19PostgresPersistenceNtNtNtNtCs9ngygJYhGyL_11application10flashcards6traits21flashcard_persistence20FlashcardPersistence25find_subfolders_by_parent000Bg_
FN:219,_RNCNCNCNvXNtNtNtNtCsjp8PXOiLT2t_8adapters10flashcards11persistence5impls26flashcard_persistence_implNtNtNtBg_6shared11persistence19PostgresPersistenceNtNtNtNtCs9ngygJYhGyL_11application10flashcards6traits21flashcard_persistence20FlashcardPersistence27create_root_folder_for_user000Bg_
FN:23,_RNCNCNCNvXNtNtNtNtCsjp8PXOiLT2t_8adapters10flashcards11persistence5impls26flashcard_persistence_implNtNtNtBg_6shared11persistence19PostgresPersistenceNtNtNtNtCs9ngygJYhGyL_11application10flashcards6traits21flashcard_persistence20FlashcardPersistence4save000Bg_
FN:233,_RNCNCNCNvXNtNtNtNtCsjp8PXOiLT2t_8adapters10flashcards11persistence5impls26flashcard_persistence_implNtNtNtBg_6shared11persistence19PostgresPersistenceNtNtNtNtCs9ngygJYhGyL_11application10flashcards6traits21flashcard_persistence20FlashcardPersistence6delete000Bg_
FN:108,_RNCNCNCNvXNtNtNtNtCsjp8PXOiLT2t_8adapters10flashcards11persistence5impls26flashcard_persistence_implNtNtNtBg_6shared11persistence19PostgresPersistenceNtNtNtNtCs9ngygJYhGyL_11application10flashcards6traits21flashcard_persistence20FlashcardPersistence6update000Bg_
FNDA:0,_RNCNCNCNvXNtNtNtNtCsi6y5LRNeeCE_8adapters10flashcards11persistence5impls26flashcard_persistence_implNtNtNtBg_6shared11persistence19PostgresPersistenceNtNtNtNtCs9ngygJYhGyL_11application10flashcards6traits21flashcard_persistence20FlashcardPersistence10find_by_id000Bg_
FNDA:0,_RNCNCNCNvXNtNtNtNtCsi6y5LRNeeCE_8adapters10flashcards11persistence5impls26flashcard_persistence_implNtNtNtBg_6shared11persistence19PostgresPersistenceNtNtNtNtCs9ngygJYhGyL_11application10flashcards6traits21flashcard_persistence20FlashcardPersistence10find_by_id00s0_0Bg_
FNDA:0,_RNCNCNCNvXNtNtNtNtCsi6y5LRNeeCE_8adapters10flashcards11persistence5impls26flashcard_persistence_implNtNtNtBg_6shared11persistence19PostgresPersistenceNtNtNtNtCs9ngygJYhGyL_11application10flashcards6traits21flashcard_persistence20FlashcardPersistence10find_by_id00s1_0Bg_
FNDA:0,_RNCNCNCNvXNtNtNtNtCsi6y5LRNeeCE_8adapters10flashcards11persistence5impls26flashcard_persistence_implNtNtNtBg_6shared11persistence19PostgresPersistenceNtNtNtNtCs9ngygJYhGyL_11application10flashcards6traits21flashcard_persistence20FlashcardPersistence10find_by_id00s_0Bg_
FNDA:0,_RNCNCNCNvXNtNtNtNtCsi6y5LRNeeCE_8adapters10flashcards11persistence5impls26flashcard_persistence_implNtNtNtBg_6shared11persistence19PostgresPersistenceNtNtNtNtCs9ngygJYhGyL_11application10flashcards6traits21flashcard_persistence20FlashcardPersistence13create_folder000Bg_
FNDA:0,_RNCNCNCNvXNtNtNtNtCsi6y5LRNeeCE_8adapters10flashcards11persistence5impls26flashcard_persistence_implNtNtNtBg_6shared11persistence19PostgresPersistenceNtNtNtNtCs9ngygJYhGyL_11application10flashcards6traits21flashcard_persistence20FlashcardPersistence13delete_folder000Bg_
FNDA:0,_RNCNCNCNvXNtNtNtNtCsi6y5LRNeeCE_8adapters10flashcards11persistence5impls26flashcard_persistence_implNtNtNtBg_6shared11persistence19PostgresPersistenceNtNtNtNtCs9ngygJYhGyL_11application10flashcards6traits21flashcard_persistence20FlashcardPersistence14find_by_folder000Bg_
FNDA:0,_RNCNCNCNvXNtNtNtNtCsi6y5LRNeeCE_8adapters10flashcards11persistence5impls26flashcard_persistence_implNtNtNtBg_6shared11persistence19PostgresPersistenceNtNtNtNtCs9ngygJYhGyL_11application10flashcards6traits21flashcard_persistence20FlashcardPersistence14save_to_folder000Bg_
FNDA:0,_RNCNCNCNvXNtNtNtNtCsi6y5LRNeeCE_8adapters10flashcards11persistence5impls26flashcard_persistence_implNtNtNtBg_6shared11persistence19PostgresPersistenceNtNtNtNtCs9ngygJYhGyL_11application10flashcards6traits21flashcard_persistence20FlashcardPersistence16find_due_by_user000Bg_
FNDA:0,_RNCNCNCNvXNtNtNtNtCsi6y5LRNeeCE_8adapters10flashcards11persistence5impls26flashcard_persistence_implNtNtNtBg_6shared11persistence19PostgresPersistenceNtNtNtNtCs9ngygJYhGyL_11application10flashcards6traits21flashcard_persistence20FlashcardPersistence18remove_from_folder000Bg_
FNDA:0,_RNCNCNCNvXNtNtNtNtCsi6y5LRNeeCE_8adapters10flashcards11persistence5impls26flashcard_persistence_implNtNtNtBg_6shared11persistence19PostgresPersistenceNtNtNtNtCs9ngygJYhGyL_11application10flashcards6traits21flashcard_persistence20FlashcardPersistence24find_root_folder_by_user000Bg_
FNDA:0,_RNCNCNCNvXNtNtNtNtCsi6y5LRNeeCE_8adapters10flashcards11persistence5impls26flashcard_persistence_implNtNtNtBg_6shared11persistence19PostgresPersistenceNtNtNtNtCs9ngygJYhGyL_11application10flashcards6traits21flashcard_persistence20FlashcardPersistence24find_root_folder_by_user00s0_0Bg_
FNDA:0,_RNCNCNCNvXNtNtNtNtCsi6y5LRNeeCE_8adapters10flashcards11persistence5impls26flashcard_persistence_implNtNtNtBg_6shared11persistence19PostgresPersistenceNtNtNtNtCs9ngygJYhGyL_11application10flashcards6traits21flashcard_persistence20FlashcardPersistence24find_root_folder_by_user00s1_0Bg_
FNDA:0,_RNCNCNCNvXNtNtNtNtCsi6y5LRNeeCE_8adapters10flashcards11persistence5impls26flashcard_persistence_implNtNtNtBg_6shared11persistence19PostgresPersistenceNtNtNtNtCs9ngygJYhGyL_11application10flashcards6traits21flashcard_persistence20FlashcardPersistence24find_root_folder_by_user00s_0Bg_
FNDA:0,_RNCNCNCNvXNtNtNtNtCsi6y5LRNeeCE_8adapters10flashcards11persistence5impls26flashcard_persistence_implNtNtNtBg_6shared11persistence19PostgresPersistenceNtNtNtNtCs9ngygJYhGyL_11application10flashcards6traits21flashcard_persistence20FlashcardPersistence25find_subfolders_by_parent000Bg_
FNDA:0,_RNCNCNCNvXNtNtNtNtCsi6y5LRNeeCE_8adapters10flashcards11persistence5impls26flashcard_persistence_implNtNtNtBg_6shared11persistence19PostgresPersistenceNtNtNtNtCs9ngygJYhGyL_11application10flashcards6traits21flashcard_persistence20FlashcardPersistence27create_root_folder_for_user000Bg_
FNDA:0,_RNCNCNCNvXNtNtNtNtCsi6y5LRNeeCE_8adapters10flashcards11persistence5impls26flashcard_persistence_implNtNtNtBg_6shared11persistence19PostgresPersistenceNtNtNtNtCs9ngygJYhGyL_11application10flashcards6traits21flashcard_persistence20FlashcardPersistence4save000Bg_
FNDA:0,_RNCNCNCNvXNtNtNtNtCsi6y5LRNeeCE_8adapters10flashcards11persistence5impls26flashcard_persistence_implNtNtNtBg_6shared11persistence19PostgresPersistenceNtNtNtNtCs9ngygJYhGyL_11application10flashcards6traits21flashcard_persistence20FlashcardPersistence6delete000Bg_
FNDA:0,_RNCNCNCNvXNtNtNtNtCsi6y5LRNeeCE_8adapters10flashcards11persistence5impls26flashcard_persistence_implNtNtNtBg_6shared11persistence19PostgresPersistenceNtNtNtNtCs9ngygJYhGyL_11application10flashcards6traits21flashcard_persistence20FlashcardPersistence6update000Bg_
FNDA:0,_RNCNCNCNvXNtNtNtNtCsjp8PXOiLT2t_8adapters10flashcards11persistence5impls26flashcard_persistence_implNtNtNtBg_6shared11persistence19PostgresPersistenceNtNtNtNtCs9ngygJYhGyL_11application10flashcards6traits21flashcard_persistence20FlashcardPersistence10find_by_id000Bg_
FNDA:0,_RNCNCNCNvXNtNtNtNtCsjp8PXOiLT2t_8adapters10flashcards11persistence5impls26flashcard_persistence_implNtNtNtBg_6shared11persistence19PostgresPersistenceNtNtNtNtCs9ngygJYhGyL_11application10flashcards6traits21flashcard_persistence20FlashcardPersistence10find_by_id00s0_0Bg_
FNDA:0,_RNCNCNCNvXNtNtNtNtCsjp8PXOiLT2t_8adapters10flashcards11persistence5impls26flashcard_persistence_implNtNtNtBg_6shared11persistence19PostgresPersistenceNtNtNtNtCs9ngygJYhGyL_11application10flashcards6traits21flashcard_persistence20FlashcardPersistence10find_by_id00s1_0Bg_
FNDA:0,_RNCNCNCNvXNtNtNtNtCsjp8PXOiLT2t_8adapters10flashcards11persistence5impls26flashcard_persistence_implNtNtNtBg_6shared11persistence19PostgresPersistenceNtNtNtNtCs9ngygJYhGyL_11application10flashcards6traits21flashcard_persistence20FlashcardPersistence10find_by_id00s_0Bg_
FNDA:0,_RNCNCNCNvXNtNtNtNtCsjp8PXOiLT2t_8adapters10flashcards11persistence5impls26flashcard_persistence_implNtNtNtBg_6shared11persistence19PostgresPersistenceNtNtNtNtCs9ngygJYhGyL_11application10flashcards6traits21flashcard_persistence20FlashcardPersistence13create_folder000Bg_
FNDA:0,_RNCNCNCNvXNtNtNtNtCsjp8PXOiLT2t_8adapters10flashcards11persistence5impls26flashcard_persistence_implNtNtNtBg_6shared11persistence19PostgresPersistenceNtNtNtNtCs9ngygJYhGyL_11application10flashcards6traits21flashcard_persistence20FlashcardPersistence13delete_folder000Bg_
FNDA:0,_RNCNCNCNvXNtNtNtNtCsjp8PXOiLT2t_8adapters10flashcards11persistence5impls26flashcard_persistence_implNtNtNtBg_6shared11persistence19PostgresPersistenceNtNtNtNtCs9ngygJYhGyL_11application10flashcards6traits21flashcard_persistence20FlashcardPersistence14find_by_folder000Bg_
FNDA:0,_RNCNCNCNvXNtNtNtNtCsjp8PXOiLT2t_8adapters10flashcards11persistence5impls26flashcard_persistence_implNtNtNtBg_6shared11persistence19PostgresPersistenceNtNtNtNtCs9ngygJYhGyL_11application10flashcards6traits21flashcard_persistence20FlashcardPersistence14save_to_folder000Bg_
FNDA:0,_RNCNCNCNvXNtNtNtNtCsjp8PXOiLT2t_8adapters10flashcards11persistence5impls26flashcard_persistence_implNtNtNtBg_6shared11persistence19PostgresPersistenceNtNtNtNtCs9ngygJYhGyL_11application10flashcards6traits21flashcard_persistence20FlashcardPersistence16find_due_by_user000Bg_
FNDA:0,_RNCNCNCNvXNtNtNtNtCsjp8PXOiLT2t_8adapters10flashcards11persistence5impls26flashcard_persistence_implNtNtNtBg_6shared11persistence19PostgresPersistenceNtNtNtNtCs9ngygJYhGyL_11application10flashcards6traits21flashcard_persistence20FlashcardPersistence18remove_from_folder000Bg_
FNDA:0,_RNCNCNCNvXNtNtNtNtCsjp8PXOiLT2t_8adapters10flashcards11persistence5impls26flashcard_persistence_implNtNtNtBg_6shared11persistence19PostgresPersistenceNtNtNtNtCs9ngygJYhGyL_11application10flashcards6traits21flashcard_persistence20FlashcardPersistence24find_root_folder_by_user000Bg_
FNDA:0,_RNCNCNCNvXNtNtNtNtCsjp8PXOiLT2t_8adapters10flashcards11persistence5impls26flashcard_persistence_implNtNtNtBg_6shared11persistence19PostgresPersistenceNtNtNtNtCs9ngygJYhGyL_11application10flashcards6traits21flashcard_persistence20FlashcardPersistence24find_root_folder_by_user00s0_0Bg_
FNDA:0,_RNCNCNCNvXNtNtNtNtCsjp8PXOiLT2t_8adapters10flashcards11persistence5impls26flashcard_persistence_implNtNtNtBg_6shared11persistence19PostgresPersistenceNtNtNtNtCs9ngygJYhGyL_11application10flashcards6traits21flashcard_persistence20FlashcardPersistence24find_root_folder_by_user00s1_0Bg_
FNDA:0,_RNCNCNCNvXNtNtNtNtCsjp8PXOiLT2t_8adapters10flashcards11persistence5impls26flashcard_persistence_implNtNtNtBg_6shared11persistence19PostgresPersistenceNtNtNtNtCs9ngygJYhGyL_11application10flashcards6traits21flashcard_persistence20FlashcardPersistence24find_root_folder_by_user00s_0Bg_
FNDA:0,_RNCNCNCNvXNtNtNtNtCsjp8PXOiLT2t_8adapters10flashcards11persistence5impls26flashcard_persistence_implNtNtNtBg_6shared11persistence19PostgresPersistenceNtNtNtNtCs9ngygJYhGyL_11application10flashcards6traits21flashcard_persistence20FlashcardPersistence25find_subfolders_by_parent000Bg_
FNDA:0,_RNCNCNCNvXNtNtNtNtCsjp8PXOiLT2t_8adapters10flashcards11persistence5impls26flashcard_persistence_implNtNtNtBg_6shared11persistence19PostgresPersistenceNtNtNtNtCs9ngygJYhGyL_11application10flashcards6traits21flashcard_persistence20FlashcardPersistence27create_root_folder_for_user000Bg_
FNDA:0,_RNCNCNCNvXNtNtNtNtCsjp8PXOiLT2t_8adapters10flashcards11persistence5impls26flashcard_persistence_implNtNtNtBg_6shared11persistence19PostgresPersistenceNtNtNtNtCs9ngygJYhGyL_11application10flashcards6traits21flashcard_persistence20FlashcardPersistence4save000Bg_
FNDA:0,_RNCNCNCNvXNtNtNtNtCsjp8PXOiLT2t_8adapters10flashcards11persistence5impls26flashcard_persistence_implNtNtNtBg_6shared11persistence19PostgresPersistenceNtNtNtNtCs9ngygJYhGyL_11application10flashcards6traits21flashcard_persistence20FlashcardPersistence6delete000Bg_
FNDA:0,_RNCNCNCNvXNtNtNtNtCsjp8PXOiLT2t_8adapters10flashcards11persistence5impls26flashcard_persistence_implNtNtNtBg_6shared11persistence19PostgresPersistenceNtNtNtNtCs9ngygJYhGyL_11application10flashcards6traits21flashcard_persistence20FlashcardPersistence6update000Bg_
FNF:19
FNH:0
DA:23,0
DA:24,0
DA:25,0
DA:26,0
DA:27,0
DA:28,0
DA:44,0
DA:45,0
DA:46,0
DA:47,0
DA:49,0
DA:50,0
DA:51,0
DA:53,0
DA:54,0
DA:68,0
DA:69,0
DA:70,0
DA:71,0
DA:72,0
DA:73,0
DA:90,0
DA:91,0
DA:92,0
DA:93,0
DA:94,0
DA:95,0
DA:96,0
DA:108,0
DA:109,0
DA:110,0
DA:111,0
DA:112,0
DA:113,0
DA:131,0
DA:134,0
DA:135,0
DA:136,0
DA:137,0
DA:138,0
DA:139,0
DA:140,0
DA:142,0
DA:143,0
DA:162,0
DA:163,0
DA:164,0
DA:165,0
DA:166,0
DA:167,0
DA:181,0
DA:184,0
DA:185,0
DA:186,0
DA:187,0
DA:188,0
DA:189,0
DA:190,0
DA:191,0
DA:193,0
DA:194,0
DA:219,0
DA:220,0
DA:221,0
DA:222,0
DA:223,0
DA:224,0
DA:233,0
DA:234,0
DA:235,0
DA:236,0
DA:237,0
DA:255,0
DA:256,0
DA:257,0
DA:258,0
DA:259,0
DA:260,0
DA:261,0
DA:280,0
DA:281,0
DA:282,0
DA:283,0
DA:284,0
DA:286,0
DA:287,0
DA:289,0
DA:292,0
DA:293,0
DA:294,0
DA:295,0
DA:296,0
DA:297,0
DA:298,0
DA:300,0
DA:301,0
DA:302,0
DA:304,0
DA:305,0
DA:306,0
DA:307,0
DA:308,0
DA:309,0
DA:310,0
DA:311,0
DA:320,0
DA:321,0
DA:322,0
DA:323,0
DA:324,0
BRF:0
BRH:0
LF:110
LH:0
end_of_record
SF:/Users/francescopiogaglione/projects/personal/focus_flow_workspace/focus_flow_cloud/backend/crates/adapters/src/http_error.rs
FN:76,_RNvMs_NtCsi6y5LRNeeCE_8adapters10http_errorNtB4_9HttpError10error_code
FN:64,_RNvMs_NtCsi6y5LRNeeCE_8adapters10http_errorNtB4_9HttpError11status_code
FN:37,_RNvXNtCsi6y5LRNeeCE_8adapters10http_errorNtB2_9HttpErrorNtNtNtCsevcpYSDmU7d_9axum_core8response13into_response12IntoResponse13into_response
FN:90,_RNvNtCsi6y5LRNeeCE_8adapters10http_error21map_persistence_error
FN:76,_RNvMs_NtCsjp8PXOiLT2t_8adapters10http_errorNtB4_9HttpError10error_code
FN:64,_RNvMs_NtCsjp8PXOiLT2t_8adapters10http_errorNtB4_9HttpError11status_code
FN:90,_RNvNtCsjp8PXOiLT2t_8adapters10http_error21map_persistence_error
FN:37,_RNvXNtCsjp8PXOiLT2t_8adapters10http_errorNtB2_9HttpErrorNtNtNtCsevcpYSDmU7d_9axum_core8response13into_response12IntoResponse13into_response
FNDA:0,_RNvMs_NtCsi6y5LRNeeCE_8adapters10http_errorNtB4_9HttpError10error_code
FNDA:0,_RNvMs_NtCsi6y5LRNeeCE_8adapters10http_errorNtB4_9HttpError11status_code
FNDA:0,_RNvXNtCsi6y5LRNeeCE_8adapters10http_errorNtB2_9HttpErrorNtNtNtCsevcpYSDmU7d_9axum_core8response13into_response12IntoResponse13into_response
FNDA:0,_RNvNtCsi6y5LRNeeCE_8adapters10http_error21map_persistence_error
FNDA:5,_RNvMs_NtCsjp8PXOiLT2t_8adapters10http_errorNtB4_9HttpError10error_code
FNDA:5,_RNvMs_NtCsjp8PXOiLT2t_8adapters10http_errorNtB4_9HttpError11status_code
FNDA:0,_RNvNtCsjp8PXOiLT2t_8adapters10http_error21map_persistence_error
FNDA:5,_RNvXNtCsjp8PXOiLT2t_8adapters10http_errorNtB2_9HttpErrorNtNtNtCsevcpYSDmU7d_9axum_core8response13into_response12IntoResponse13into_response
FNF:4
FNH:3
DA:37,5
DA:38,5
DA:39,0
DA:40,1
DA:41,0
DA:42,3
DA:43,0
DA:44,0
DA:45,1
DA:48,5
DA:49,5
DA:50,5
DA:52,5
DA:53,5
DA:54,5
DA:55,5
DA:56,5
DA:57,5
DA:59,5
DA:60,5
DA:64,5
DA:65,5
DA:66,0
DA:67,1
DA:68,1
DA:69,0
DA:70,0
DA:71,3
DA:72,0
DA:74,5
DA:76,5
DA:77,5
DA:78,0
DA:79,1
DA:80,1
DA:81,0
DA:82,0
DA:83,3
DA:84,0
DA:86,5
DA:90,0
DA:91,0
DA:92,0
DA:94,0
DA:96,0
DA:98,0
BRF:0
BRH:0
LF:46
LH:28
end_of_record
SF:/Users/francescopiogaglione/projects/personal/focus_flow_workspace/focus_flow_cloud/backend/crates/adapters/src/middleware/auth_middleware.rs
FN:13,_RNvNtNtCsi6y5LRNeeCE_8adapters10middleware15auth_middleware15auth_middleware
FN:21,_RNCNCNCNvNtNtCsi6y5LRNeeCE_8adapters10middleware15auth_middleware15auth_middleware000Bb_
FN:40,_RNCNCNCNvNtNtCsi6y5LRNeeCE_8adapters10middleware15auth_middleware15auth_middleware00s0_0Bb_
FN:37,_RNCNCNCNvNtNtCsi6y5LRNeeCE_8adapters10middleware15auth_middleware15auth_middleware00s_0Bb_
FN:17,_RNCNvNtNtCsi6y5LRNeeCE_8adapters10middleware15auth_middleware15auth_middleware0B7_
FN:21,_RNCNCNCNvNtNtCsjp8PXOiLT2t_8adapters10middleware15auth_middleware15auth_middleware000Bb_
FN:40,_RNCNCNCNvNtNtCsjp8PXOiLT2t_8adapters10middleware15auth_middleware15auth_middleware00s0_0Bb_
FN:37,_RNCNCNCNvNtNtCsjp8PXOiLT2t_8adapters10middleware15auth_middleware15auth_middleware00s_0Bb_
FN:17,_RNCNvNtNtCsjp8PXOiLT2t_8adapters10middleware15auth_middleware15auth_middleware0B7_
FN:13,_RNvNtNtCsjp8PXOiLT2t_8adapters10middleware15auth_middleware15auth_middleware
FNDA:0,_RNvNtNtCsi6y5LRNeeCE_8adapters10middleware15auth_middleware15auth_middleware
FNDA:0,_RNCNCNCNvNtNtCsi6y5LRNeeCE_8adapters10middleware15auth_middleware15auth_middleware000Bb_
FNDA:0,_RNCNCNCNvNtNtCsi6y5LRNeeCE_8adapters10middleware15auth_middleware15auth_middleware00s0_0Bb_
FNDA:0,_RNCNCNCNvNtNtCsi6y5LRNeeCE_8adapters10middleware15auth_middleware15auth_middleware00s_0Bb_
FNDA:0,_RNCNvNtNtCsi6y5LRNeeCE_8adapters10middleware15auth_middleware15auth_middleware0B7_
FNDA:0,_RNCNCNCNvNtNtCsjp8PXOiLT2t_8adapters10middleware15auth_middleware15auth_middleware000Bb_
FNDA:0,_RNCNCNCNvNtNtCsjp8PXOiLT2t_8adapters10middleware15auth_middleware15auth_middleware00s0_0Bb_
FNDA:0,_RNCNCNCNvNtNtCsjp8PXOiLT2t_8adapters10middleware15auth_middleware15auth_middleware00s_0Bb_
FNDA:0,_RNCNvNtNtCsjp8PXOiLT2t_8adapters10middleware15auth_middleware15auth_middleware0B7_
FNDA:0,_RNvNtNtCsjp8PXOiLT2t_8adapters10middleware15auth_middleware15auth_middleware
FNF:5
FNH:0
DA:13,0
DA:14,0
DA:15,0
DA:16,0
DA:17,0
DA:21,0
DA:37,0
DA:40,0
DA:46,0
BRF:0
BRH:0
LF:10
LH:0
end_of_record
SF:/Users/francescopiogaglione/projects/personal/focus_flow_workspace/focus_flow_cloud/backend/crates/adapters/src/middleware/request_id_middleware.rs
FN:50,_RNCNvXININtNtCsi6y5LRNeeCE_8adapters10middleware21request_id_middlewares_0pEINtB7_19RequestIdMiddlewarepEINtCswYrqEFFaKJ_13tower_service7ServiceINtNtCslLXNkcQVuOX_4http7request7RequestNtNtCsevcpYSDmU7d_9axum_core4body4BodyEE4call0Bb_
FN:22,_RNvXININtNtCsi6y5LRNeeCE_8adapters10middleware21request_id_middleware0pENtB5_14RequestIdLayerINtCs5li5MleAtCn_11tower_layer5LayerpE5layerB9_
FN:41,_RNvXININtNtCsi6y5LRNeeCE_8adapters10middleware21request_id_middlewares_0pEINtB5_19RequestIdMiddlewarepEINtCswYrqEFFaKJ_13tower_service7ServiceINtNtCslLXNkcQVuOX_4http7request7RequestNtNtCsevcpYSDmU7d_9axum_core4body4BodyEE10poll_readyB9_
FN:45,_RNvXININtNtCsi6y5LRNeeCE_8adapters10middleware21request_id_middlewares_0pEINtB5_19RequestIdMiddlewarepEINtCswYrqEFFaKJ_13tower_service7ServiceINtNtCslLXNkcQVuOX_4http7request7RequestNtNtCsevcpYSDmU7d_9axum_core4body4BodyEE4callB9_
FN:50,_RNCNvXs_NtNtCsjp8PXOiLT2t_8adapters10middleware21request_id_middlewareINtB6_19RequestIdMiddlewareNtNtNtCsjAXUCVyXYkS_4axum7routing5route5RouteEINtCswYrqEFFaKJ_13tower_service7ServiceINtNtCslLXNkcQVuOX_4http7request7RequestNtNtCsevcpYSDmU7d_9axum_core4body4BodyEE4call0Ba_
FN:22,_RNvXNtNtCsjp8PXOiLT2t_8adapters10middleware21request_id_middlewareNtB2_14RequestIdLayerINtCs5li5MleAtCn_11tower_layer5LayerNtNtNtCsjAXUCVyXYkS_4axum7routing5route5RouteE5layerB6_
FN:41,_RNvXs_NtNtCsjp8PXOiLT2t_8adapters10middleware21request_id_middlewareINtB4_19RequestIdMiddlewareNtNtNtCsjAXUCVyXYkS_4axum7routing5route5RouteEINtCswYrqEFFaKJ_13tower_service7ServiceINtNtCslLXNkcQVuOX_4http7request7RequestNtNtCsevcpYSDmU7d_9axum_core4body4BodyEE10poll_readyB8_
FN:45,_RNvXs_NtNtCsjp8PXOiLT2t_8adapters10middleware21request_id_middlewareINtB4_19RequestIdMiddlewareNtNtNtCsjAXUCVyXYkS_4axum7routing5route5RouteEINtCswYrqEFFaKJ_13tower_service7ServiceINtNtCslLXNkcQVuOX_4http7request7RequestNtNtCsevcpYSDmU7d_9axum_core4body4BodyEE4callB8_
FNDA:0,_RNCNvXININtNtCsi6y5LRNeeCE_8adapters10middleware21request_id_middlewares_0pEINtB7_19RequestIdMiddlewarepEINtCswYrqEFFaKJ_13tower_service7ServiceINtNtCslLXNkcQVuOX_4http7request7RequestNtNtCsevcpYSDmU7d_9axum_core4body4BodyEE4call0Bb_
FNDA:0,_RNvXININtNtCsi6y5LRNeeCE_8adapters10middleware21request_id_middleware0pENtB5_14RequestIdLayerINtCs5li5MleAtCn_11tower_layer5LayerpE5layerB9_
FNDA:0,_RNvXININtNtCsi6y5LRNeeCE_8adapters10middleware21request_id_middlewares_0pEINtB5_19RequestIdMiddlewarepEINtCswYrqEFFaKJ_13tower_service7ServiceINtNtCslLXNkcQVuOX_4http7request7RequestNtNtCsevcpYSDmU7d_9axum_core4body4BodyEE10poll_readyB9_
FNDA:0,_RNvXININtNtCsi6y5LRNeeCE_8adapters10middleware21request_id_middlewares_0pEINtB5_19RequestIdMiddlewarepEINtCswYrqEFFaKJ_13tower_service7ServiceINtNtCslLXNkcQVuOX_4http7request7RequestNtNtCsevcpYSDmU7d_9axum_core4body4BodyEE4callB9_
FNDA:114,_RNCNvXs_NtNtCsjp8PXOiLT2t_8adapters10middleware21request_id_middlewareINtB6_19RequestIdMiddlewareNtNtNtCsjAXUCVyXYkS_4axum7routing5route5RouteEINtCswYrqEFFaKJ_13tower_service7ServiceINtNtCslLXNkcQVuOX_4http7request7RequestNtNtCsevcpYSDmU7d_9axum_core4body4BodyEE4call0Ba_
FNDA:2132,_RNvXNtNtCsjp8PXOiLT2t_8adapters10middleware21request_id_middlewareNtB2_14RequestIdLayerINtCs5li5MleAtCn_11tower_layer5LayerNtNtNtCsjAXUCVyXYkS_4axum7routing5route5RouteE5layerB6_
FNDA:114,_RNvXs_NtNtCsjp8PXOiLT2t_8adapters10middleware21request_id_middlewareINtB4_19RequestIdMiddlewareNtNtNtCsjAXUCVyXYkS_4axum7routing5route5RouteEINtCswYrqEFFaKJ_13tower_service7ServiceINtNtCslLXNkcQVuOX_4http7request7RequestNtNtCsevcpYSDmU7d_9axum_core4body4BodyEE10poll_readyB8_
FNDA:114,_RNvXs_NtNtCsjp8PXOiLT2t_8adapters10middleware21request_id_middlewareINtB4_19RequestIdMiddlewareNtNtNtCsjAXUCVyXYkS_4axum7routing5route5RouteEINtCswYrqEFFaKJ_13tower_service7ServiceINtNtCslLXNkcQVuOX_4http7request7RequestNtNtCsevcpYSDmU7d_9axum_core4body4BodyEE4callB8_
FNF:4
FNH:4
DA:22,2132
DA:23,2132
DA:24,2132
DA:41,114
DA:42,114
DA:43,114
DA:45,114
DA:46,114
DA:47,114
DA:49,114
DA:50,114
DA:51,114
DA:52,114
DA:53,114
DA:54,114
DA:55,114
DA:56,114
DA:57,114
DA:58,114
DA:59,114
BRF:0
BRH:0
LF:21
LH:21
end_of_record
SF:/Users/francescopiogaglione/projects/personal/focus_flow_workspace/focus_flow_cloud/backend/crates/adapters/src/openapi.rs
FN:70,_RNvXNtCsi6y5LRNeeCE_8adapters7openapiNtB2_13SecurityAddonNtCskXs1YPsnECS_6utoipa6Modify6modify
FN:70,_RNvXNtCsjp8PXOiLT2t_8adapters7openapiNtB2_13SecurityAddonNtCskXs1YPsnECS_6utoipa6Modify6modify
FNDA:0,_RNvXNtCsi6y5LRNeeCE_8adapters7openapiNtB2_13SecurityAddonNtCskXs1YPsnECS_6utoipa6Modify6modify
FNDA:52,_RNvXNtCsjp8PXOiLT2t_8adapters7openapiNtB2_13SecurityAddonNtCskXs1YPsnECS_6utoipa6Modify6modify
FNF:1
FNH:1
DA:70,52
DA:71,52
DA:72,52
DA:73,52
DA:74,52
DA:75,52
DA:76,52
DA:77,52
DA:78,52
DA:79,52
DA:80,52
DA:81,52
DA:82,52
DA:83,52
DA:84,52
DA:85,52
DA:86,52
DA:87,52
DA:88,52
DA:89,52
BRF:0
BRH:0
LF:20
LH:20
end_of_record
SF:/Users/francescopiogaglione/projects/personal/focus_flow_workspace/focus_flow_cloud/backend/crates/adapters/src/routes.rs
FN:5,_RNvNtCsi6y5LRNeeCE_8adapters6routes10api_routes
FN:41,_RNvNtCsi6y5LRNeeCE_8adapters6routes9ws_routes
FN:5,_RNvNtCsjp8PXOiLT2t_8adapters6routes10api_routes
FN:41,_RNvNtCsjp8PXOiLT2t_8adapters6routes9ws_routes
FNDA:0,_RNvNtCsi6y5LRNeeCE_8adapters6routes10api_routes
FNDA:0,_RNvNtCsi6y5LRNeeCE_8adapters6routes9ws_routes
FNDA:26,_RNvNtCsjp8PXOiLT2t_8adapters6routes10api_routes
FNDA:26,_RNvNtCsjp8PXOiLT2t_8adapters6routes9ws_routes
FNF:2
FNH:2
DA:5,26
DA:6,26
DA:7,26
DA:8,26
DA:10,26
DA:11,26
DA:12,26
DA:13,26
DA:14,26
DA:15,26
DA:16,26
DA:17,26
DA:19,26
DA:20,26
DA:21,26
DA:23,26
DA:24,26
DA:25,26
DA:26,26
DA:27,26
DA:29,26
DA:30,26
DA:31,26
DA:33,26
DA:35,26
DA:36,26
DA:37,26
DA:38,26
DA:39,26
DA:41,26
DA:42,26
DA:43,26
DA:44,26
BRF:0
BRH:0
LF:33
LH:33
end_of_record
SF:/Users/francescopiogaglione/projects/personal/focus_flow_workspace/focus_flow_cloud/backend/crates/adapters/src/shared/http/push_subscription/handler.rs
FN:33,_RNvNtNtNtNtCsi6y5LRNeeCE_8adapters6shared4http17push_subscription7handler26save_push_subscription_api
FN:28,_RNvXNtNtNtNtCsi6y5LRNeeCE_8adapters6shared4http17push_subscription7handlerNtNtBa_10http_error9HttpErrorINtNtCsl8K0bEFm1U0_4core7convert4FromNtNtNtNtNtCs9ngygJYhGyL_11application6shared9use_cases17push_subscription22save_push_subscription25SavePushSubscriptionErrorE4from
FN:37,_RNCNvNtNtNtNtCsi6y5LRNeeCE_8adapters6shared4http17push_subscription7handler26save_push_subscription_api0Bb_
FN:37,_RNCNvNtNtNtNtCsjp8PXOiLT2t_8adapters6shared4http17push_subscription7handler26save_push_subscription_api0Bb_
FN:33,_RNvNtNtNtNtCsjp8PXOiLT2t_8adapters6shared4http17push_subscription7handler26save_push_subscription_api
FN:28,_RNvXNtNtNtNtCsjp8PXOiLT2t_8adapters6shared4http17push_subscription7handlerNtNtBa_10http_error9HttpErrorINtNtCsl8K0bEFm1U0_4core7convert4FromNtNtNtNtNtCs9ngygJYhGyL_11application6shared9use_cases17push_subscription22save_push_subscription25SavePushSubscriptionErrorE4from
FNDA:0,_RNvNtNtNtNtCsi6y5LRNeeCE_8adapters6shared4http17push_subscription7handler26save_push_subscription_api
FNDA:0,_RNvXNtNtNtNtCsi6y5LRNeeCE_8adapters6shared4http17push_subscription7handlerNtNtBa_10http_error9HttpErrorINtNtCsl8K0bEFm1U0_4core7convert4FromNtNtNtNtNtCs9ngygJYhGyL_11application6shared9use_cases17push_subscription22save_push_subscription25SavePushSubscriptionErrorE4from
FNDA:0,_RNCNvNtNtNtNtCsi6y5LRNeeCE_8adapters6shared4http17push_subscription7handler26save_push_subscription_api0Bb_
FNDA:0,_RNCNvNtNtNtNtCsjp8PXOiLT2t_8adapters6shared4http17push_subscription7handler26save_push_subscription_api0Bb_
FNDA:0,_RNvNtNtNtNtCsjp8PXOiLT2t_8adapters6shared4http17push_subscription7handler26save_push_subscription_api
FNDA:0,_RNvXNtNtNtNtCsjp8PXOiLT2t_8adapters6shared4http17push_subscription7handlerNtNtBa_10http_error9HttpErrorINtNtCsl8K0bEFm1U0_4core7convert4FromNtNtNtNtNtCs9ngygJYhGyL_11application6shared9use_cases17push_subscription22save_push_subscription25SavePushSubscriptionErrorE4from
FNF:3
FNH:0
DA:28,0
DA:29,0
DA:30,0
DA:33,0
DA:34,0
DA:35,0
DA:36,0
DA:37,0
DA:38,0
DA:39,0
DA:40,0
DA:41,0
DA:42,0
DA:43,0
DA:44,0
DA:45,0
DA:46,0
DA:47,0
DA:49,0
DA:50,0
BRF:0
BRH:0
LF:21
LH:0
end_of_record
SF:/Users/francescopiogaglione/projects/personal/focus_flow_workspace/focus_flow_cloud/backend/crates/adapters/src/shared/http/push_subscription/routes.rs
FN:6,_RNvNtNtNtNtCsi6y5LRNeeCE_8adapters6shared4http17push_subscription6routes6router
FN:6,_RNvNtNtNtNtCsjp8PXOiLT2t_8adapters6shared4http17push_subscription6routes6router
FNDA:0,_RNvNtNtNtNtCsi6y5LRNeeCE_8adapters6shared4http17push_subscription6routes6router
FNDA:26,_RNvNtNtNtNtCsjp8PXOiLT2t_8adapters6shared4http17push_subscription6routes6router
FNF:1
FNH:1
DA:6,26
DA:7,26
DA:8,26
BRF:0
BRH:0
LF:3
LH:3
end_of_record
SF:/Users/francescopiogaglione/projects/personal/focus_flow_workspace/focus_flow_cloud/backend/crates/adapters/src/shared/http/reminder/get_pending.rs
FN:36,_RNvNtNtNtNtCsi6y5LRNeeCE_8adapters6shared4http8reminder11get_pending25get_pending_reminders_api
FN:11,_RNvXNtNtNtNtCsi6y5LRNeeCE_8adapters6shared4http8reminder11get_pendingNtNtBa_10http_error9HttpErrorINtNtCsl8K0bEFm1U0_4core7convert4FromNtNtNtNtNtCs9ngygJYhGyL_11application6shared9use_cases8reminder21get_pending_reminders24GetPendingRemindersErrorE4from
FN:50,_RNCNCNvNtNtNtNtCsi6y5LRNeeCE_8adapters6shared4http8reminder11get_pending25get_pending_reminders_api00Bd_
FN:39,_RNCNvNtNtNtNtCsi6y5LRNeeCE_8adapters6shared4http8reminder11get_pending25get_pending_reminders_api0Bb_
FN:50,_RNCNCNvNtNtNtNtCsjp8PXOiLT2t_8adapters6shared4http8reminder11get_pending25get_pending_reminders_api00Bd_
FN:39,_RNCNvNtNtNtNtCsjp8PXOiLT2t_8adapters6shared4http8reminder11get_pending25get_pending_reminders_api0Bb_
FN:36,_RNvNtNtNtNtCsjp8PXOiLT2t_8adapters6shared4http8reminder11get_pending25get_pending_reminders_api
FN:11,_RNvXNtNtNtNtCsjp8PXOiLT2t_8adapters6shared4http8reminder11get_pendingNtNtBa_10http_error9HttpErrorINtNtCsl8K0bEFm1U0_4core7convert4FromNtNtNtNtNtCs9ngygJYhGyL_11application6shared9use_cases8reminder21get_pending_reminders24GetPendingRemindersErrorE4from
FNDA:0,_RNvNtNtNtNtCsi6y5LRNeeCE_8adapters6shared4http8reminder11get_pending25get_pending_reminders_api
FNDA:0,_RNvXNtNtNtNtCsi6y5LRNeeCE_8adapters6shared4http8reminder11get_pendingNtNtBa_10http_error9HttpErrorINtNtCsl8K0bEFm1U0_4core7convert4FromNtNtNtNtNtCs9ngygJYhGyL_11application6shared9use_cases8reminder21get_pending_reminders24GetPendingRemindersErrorE4from
FNDA:0,_RNCNCNvNtNtNtNtCsi6y5LRNeeCE_8adapters6shared4http8reminder11get_pending25get_pending_reminders_api00Bd_
FNDA:0,_RNCNvNtNtNtNtCsi6y5LRNeeCE_8adapters6shared4http8reminder11get_pending25get_pending_reminders_api0Bb_
FNDA:0,_RNCNCNvNtNtNtNtCsjp8PXOiLT2t_8adapters6shared4http8reminder11get_pending25get_pending_reminders_api00Bd_
FNDA:0,_RNCNvNtNtNtNtCsjp8PXOiLT2t_8adapters6shared4http8reminder11get_pending25get_pending_reminders_api0Bb_
FNDA:0,_RNvNtNtNtNtCsjp8PXOiLT2t_8adapters6shared4http8reminder11get_pending25get_pending_reminders_api
FNDA:0,_RNvXNtNtNtNtCsjp8PXOiLT2t_8adapters6shared4http8reminder11get_pendingNtNtBa_10http_error9HttpErrorINtNtCsl8K0bEFm1U0_4core7convert4FromNtNtNtNtNtCs9ngygJYhGyL_11application6shared9use_cases8reminder21get_pending_reminders24GetPendingRemindersErrorE4from
FNF:4
FNH:0
DA:11,0
DA:12,0
DA:13,0
DA:15,0
DA:36,0
DA:37,0
DA:38,0
DA:39,0
DA:40,0
DA:41,0
DA:42,0
DA:43,0
DA:44,0
DA:47,0
DA:48,0
DA:49,0
DA:50,0
DA:51,0
DA:52,0
DA:53,0
DA:54,0
DA:55,0
DA:57,0
BRF:0
BRH:0
LF:24
LH:0
end_of_record
SF:/Users/francescopiogaglione/projects/personal/focus_flow_workspace/focus_flow_cloud/backend/crates/adapters/src/shared/http/reminder/routes.rs
FN:5,_RNvNtNtNtNtCsi6y5LRNeeCE_8adapters6shared4http8reminder6routes6router
FN:5,_RNvNtNtNtNtCsjp8PXOiLT2t_8adapters6shared4http8reminder6routes6router
FNDA:0,_RNvNtNtNtNtCsi6y5LRNeeCE_8adapters6shared4http8reminder6routes6router
FNDA:26,_RNvNtNtNtNtCsjp8PXOiLT2t_8adapters6shared4http8reminder6routes6router
FNF:1
FNH:1
DA:5,26
DA:6,26
DA:7,26
DA:8,26
DA:10,26
BRF:0
BRH:0
LF:5
LH:5
end_of_record
SF:/Users/francescopiogaglione/projects/personal/focus_flow_workspace/focus_flow_cloud/backend/crates/adapters/src/shared/http/request_id.rs
FN:8,_RNvXNtNtNtCsi6y5LRNeeCE_8adapters6shared4http10request_idNtB2_9RequestIdNtNtCsl8K0bEFm1U0_4core3fmt7Display3fmt
FN:8,_RNvXNtNtNtCsjp8PXOiLT2t_8adapters6shared4http10request_idNtB2_9RequestIdNtNtCsl8K0bEFm1U0_4core3fmt7Display3fmt
FNDA:0,_RNvXNtNtNtCsi6y5LRNeeCE_8adapters6shared4http10request_idNtB2_9RequestIdNtNtCsl8K0bEFm1U0_4core3fmt7Display3fmt
FNDA:0,_RNvXNtNtNtCsjp8PXOiLT2t_8adapters6shared4http10request_idNtB2_9RequestIdNtNtCsl8K0bEFm1U0_4core3fmt7Display3fmt
FNF:1
FNH:0
DA:8,0
DA:9,0
DA:10,0
BRF:0
BRH:0
LF:3
LH:0
end_of_record
SF:/Users/francescopiogaglione/projects/personal/focus_flow_workspace/focus_flow_cloud/backend/crates/adapters/src/shared/http/validators/validate_uuid.rs
FN:5,_RNCNvNtNtNtNtCsi6y5LRNeeCE_8adapters6shared4http10validators13validate_uuid13validate_uuids_0Bb_
FN:4,_RNvNtNtNtNtCsi6y5LRNeeCE_8adapters6shared4http10validators13validate_uuid13validate_uuid
FN:33,_RNvNtNtNtNtNtCsi6y5LRNeeCE_8adapters6shared4http10validators13validate_uuid5testss_15test_error_code
FN:17,_RNvNtNtNtNtNtCsi6y5LRNeeCE_8adapters6shared4http10validators13validate_uuid5testss_15test_valid_uuid
FN:28,_RNvNtNtNtNtNtCsi6y5LRNeeCE_8adapters6shared4http10validators13validate_uuid5testss_23test_invalid_uuid_empty
FN:23,_RNvNtNtNtNtNtCsi6y5LRNeeCE_8adapters6shared4http10validators13validate_uuid5testss_31test_invalid_uuid_random_string
FN:4,_RNvNtNtNtNtCsjp8PXOiLT2t_8adapters6shared4http10validators13validate_uuid13validate_uuid
FN:5,_RNCNvNtNtNtNtCsjp8PXOiLT2t_8adapters6shared4http10validators13validate_uuid13validate_uuids_0Bb_
FNDA:3,_RNCNvNtNtNtNtCsi6y5LRNeeCE_8adapters6shared4http10validators13validate_uuid13validate_uuids_0Bb_
FNDA:4,_RNvNtNtNtNtCsi6y5LRNeeCE_8adapters6shared4http10validators13validate_uuid13validate_uuid
FNDA:1,_RNvNtNtNtNtNtCsi6y5LRNeeCE_8adapters6shared4http10validators13validate_uuid5testss_15test_error_code
FNDA:1,_RNvNtNtNtNtNtCsi6y5LRNeeCE_8adapters6shared4http10validators13validate_uuid5testss_15test_valid_uuid
FNDA:1,_RNvNtNtNtNtNtCsi6y5LRNeeCE_8adapters6shared4http10validators13validate_uuid5testss_23test_invalid_uuid_empty
FNDA:1,_RNvNtNtNtNtNtCsi6y5LRNeeCE_8adapters6shared4http10validators13validate_uuid5testss_31test_invalid_uuid_random_string
FNDA:10,_RNvNtNtNtNtCsjp8PXOiLT2t_8adapters6shared4http10validators13validate_uuid13validate_uuid
FNDA:0,_RNCNvNtNtNtNtCsjp8PXOiLT2t_8adapters6shared4http10validators13validate_uuid13validate_uuids_0Bb_
FNF:6
FNH:6
DA:4,14
DA:5,14
DA:6,3
DA:7,3
DA:8,3
DA:9,3
DA:10,14
DA:17,1
DA:18,1
DA:19,1
DA:20,1
DA:23,1
DA:24,1
DA:25,1
DA:28,1
DA:29,1
DA:30,1
DA:33,1
DA:34,1
DA:35,1
DA:36,1
BRF:0
BRH:0
LF:22
LH:22
end_of_record
SF:/Users/francescopiogaglione/projects/personal/focus_flow_workspace/focus_flow_cloud/backend/crates/adapters/src/shared/http/validators/validate_uuids.rs
FN:39,_RNvNtNtNtNtNtCsi6y5LRNeeCE_8adapters6shared4http10validators14validate_uuids5testss_15test_error_code
FN:27,_RNvNtNtNtNtNtCsi6y5LRNeeCE_8adapters6shared4http10validators14validate_uuids5testss_20test_all_valid_uuids
FN:22,_RNvNtNtNtNtNtCsi6y5LRNeeCE_8adapters6shared4http10validators14validate_uuids5testss_21test_empty_list_is_ok
FN:33,_RNvNtNtNtNtNtCsi6y5LRNeeCE_8adapters6shared4http10validators14validate_uuids5testss_27test_one_invalid_uuid_fails
FN:7,_RNCNvNtNtNtNtCsi6y5LRNeeCE_8adapters6shared4http10validators14validate_uuids14validate_uuidss_0Bb_
FN:5,_RNvNtNtNtNtCsi6y5LRNeeCE_8adapters6shared4http10validators14validate_uuids14validate_uuids
FN:5,_RNvNtNtNtNtCsjp8PXOiLT2t_8adapters6shared4http10validators14validate_uuids14validate_uuids
FN:7,_RNCNvNtNtNtNtCsjp8PXOiLT2t_8adapters6shared4http10validators14validate_uuids14validate_uuidss_0Bb_
FNDA:1,_RNvNtNtNtNtNtCsi6y5LRNeeCE_8adapters6shared4http10validators14validate_uuids5testss_15test_error_code
FNDA:1,_RNvNtNtNtNtNtCsi6y5LRNeeCE_8adapters6shared4http10validators14validate_uuids5testss_20test_all_valid_uuids
FNDA:1,_RNvNtNtNtNtNtCsi6y5LRNeeCE_8adapters6shared4http10validators14validate_uuids5testss_21test_empty_list_is_ok
FNDA:1,_RNvNtNtNtNtNtCsi6y5LRNeeCE_8adapters6shared4http10validators14validate_uuids5testss_27test_one_invalid_uuid_fails
FNDA:2,_RNCNvNtNtNtNtCsi6y5LRNeeCE_8adapters6shared4http10validators14validate_uuids14validate_uuidss_0Bb_
FNDA:4,_RNvNtNtNtNtCsi6y5LRNeeCE_8adapters6shared4http10validators14validate_uuids14validate_uuids
FNDA:0,_RNvNtNtNtNtCsjp8PXOiLT2t_8adapters6shared4http10validators14validate_uuids14validate_uuids
FNDA:0,_RNCNvNtNtNtNtCsjp8PXOiLT2t_8adapters6shared4http10validators14validate_uuids14validate_uuidss_0Bb_
FNF:6
FNH:6
DA:5,4
DA:6,5
DA:7,5
DA:8,2
DA:9,2
DA:10,2
DA:11,2
DA:12,2
DA:14,2
DA:15,4
DA:22,1
DA:23,1
DA:24,1
DA:27,1
DA:28,1
DA:29,1
DA:30,1
DA:33,1
DA:34,1
DA:35,1
DA:36,1
DA:39,1
DA:40,1
DA:41,1
DA:42,1
BRF:0
BRH:0
LF:27
LH:27
end_of_record
SF:/Users/francescopiogaglione/projects/personal/focus_flow_workspace/focus_flow_cloud/backend/crates/adapters/src/shared/http/version/routes.rs
FN:19,_RNvNtNtNtNtCsi6y5LRNeeCE_8adapters6shared4http7version6routes11get_version
FN:25,_RNvNtNtNtNtCsi6y5LRNeeCE_8adapters6shared4http7version6routes6router
FN:19,_RNCNvNtNtNtNtCsi6y5LRNeeCE_8adapters6shared4http7version6routes11get_version0Bb_
FN:19,_RNCNvNtNtNtNtCsjp8PXOiLT2t_8adapters6shared4http7version6routes11get_version0Bb_
FN:19,_RNvNtNtNtNtCsjp8PXOiLT2t_8adapters6shared4http7version6routes11get_version
FN:25,_RNvNtNtNtNtCsjp8PXOiLT2t_8adapters6shared4http7version6routes6router
FNDA:0,_RNvNtNtNtNtCsi6y5LRNeeCE_8adapters6shared4http7version6routes11get_version
FNDA:0,_RNvNtNtNtNtCsi6y5LRNeeCE_8adapters6shared4http7version6routes6router
FNDA:0,_RNCNvNtNtNtNtCsi6y5LRNeeCE_8adapters6shared4http7version6routes11get_version0Bb_
FNDA:0,_RNCNvNtNtNtNtCsjp8PXOiLT2t_8adapters6shared4http7version6routes11get_version0Bb_
FNDA:0,_RNvNtNtNtNtCsjp8PXOiLT2t_8adapters6shared4http7version6routes11get_version
FNDA:26,_RNvNtNtNtNtCsjp8PXOiLT2t_8adapters6shared4http7version6routes6router
FNF:3
FNH:1
DA:19,0
DA:20,0
DA:21,0
DA:22,0
DA:23,0
DA:25,26
DA:26,26
DA:27,26
BRF:0
BRH:0
LF:9
LH:3
end_of_record
SF:/Users/francescopiogaglione/projects/personal/focus_flow_workspace/focus_flow_cloud/backend/crates/adapters/src/shared/persistence/db_models/db_push_subscription.rs
FN:29,_RNvXNtNtNtNtCsi6y5LRNeeCE_8adapters6shared11persistence9db_models20db_push_subscriptionNtNtNtNtCseoQRfqfIfnI_6domain5tasks8entities17push_subscription16PushSubscriptionINtNtCsl8K0bEFm1U0_4core7convert4FromNtB2_18DbPushSubscriptionE4from
FN:29,_RNvXNtNtNtNtCsjp8PXOiLT2t_8adapters6shared11persistence9db_models20db_push_subscriptionNtNtNtNtCseoQRfqfIfnI_6domain5tasks8entities17push_subscription16PushSubscriptionINtNtCsl8K0bEFm1U0_4core7convert4FromNtB2_18DbPushSubscriptionE4from
FNDA:3,_RNvXNtNtNtNtCsi6y5LRNeeCE_8adapters6shared11persistence9db_models20db_push_subscriptionNtNtNtNtCseoQRfqfIfnI_6domain5tasks8entities17push_subscription16PushSubscriptionINtNtCsl8K0bEFm1U0_4core7convert4FromNtB2_18DbPushSubscriptionE4from
FNDA:0,_RNvXNtNtNtNtCsjp8PXOiLT2t_8adapters6shared11persistence9db_models20db_push_subscriptionNtNtNtNtCseoQRfqfIfnI_6domain5tasks8entities17push_subscription16PushSubscriptionINtNtCsl8K0bEFm1U0_4core7convert4FromNtB2_18DbPushSubscriptionE4from
FNF:1
FNH:1
DA:29,3
DA:30,3
DA:31,3
BRF:0
BRH:0
LF:3
LH:3
end_of_record
SF:/Users/francescopiogaglione/projects/personal/focus_flow_workspace/focus_flow_cloud/backend/crates/adapters/src/shared/persistence/db_models/db_reminder.rs
FN:59,_RNvXs_NtNtNtNtCsi6y5LRNeeCE_8adapters6shared11persistence9db_models11db_reminderNtB4_13NewDbReminderINtNtCsl8K0bEFm1U0_4core7convert4FromNtNtNtNtCseoQRfqfIfnI_6domain5tasks8entities8reminder8ReminderE4from
FN:45,_RNvXNtNtNtNtCsi6y5LRNeeCE_8adapters6shared11persistence9db_models11db_reminderNtNtNtNtCseoQRfqfIfnI_6domain5tasks8entities8reminder8ReminderINtNtCsl8K0bEFm1U0_4core7convert4FromNtB2_10DbReminderE4from
FN:59,_RNvXs_NtNtNtNtCsjp8PXOiLT2t_8adapters6shared11persistence9db_models11db_reminderNtB4_13NewDbReminderINtNtCsl8K0bEFm1U0_4core7convert4FromNtNtNtNtCseoQRfqfIfnI_6domain5tasks8entities8reminder8ReminderE4from
FN:45,_RNvXNtNtNtNtCsjp8PXOiLT2t_8adapters6shared11persistence9db_models11db_reminderNtNtNtNtCseoQRfqfIfnI_6domain5tasks8entities8reminder8ReminderINtNtCsl8K0bEFm1U0_4core7convert4FromNtB2_10DbReminderE4from
FNDA:3,_RNvXs_NtNtNtNtCsi6y5LRNeeCE_8adapters6shared11persistence9db_models11db_reminderNtB4_13NewDbReminderINtNtCsl8K0bEFm1U0_4core7convert4FromNtNtNtNtCseoQRfqfIfnI_6domain5tasks8entities8reminder8ReminderE4from
FNDA:3,_RNvXNtNtNtNtCsi6y5LRNeeCE_8adapters6shared11persistence9db_models11db_reminderNtNtNtNtCseoQRfqfIfnI_6domain5tasks8entities8reminder8ReminderINtNtCsl8K0bEFm1U0_4core7convert4FromNtB2_10DbReminderE4from
FNDA:0,_RNvXs_NtNtNtNtCsjp8PXOiLT2t_8adapters6shared11persistence9db_models11db_reminderNtB4_13NewDbReminderINtNtCsl8K0bEFm1U0_4core7convert4FromNtNtNtNtCseoQRfqfIfnI_6domain5tasks8entities8reminder8ReminderE4from
FNDA:0,_RNvXNtNtNtNtCsjp8PXOiLT2t_8adapters6shared11persistence9db_models11db_reminderNtNtNtNtCseoQRfqfIfnI_6domain5tasks8entities8reminder8ReminderINtNtCsl8K0bEFm1U0_4core7convert4FromNtB2_10DbReminderE4from
FNF:2
FNH:2
DA:45,3
DA:46,3
DA:47,3
DA:48,3
DA:49,3
DA:50,3
DA:51,3
DA:52,3
DA:53,3
DA:55,3
DA:59,3
DA:60,3
DA:61,3
DA:62,3
DA:63,3
DA:64,3
DA:65,3
DA:66,3
DA:67,3
DA:68,3
DA:69,3
BRF:0
BRH:0
LF:21
LH:21
end_of_record
SF:/Users/francescopiogaglione/projects/personal/focus_flow_workspace/focus_flow_cloud/backend/crates/adapters/src/shared/persistence/impls/persistence.rs
FN:5,_RNvNtNtNtNtCsi6y5LRNeeCE_8adapters6shared11persistence5impls11persistence20postgres_persistence
FN:5,_RNCNvNtNtNtNtCsi6y5LRNeeCE_8adapters6shared11persistence5impls11persistence20postgres_persistence0Bb_
FN:5,_RNCNvNtNtNtNtCsjp8PXOiLT2t_8adapters6shared11persistence5impls11persistence20postgres_persistence0Bb_
FN:5,_RNvNtNtNtNtCsjp8PXOiLT2t_8adapters6shared11persistence5impls11persistence20postgres_persistence
FNDA:24,_RNvNtNtNtNtCsi6y5LRNeeCE_8adapters6shared11persistence5impls11persistence20postgres_persistence
FNDA:24,_RNCNvNtNtNtNtCsi6y5LRNeeCE_8adapters6shared11persistence5impls11persistence20postgres_persistence0Bb_
FNDA:26,_RNCNvNtNtNtNtCsjp8PXOiLT2t_8adapters6shared11persistence5impls11persistence20postgres_persistence0Bb_
FNDA:26,_RNvNtNtNtNtCsjp8PXOiLT2t_8adapters6shared11persistence5impls11persistence20postgres_persistence
FNF:2
FNH:2
DA:5,50
DA:6,50
DA:8,50
DA:9,50
DA:10,50
DA:12,50
DA:13,50
BRF:0
BRH:0
LF:8
LH:8
end_of_record
SF:/Users/francescopiogaglione/projects/personal/focus_flow_workspace/focus_flow_cloud/backend/crates/adapters/src/shared/persistence/impls/push_subscription_persistence_impl.rs
FN:116,_RNvNtNtNtNtNtCsi6y5LRNeeCE_8adapters6shared11persistence5impls34push_subscription_persistence_impl5tests16create_test_user
FN:136,_RNvNtNtNtNtNtCsi6y5LRNeeCE_8adapters6shared11persistence5impls34push_subscription_persistence_impl5tests17make_subscription
FN:97,_RNvNtNtNtNtNtCsi6y5LRNeeCE_8adapters6shared11persistence5impls34push_subscription_persistence_impl5tests5setup
FN:235,_RNvNtNtNtNtNtCsi6y5LRNeeCE_8adapters6shared11persistence5impls34push_subscription_persistence_impl5testss_29test_delete_nonexistent_is_ok
FN:159,_RNvNtNtNtNtNtCsi6y5LRNeeCE_8adapters6shared11persistence5impls34push_subscription_persistence_impl5testss_31test_upsert_updates_on_conflict
FN:219,_RNvNtNtNtNtNtCsi6y5LRNeeCE_8adapters6shared11persistence5impls34push_subscription_persistence_impl5testss_32test_delete_removes_subscription
FN:243,_RNvNtNtNtNtNtCsi6y5LRNeeCE_8adapters6shared11persistence5impls34push_subscription_persistence_impl5testss_34test_get_by_user_id_isolates_users
FN:146,_RNvNtNtNtNtNtCsi6y5LRNeeCE_8adapters6shared11persistence5impls34push_subscription_persistence_impl5testss_36test_upsert_inserts_new_subscription
FN:194,_RNvNtNtNtNtNtCsi6y5LRNeeCE_8adapters6shared11persistence5impls34push_subscription_persistence_impl5testss_45test_get_by_user_id_returns_all_subscriptions
FN:186,_RNvNtNtNtNtNtCsi6y5LRNeeCE_8adapters6shared11persistence5impls34push_subscription_persistence_impl5testss_50test_get_by_user_id_returns_empty_for_unknown_user
FN:125,_RNCNCNvNtNtNtNtNtCsi6y5LRNeeCE_8adapters6shared11persistence5impls34push_subscription_persistence_impl5tests16create_test_user00Bf_
FN:109,_RNCNCNvNtNtNtNtNtCsi6y5LRNeeCE_8adapters6shared11persistence5impls34push_subscription_persistence_impl5tests5setup00Bf_
FN:118,_RNCNvNtNtNtNtNtCsi6y5LRNeeCE_8adapters6shared11persistence5impls34push_subscription_persistence_impl5tests16create_test_user0Bd_
FN:100,_RNCNvNtNtNtNtNtCsi6y5LRNeeCE_8adapters6shared11persistence5impls34push_subscription_persistence_impl5tests5setup0Bd_
FN:235,_RNCNvNtNtNtNtNtCsi6y5LRNeeCE_8adapters6shared11persistence5impls34push_subscription_persistence_impl5testss_29test_delete_nonexistent_is_ok0Bd_
FN:159,_RNCNvNtNtNtNtNtCsi6y5LRNeeCE_8adapters6shared11persistence5impls34push_subscription_persistence_impl5testss_31test_upsert_updates_on_conflict0Bd_
FN:219,_RNCNvNtNtNtNtNtCsi6y5LRNeeCE_8adapters6shared11persistence5impls34push_subscription_persistence_impl5testss_32test_delete_removes_subscription0Bd_
FN:243,_RNCNvNtNtNtNtNtCsi6y5LRNeeCE_8adapters6shared11persistence5impls34push_subscription_persistence_impl5testss_34test_get_by_user_id_isolates_users0Bd_
FN:146,_RNCNvNtNtNtNtNtCsi6y5LRNeeCE_8adapters6shared11persistence5impls34push_subscription_persistence_impl5testss_36test_upsert_inserts_new_subscription0Bd_
FN:194,_RNCNvNtNtNtNtNtCsi6y5LRNeeCE_8adapters6shared11persistence5impls34push_subscription_persistence_impl5testss_45test_get_by_user_id_returns_all_subscriptions0Bd_
FN:186,_RNCNvNtNtNtNtNtCsi6y5LRNeeCE_8adapters6shared11persistence5impls34push_subscription_persistence_impl5testss_50test_get_by_user_id_returns_empty_for_unknown_user0Bd_
FN:53,_RNCNCNCNvXNtNtNtNtCsi6y5LRNeeCE_8adapters6shared11persistence5impls34push_subscription_persistence_implNtBc_19PostgresPersistenceNtNtNtNtCs9ngygJYhGyL_11application6shared6traits29push_subscription_persistence27PushSubscriptionPersistence14get_by_user_id000Bg_
FN:63,_RNCNCNCNvXNtNtNtNtCsi6y5LRNeeCE_8adapters6shared11persistence5impls34push_subscription_persistence_implNtBc_19PostgresPersistenceNtNtNtNtCs9ngygJYhGyL_11application6shared6traits29push_subscription_persistence27PushSubscriptionPersistence14get_by_user_id00s0_0Bg_
FN:64,_RNCNCNCNvXNtNtNtNtCsi6y5LRNeeCE_8adapters6shared11persistence5impls34push_subscription_persistence_implNtBc_19PostgresPersistenceNtNtNtNtCs9ngygJYhGyL_11application6shared6traits29push_subscription_persistence27PushSubscriptionPersistence14get_by_user_id00s1_0Bg_
FN:56,_RNCNCNCNvXNtNtNtNtCsi6y5LRNeeCE_8adapters6shared11persistence5impls34push_subscription_persistence_implNtBc_19PostgresPersistenceNtNtNtNtCs9ngygJYhGyL_11application6shared6traits29push_subscription_persistence27PushSubscriptionPersistence14get_by_user_id00s_0Bg_
FN:71,_RNCNCNCNvXNtNtNtNtCsi6y5LRNeeCE_8adapters6shared11persistence5impls34push_subscription_persistence_implNtBc_19PostgresPersistenceNtNtNtNtCs9ngygJYhGyL_11application6shared6traits29push_subscription_persistence27PushSubscriptionPersistence6delete000Bg_
FN:27,_RNCNCNCNvXNtNtNtNtCsi6y5LRNeeCE_8adapters6shared11persistence5impls34push_subscription_persistence_implNtBc_19PostgresPersistenceNtNtNtNtCs9ngygJYhGyL_11application6shared6traits29push_subscription_persistence27PushSubscriptionPersistence6upsert000Bg_
FN:53,_RNCNCNCNvXNtNtNtNtCsjp8PXOiLT2t_8adapters6shared11persistence5impls34push_subscription_persistence_implNtBc_19PostgresPersistenceNtNtNtNtCs9ngygJYhGyL_11application6shared6traits29push_subscription_persistence27PushSubscriptionPersistence14get_by_user_id000Bg_
FN:63,_RNCNCNCNvXNtNtNtNtCsjp8PXOiLT2t_8adapters6shared11persistence5impls34push_subscription_persistence_implNtBc_19PostgresPersistenceNtNtNtNtCs9ngygJYhGyL_11application6shared6traits29push_subscription_persistence27PushSubscriptionPersistence14get_by_user_id00s0_0Bg_
FN:64,_RNCNCNCNvXNtNtNtNtCsjp8PXOiLT2t_8adapters6shared11persistence5impls34push_subscription_persistence_implNtBc_19PostgresPersistenceNtNtNtNtCs9ngygJYhGyL_11application6shared6traits29push_subscription_persistence27PushSubscriptionPersistence14get_by_user_id00s1_0Bg_
FN:56,_RNCNCNCNvXNtNtNtNtCsjp8PXOiLT2t_8adapters6shared11persistence5impls34push_subscription_persistence_implNtBc_19PostgresPersistenceNtNtNtNtCs9ngygJYhGyL_11application6shared6traits29push_subscription_persistence27PushSubscriptionPersistence14get_by_user_id00s_0Bg_
FN:71,_RNCNCNCNvXNtNtNtNtCsjp8PXOiLT2t_8adapters6shared11persistence5impls34push_subscription_persistence_implNtBc_19PostgresPersistenceNtNtNtNtCs9ngygJYhGyL_11application6shared6traits29push_subscription_persistence27PushSubscriptionPersistence6delete000Bg_
FN:27,_RNCNCNCNvXNtNtNtNtCsjp8PXOiLT2t_8adapters6shared11persistence5impls34push_subscription_persistence_implNtBc_19PostgresPersistenceNtNtNtNtCs9ngygJYhGyL_11application6shared6traits29push_subscription_persistence27PushSubscriptionPersistence6upsert000Bg_
FNDA:5,_RNvNtNtNtNtNtCsi6y5LRNeeCE_8adapters6shared11persistence5impls34push_subscription_persistence_impl5tests16create_test_user
FNDA:4,_RNvNtNtNtNtNtCsi6y5LRNeeCE_8adapters6shared11persistence5impls34push_subscription_persistence_impl5tests17make_subscription
FNDA:7,_RNvNtNtNtNtNtCsi6y5LRNeeCE_8adapters6shared11persistence5impls34push_subscription_persistence_impl5tests5setup
FNDA:1,_RNvNtNtNtNtNtCsi6y5LRNeeCE_8adapters6shared11persistence5impls34push_subscription_persistence_impl5testss_29test_delete_nonexistent_is_ok
FNDA:1,_RNvNtNtNtNtNtCsi6y5LRNeeCE_8adapters6shared11persistence5impls34push_subscription_persistence_impl5testss_31test_upsert_updates_on_conflict
FNDA:1,_RNvNtNtNtNtNtCsi6y5LRNeeCE_8adapters6shared11persistence5impls34push_subscription_persistence_impl5testss_32test_delete_removes_subscription
FNDA:1,_RNvNtNtNtNtNtCsi6y5LRNeeCE_8adapters6shared11persistence5impls34push_subscription_persistence_impl5testss_34test_get_by_user_id_isolates_users
FNDA:1,_RNvNtNtNtNtNtCsi6y5LRNeeCE_8adapters6shared11persistence5impls34push_subscription_persistence_impl5testss_36test_upsert_inserts_new_subscription
FNDA:1,_RNvNtNtNtNtNtCsi6y5LRNeeCE_8adapters6shared11persistence5impls34push_subscription_persistence_impl5testss_45test_get_by_user_id_returns_all_subscriptions
FNDA:1,_RNvNtNtNtNtNtCsi6y5LRNeeCE_8adapters6shared11persistence5impls34push_subscription_persistence_impl5testss_50test_get_by_user_id_returns_empty_for_unknown_user
FNDA:5,_RNCNCNvNtNtNtNtNtCsi6y5LRNeeCE_8adapters6shared11persistence5impls34push_subscription_persistence_impl5tests16create_test_user00Bf_
FNDA:7,_RNCNCNvNtNtNtNtNtCsi6y5LRNeeCE_8adapters6shared11persistence5impls34push_subscription_persistence_impl5tests5setup00Bf_
FNDA:5,_RNCNvNtNtNtNtNtCsi6y5LRNeeCE_8adapters6shared11persistence5impls34push_subscription_persistence_impl5tests16create_test_user0Bd_
FNDA:7,_RNCNvNtNtNtNtNtCsi6y5LRNeeCE_8adapters6shared11persistence5impls34push_subscription_persistence_impl5tests5setup0Bd_
FNDA:1,_RNCNvNtNtNtNtNtCsi6y5LRNeeCE_8adapters6shared11persistence5impls34push_subscription_persistence_impl5testss_29test_delete_nonexistent_is_ok0Bd_
FNDA:1,_RNCNvNtNtNtNtNtCsi6y5LRNeeCE_8adapters6shared11persistence5impls34push_subscription_persistence_impl5testss_31test_upsert_updates_on_conflict0Bd_
FNDA:1,_RNCNvNtNtNtNtNtCsi6y5LRNeeCE_8adapters6shared11persistence5impls34push_subscription_persistence_impl5testss_32test_delete_removes_subscription0Bd_
FNDA:1,_RNCNvNtNtNtNtNtCsi6y5LRNeeCE_8adapters6shared11persistence5impls34push_subscription_persistence_impl5testss_34test_get_by_user_id_isolates_users0Bd_
FNDA:1,_RNCNvNtNtNtNtNtCsi6y5LRNeeCE_8adapters6shared11persistence5impls34push_subscription_persistence_impl5testss_36test_upsert_inserts_new_subscription0Bd_
FNDA:1,_RNCNvNtNtNtNtNtCsi6y5LRNeeCE_8adapters6shared11persistence5impls34push_subscription_persistence_impl5testss_45test_get_by_user_id_returns_all_subscriptions0Bd_
FNDA:1,_RNCNvNtNtNtNtNtCsi6y5LRNeeCE_8adapters6shared11persistence5impls34push_subscription_persistence_impl5testss_50test_get_by_user_id_returns_empty_for_unknown_user0Bd_
FNDA:0,_RNCNCNCNvXNtNtNtNtCsi6y5LRNeeCE_8adapters6shared11persistence5impls34push_subscription_persistence_implNtBc_19PostgresPersistenceNtNtNtNtCs9ngygJYhGyL_11application6shared6traits29push_subscription_persistence27PushSubscriptionPersistence14get_by_user_id000Bg_
FNDA:0,_RNCNCNCNvXNtNtNtNtCsi6y5LRNeeCE_8adapters6shared11persistence5impls34push_subscription_persistence_implNtBc_19PostgresPersistenceNtNtNtNtCs9ngygJYhGyL_11application6shared6traits29push_subscription_persistence27PushSubscriptionPersistence14get_by_user_id00s0_0Bg_
FNDA:0,_RNCNCNCNvXNtNtNtNtCsi6y5LRNeeCE_8adapters6shared11persistence5impls34push_subscription_persistence_implNtBc_19PostgresPersistenceNtNtNtNtCs9ngygJYhGyL_11application6shared6traits29push_subscription_persistence27PushSubscriptionPersistence14get_by_user_id00s1_0Bg_
FNDA:5,_RNCNCNCNvXNtNtNtNtCsi6y5LRNeeCE_8adapters6shared11persistence5impls34push_subscription_persistence_implNtBc_19PostgresPersistenceNtNtNtNtCs9ngygJYhGyL_11application6shared6traits29push_subscription_persistence27PushSubscriptionPersistence14get_by_user_id00s_0Bg_
FNDA:2,_RNCNCNCNvXNtNtNtNtCsi6y5LRNeeCE_8adapters6shared11persistence5impls34push_subscription_persistence_implNtBc_19PostgresPersistenceNtNtNtNtCs9ngygJYhGyL_11application6shared6traits29push_subscription_persistence27PushSubscriptionPersistence6delete000Bg_
FNDA:7,_RNCNCNCNvXNtNtNtNtCsi6y5LRNeeCE_8adapters6shared11persistence5impls34push_subscription_persistence_implNtBc_19PostgresPersistenceNtNtNtNtCs9ngygJYhGyL_11application6shared6traits29push_subscription_persistence27PushSubscriptionPersistence6upsert000Bg_
FNDA:0,_RNCNCNCNvXNtNtNtNtCsjp8PXOiLT2t_8adapters6shared11persistence5impls34push_subscription_persistence_implNtBc_19PostgresPersistenceNtNtNtNtCs9ngygJYhGyL_11application6shared6traits29push_subscription_persistence27PushSubscriptionPersistence14get_by_user_id000Bg_
FNDA:0,_RNCNCNCNvXNtNtNtNtCsjp8PXOiLT2t_8adapters6shared11persistence5impls34push_subscription_persistence_implNtBc_19PostgresPersistenceNtNtNtNtCs9ngygJYhGyL_11application6shared6traits29push_subscription_persistence27PushSubscriptionPersistence14get_by_user_id00s0_0Bg_
FNDA:0,_RNCNCNCNvXNtNtNtNtCsjp8PXOiLT2t_8adapters6shared11persistence5impls34push_subscription_persistence_implNtBc_19PostgresPersistenceNtNtNtNtCs9ngygJYhGyL_11application6shared6traits29push_subscription_persistence27PushSubscriptionPersistence14get_by_user_id00s1_0Bg_
FNDA:0,_RNCNCNCNvXNtNtNtNtCsjp8PXOiLT2t_8adapters6shared11persistence5impls34push_subscription_persistence_implNtBc_19PostgresPersistenceNtNtNtNtCs9ngygJYhGyL_11application6shared6traits29push_subscription_persistence27PushSubscriptionPersistence14get_by_user_id00s_0Bg_
FNDA:0,_RNCNCNCNvXNtNtNtNtCsjp8PXOiLT2t_8adapters6shared11persistence5impls34push_subscription_persistence_implNtBc_19PostgresPersistenceNtNtNtNtCs9ngygJYhGyL_11application6shared6traits29push_subscription_persistence27PushSubscriptionPersistence6delete000Bg_
FNDA:0,_RNCNCNCNvXNtNtNtNtCsjp8PXOiLT2t_8adapters6shared11persistence5impls34push_subscription_persistence_implNtBc_19PostgresPersistenceNtNtNtNtCs9ngygJYhGyL_11application6shared6traits29push_subscription_persistence27PushSubscriptionPersistence6upsert000Bg_
FNF:27
FNH:24
DA:27,7
DA:28,7
DA:29,7
DA:30,7
DA:31,7
DA:32,7
DA:33,7
DA:34,7
DA:35,7
DA:36,7
DA:37,7
DA:38,7
DA:39,7
DA:40,7
DA:41,7
DA:42,7
DA:43,7
DA:53,0
DA:56,5
DA:57,5
DA:58,5
DA:59,5
DA:60,5
DA:61,5
DA:63,0
DA:64,0
DA:71,2
DA:72,2
DA:73,2
DA:75,2
DA:76,2
DA:77,2
DA:97,7
DA:98,7
DA:99,7
DA:100,7
DA:101,7
DA:102,7
DA:103,7
DA:104,7
DA:106,7
DA:108,7
DA:109,7
DA:110,7
DA:111,7
DA:113,7
DA:114,7
DA:116,5
DA:117,5
DA:118,5
DA:119,5
DA:120,5
DA:121,5
DA:122,5
DA:123,5
DA:124,5
DA:125,5
DA:126,5
DA:127,5
DA:128,5
DA:129,5
DA:130,5
DA:131,5
DA:132,5
DA:133,5
DA:134,5
DA:136,4
DA:137,4
DA:138,4
DA:139,4
DA:140,4
DA:141,4
DA:143,4
DA:146,1
DA:147,1
DA:148,1
DA:150,1
DA:151,1
DA:152,1
DA:153,1
DA:155,1
DA:156,1
DA:159,1
DA:160,1
DA:161,1
DA:163,1
DA:164,1
DA:167,1
DA:168,1
DA:169,1
DA:170,1
DA:171,1
DA:172,1
DA:174,1
DA:177,1
DA:179,1
DA:180,1
DA:181,1
DA:182,1
DA:183,1
DA:186,1
DA:187,1
DA:189,1
DA:190,1
DA:191,1
DA:194,1
DA:195,1
DA:196,1
DA:198,1
DA:199,1
DA:200,1
DA:201,1
DA:202,1
DA:204,1
DA:205,1
DA:206,1
DA:207,1
DA:208,1
DA:211,1
DA:212,1
DA:214,1
DA:215,1
DA:216,1
DA:219,1
DA:220,1
DA:221,1
DA:223,1
DA:224,1
DA:225,1
DA:226,1
DA:228,1
DA:230,1
DA:231,1
DA:232,1
DA:235,1
DA:236,1
DA:238,1
DA:239,1
DA:240,1
DA:243,1
DA:244,1
DA:245,1
DA:247,1
DA:249,1
DA:250,1
DA:251,1
BRF:0
BRH:0
LF:164
LH:161
end_of_record
SF:/Users/francescopiogaglione/projects/personal/focus_flow_workspace/focus_flow_cloud/backend/crates/adapters/src/shared/persistence/impls/reminder_persistence_impl.rs
FN:188,_RNvNtNtNtNtNtCsi6y5LRNeeCE_8adapters6shared11persistence5impls25reminder_persistence_impl5tests13make_reminder
FN:168,_RNvNtNtNtNtNtCsi6y5LRNeeCE_8adapters6shared11persistence5impls25reminder_persistence_impl5tests16create_test_user
FN:149,_RNvNtNtNtNtNtCsi6y5LRNeeCE_8adapters6shared11persistence5impls25reminder_persistence_impl5tests5setup
FN:220,_RNvNtNtNtNtNtCsi6y5LRNeeCE_8adapters6shared11persistence5impls25reminder_persistence_impl5testss_20test_delete_reminder
FN:234,_RNvNtNtNtNtNtCsi6y5LRNeeCE_8adapters6shared11persistence5impls25reminder_persistence_impl5testss_20test_update_reminder
FN:199,_RNvNtNtNtNtNtCsi6y5LRNeeCE_8adapters6shared11persistence5impls25reminder_persistence_impl5testss_26test_save_and_get_reminder
FN:262,_RNvNtNtNtNtNtCsi6y5LRNeeCE_8adapters6shared11persistence5impls25reminder_persistence_impl5testss_27test_find_by_task_ids_empty
FN:213,_RNvNtNtNtNtNtCsi6y5LRNeeCE_8adapters6shared11persistence5impls25reminder_persistence_impl5testss_27test_get_reminder_not_found
FN:269,_RNvNtNtNtNtNtCsi6y5LRNeeCE_8adapters6shared11persistence5impls25reminder_persistence_impl5testss_30test_find_by_task_ids_no_match
FN:108,_RNCNCNCNCNvXNtNtNtNtCsi6y5LRNeeCE_8adapters6shared11persistence5impls25reminder_persistence_implNtBe_19PostgresPersistenceNtNtNtNtCs9ngygJYhGyL_11application6shared6traits20reminder_persistence19ReminderPersistence20find_pending_by_user0000Bi_
FN:100,_RNCNCNCNvXNtNtNtNtCsi6y5LRNeeCE_8adapters6shared11persistence5impls25reminder_persistence_implNtBc_19PostgresPersistenceNtNtNtNtCs9ngygJYhGyL_11application6shared6traits20reminder_persistence19ReminderPersistence20find_pending_by_user000Bg_
FN:177,_RNCNCNvNtNtNtNtNtCsi6y5LRNeeCE_8adapters6shared11persistence5impls25reminder_persistence_impl5tests16create_test_user00Bf_
FN:161,_RNCNCNvNtNtNtNtNtCsi6y5LRNeeCE_8adapters6shared11persistence5impls25reminder_persistence_impl5tests5setup00Bf_
FN:170,_RNCNvNtNtNtNtNtCsi6y5LRNeeCE_8adapters6shared11persistence5impls25reminder_persistence_impl5tests16create_test_user0Bd_
FN:152,_RNCNvNtNtNtNtNtCsi6y5LRNeeCE_8adapters6shared11persistence5impls25reminder_persistence_impl5tests5setup0Bd_
FN:220,_RNCNvNtNtNtNtNtCsi6y5LRNeeCE_8adapters6shared11persistence5impls25reminder_persistence_impl5testss_20test_delete_reminder0Bd_
FN:234,_RNCNvNtNtNtNtNtCsi6y5LRNeeCE_8adapters6shared11persistence5impls25reminder_persistence_impl5testss_20test_update_reminder0Bd_
FN:199,_RNCNvNtNtNtNtNtCsi6y5LRNeeCE_8adapters6shared11persistence5impls25reminder_persistence_impl5testss_26test_save_and_get_reminder0Bd_
FN:262,_RNCNvNtNtNtNtNtCsi6y5LRNeeCE_8adapters6shared11persistence5impls25reminder_persistence_impl5testss_27test_find_by_task_ids_empty0Bd_
FN:213,_RNCNvNtNtNtNtNtCsi6y5LRNeeCE_8adapters6shared11persistence5impls25reminder_persistence_impl5testss_27test_get_reminder_not_found0Bd_
FN:269,_RNCNvNtNtNtNtNtCsi6y5LRNeeCE_8adapters6shared11persistence5impls25reminder_persistence_impl5testss_30test_find_by_task_ids_no_match0Bd_
FN:91,_RNCNCNCNCNvXNtNtNtNtCsi6y5LRNeeCE_8adapters6shared11persistence5impls25reminder_persistence_implNtBe_19PostgresPersistenceNtNtNtNtCs9ngygJYhGyL_11application6shared6traits20reminder_persistence19ReminderPersistence16find_by_task_ids0000Bi_
FN:39,_RNCNCNCNvXNtNtNtNtCsi6y5LRNeeCE_8adapters6shared11persistence5impls25reminder_persistence_implNtBc_19PostgresPersistenceNtNtNtNtCs9ngygJYhGyL_11application6shared6traits20reminder_persistence19ReminderPersistence12get_reminder000Bg_
FN:50,_RNCNCNCNvXNtNtNtNtCsi6y5LRNeeCE_8adapters6shared11persistence5impls25reminder_persistence_implNtBc_19PostgresPersistenceNtNtNtNtCs9ngygJYhGyL_11application6shared6traits20reminder_persistence19ReminderPersistence12get_reminder00s0_0Bg_
FN:51,_RNCNCNCNvXNtNtNtNtCsi6y5LRNeeCE_8adapters6shared11persistence5impls25reminder_persistence_implNtBc_19PostgresPersistenceNtNtNtNtCs9ngygJYhGyL_11application6shared6traits20reminder_persistence19ReminderPersistence12get_reminder00s1_0Bg_
FN:53,_RNCNCNCNvXNtNtNtNtCsi6y5LRNeeCE_8adapters6shared11persistence5impls25reminder_persistence_implNtBc_19PostgresPersistenceNtNtNtNtCs9ngygJYhGyL_11application6shared6traits20reminder_persistence19ReminderPersistence12get_reminder00s2_0Bg_
FN:42,_RNCNCNCNvXNtNtNtNtCsi6y5LRNeeCE_8adapters6shared11persistence5impls25reminder_persistence_implNtBc_19PostgresPersistenceNtNtNtNtCs9ngygJYhGyL_11application6shared6traits20reminder_persistence19ReminderPersistence12get_reminder00s_0Bg_
FN:24,_RNCNCNCNvXNtNtNtNtCsi6y5LRNeeCE_8adapters6shared11persistence5impls25reminder_persistence_implNtBc_19PostgresPersistenceNtNtNtNtCs9ngygJYhGyL_11application6shared6traits20reminder_persistence19ReminderPersistence13save_reminder000Bg_
FN:62,_RNCNCNCNvXNtNtNtNtCsi6y5LRNeeCE_8adapters6shared11persistence5impls25reminder_persistence_implNtBc_19PostgresPersistenceNtNtNtNtCs9ngygJYhGyL_11application6shared6traits20reminder_persistence19ReminderPersistence15delete_reminder000Bg_
FN:69,_RNCNCNCNvXNtNtNtNtCsi6y5LRNeeCE_8adapters6shared11persistence5impls25reminder_persistence_implNtBc_19PostgresPersistenceNtNtNtNtCs9ngygJYhGyL_11application6shared6traits20reminder_persistence19ReminderPersistence15delete_reminder00s0_0Bg_
FN:70,_RNCNCNCNvXNtNtNtNtCsi6y5LRNeeCE_8adapters6shared11persistence5impls25reminder_persistence_implNtBc_19PostgresPersistenceNtNtNtNtCs9ngygJYhGyL_11application6shared6traits20reminder_persistence19ReminderPersistence15delete_reminder00s1_0Bg_
FN:64,_RNCNCNCNvXNtNtNtNtCsi6y5LRNeeCE_8adapters6shared11persistence5impls25reminder_persistence_implNtBc_19PostgresPersistenceNtNtNtNtCs9ngygJYhGyL_11application6shared6traits20reminder_persistence19ReminderPersistence15delete_reminder00s_0Bg_
FN:123,_RNCNCNCNvXNtNtNtNtCsi6y5LRNeeCE_8adapters6shared11persistence5impls25reminder_persistence_implNtBc_19PostgresPersistenceNtNtNtNtCs9ngygJYhGyL_11application6shared6traits20reminder_persistence19ReminderPersistence15update_reminder000Bg_
FN:81,_RNCNCNCNvXNtNtNtNtCsi6y5LRNeeCE_8adapters6shared11persistence5impls25reminder_persistence_implNtBc_19PostgresPersistenceNtNtNtNtCs9ngygJYhGyL_11application6shared6traits20reminder_persistence19ReminderPersistence16find_by_task_ids000Bg_
FN:91,_RNCNCNCNCNvXNtNtNtNtCsjp8PXOiLT2t_8adapters6shared11persistence5impls25reminder_persistence_implNtBe_19PostgresPersistenceNtNtNtNtCs9ngygJYhGyL_11application6shared6traits20reminder_persistence19ReminderPersistence16find_by_task_ids0000Bi_
FN:108,_RNCNCNCNCNvXNtNtNtNtCsjp8PXOiLT2t_8adapters6shared11persistence5impls25reminder_persistence_implNtBe_19PostgresPersistenceNtNtNtNtCs9ngygJYhGyL_11application6shared6traits20reminder_persistence19ReminderPersistence20find_pending_by_user0000Bi_
FN:39,_RNCNCNCNvXNtNtNtNtCsjp8PXOiLT2t_8adapters6shared11persistence5impls25reminder_persistence_implNtBc_19PostgresPersistenceNtNtNtNtCs9ngygJYhGyL_11application6shared6traits20reminder_persistence19ReminderPersistence12get_reminder000Bg_
FN:50,_RNCNCNCNvXNtNtNtNtCsjp8PXOiLT2t_8adapters6shared11persistence5impls25reminder_persistence_implNtBc_19PostgresPersistenceNtNtNtNtCs9ngygJYhGyL_11application6shared6traits20reminder_persistence19ReminderPersistence12get_reminder00s0_0Bg_
FN:51,_RNCNCNCNvXNtNtNtNtCsjp8PXOiLT2t_8adapters6shared11persistence5impls25reminder_persistence_implNtBc_19PostgresPersistenceNtNtNtNtCs9ngygJYhGyL_11application6shared6traits20reminder_persistence19ReminderPersistence12get_reminder00s1_0Bg_
FN:53,_RNCNCNCNvXNtNtNtNtCsjp8PXOiLT2t_8adapters6shared11persistence5impls25reminder_persistence_implNtBc_19PostgresPersistenceNtNtNtNtCs9ngygJYhGyL_11application6shared6traits20reminder_persistence19ReminderPersistence12get_reminder00s2_0Bg_
FN:42,_RNCNCNCNvXNtNtNtNtCsjp8PXOiLT2t_8adapters6shared11persistence5impls25reminder_persistence_implNtBc_19PostgresPersistenceNtNtNtNtCs9ngygJYhGyL_11application6shared6traits20reminder_persistence19ReminderPersistence12get_reminder00s_0Bg_
FN:24,_RNCNCNCNvXNtNtNtNtCsjp8PXOiLT2t_8adapters6shared11persistence5impls25reminder_persistence_implNtBc_19PostgresPersistenceNtNtNtNtCs9ngygJYhGyL_11application6shared6traits20reminder_persistence19ReminderPersistence13save_reminder000Bg_
FN:62,_RNCNCNCNvXNtNtNtNtCsjp8PXOiLT2t_8adapters6shared11persistence5impls25reminder_persistence_implNtBc_19PostgresPersistenceNtNtNtNtCs9ngygJYhGyL_11application6shared6traits20reminder_persistence19ReminderPersistence15delete_reminder000Bg_
FN:69,_RNCNCNCNvXNtNtNtNtCsjp8PXOiLT2t_8adapters6shared11persistence5impls25reminder_persistence_implNtBc_19PostgresPersistenceNtNtNtNtCs9ngygJYhGyL_11application6shared6traits20reminder_persistence19ReminderPersistence15delete_reminder00s0_0Bg_
FN:70,_RNCNCNCNvXNtNtNtNtCsjp8PXOiLT2t_8adapters6shared11persistence5impls25reminder_persistence_implNtBc_19PostgresPersistenceNtNtNtNtCs9ngygJYhGyL_11application6shared6traits20reminder_persistence19ReminderPersistence15delete_reminder00s1_0Bg_
FN:64,_RNCNCNCNvXNtNtNtNtCsjp8PXOiLT2t_8adapters6shared11persistence5impls25reminder_persistence_implNtBc_19PostgresPersistenceNtNtNtNtCs9ngygJYhGyL_11application6shared6traits20reminder_persistence19ReminderPersistence15delete_reminder00s_0Bg_
FN:123,_RNCNCNCNvXNtNtNtNtCsjp8PXOiLT2t_8adapters6shared11persistence5impls25reminder_persistence_implNtBc_19PostgresPersistenceNtNtNtNtCs9ngygJYhGyL_11application6shared6traits20reminder_persistence19ReminderPersistence15update_reminder000Bg_
FN:81,_RNCNCNCNvXNtNtNtNtCsjp8PXOiLT2t_8adapters6shared11persistence5impls25reminder_persistence_implNtBc_19PostgresPersistenceNtNtNtNtCs9ngygJYhGyL_11application6shared6traits20reminder_persistence19ReminderPersistence16find_by_task_ids000Bg_
FN:100,_RNCNCNCNvXNtNtNtNtCsjp8PXOiLT2t_8adapters6shared11persistence5impls25reminder_persistence_implNtBc_19PostgresPersistenceNtNtNtNtCs9ngygJYhGyL_11application6shared6traits20reminder_persistence19ReminderPersistence20find_pending_by_user000Bg_
FNDA:3,_RNvNtNtNtNtNtCsi6y5LRNeeCE_8adapters6shared11persistence5impls25reminder_persistence_impl5tests13make_reminder
FNDA:3,_RNvNtNtNtNtNtCsi6y5LRNeeCE_8adapters6shared11persistence5impls25reminder_persistence_impl5tests16create_test_user
FNDA:6,_RNvNtNtNtNtNtCsi6y5LRNeeCE_8adapters6shared11persistence5impls25reminder_persistence_impl5tests5setup
FNDA:1,_RNvNtNtNtNtNtCsi6y5LRNeeCE_8adapters6shared11persistence5impls25reminder_persistence_impl5testss_20test_delete_reminder
FNDA:1,_RNvNtNtNtNtNtCsi6y5LRNeeCE_8adapters6shared11persistence5impls25reminder_persistence_impl5testss_20test_update_reminder
FNDA:1,_RNvNtNtNtNtNtCsi6y5LRNeeCE_8adapters6shared11persistence5impls25reminder_persistence_impl5testss_26test_save_and_get_reminder
FNDA:1,_RNvNtNtNtNtNtCsi6y5LRNeeCE_8adapters6shared11persistence5impls25reminder_persistence_impl5testss_27test_find_by_task_ids_empty
FNDA:1,_RNvNtNtNtNtNtCsi6y5LRNeeCE_8adapters6shared11persistence5impls25reminder_persistence_impl5testss_27test_get_reminder_not_found
FNDA:1,_RNvNtNtNtNtNtCsi6y5LRNeeCE_8adapters6shared11persistence5impls25reminder_persistence_impl5testss_30test_find_by_task_ids_no_match
FNDA:0,_RNCNCNCNCNvXNtNtNtNtCsi6y5LRNeeCE_8adapters6shared11persistence5impls25reminder_persistence_implNtBe_19PostgresPersistenceNtNtNtNtCs9ngygJYhGyL_11application6shared6traits20reminder_persistence19ReminderPersistence20find_pending_by_user0000Bi_
FNDA:0,_RNCNCNCNvXNtNtNtNtCsi6y5LRNeeCE_8adapters6shared11persistence5impls25reminder_persistence_implNtBc_19PostgresPersistenceNtNtNtNtCs9ngygJYhGyL_11application6shared6traits20reminder_persistence19ReminderPersistence20find_pending_by_user000Bg_
FNDA:3,_RNCNCNvNtNtNtNtNtCsi6y5LRNeeCE_8adapters6shared11persistence5impls25reminder_persistence_impl5tests16create_test_user00Bf_
FNDA:6,_RNCNCNvNtNtNtNtNtCsi6y5LRNeeCE_8adapters6shared11persistence5impls25reminder_persistence_impl5tests5setup00Bf_
FNDA:3,_RNCNvNtNtNtNtNtCsi6y5LRNeeCE_8adapters6shared11persistence5impls25reminder_persistence_impl5tests16create_test_user0Bd_
FNDA:6,_RNCNvNtNtNtNtNtCsi6y5LRNeeCE_8adapters6shared11persistence5impls25reminder_persistence_impl5tests5setup0Bd_
FNDA:1,_RNCNvNtNtNtNtNtCsi6y5LRNeeCE_8adapters6shared11persistence5impls25reminder_persistence_impl5testss_20test_delete_reminder0Bd_
FNDA:1,_RNCNvNtNtNtNtNtCsi6y5LRNeeCE_8adapters6shared11persistence5impls25reminder_persistence_impl5testss_20test_update_reminder0Bd_
FNDA:1,_RNCNvNtNtNtNtNtCsi6y5LRNeeCE_8adapters6shared11persistence5impls25reminder_persistence_impl5testss_26test_save_and_get_reminder0Bd_
FNDA:1,_RNCNvNtNtNtNtNtCsi6y5LRNeeCE_8adapters6shared11persistence5impls25reminder_persistence_impl5testss_27test_find_by_task_ids_empty0Bd_
FNDA:1,_RNCNvNtNtNtNtNtCsi6y5LRNeeCE_8adapters6shared11persistence5impls25reminder_persistence_impl5testss_27test_get_reminder_not_found0Bd_
FNDA:1,_RNCNvNtNtNtNtNtCsi6y5LRNeeCE_8adapters6shared11persistence5impls25reminder_persistence_impl5testss_30test_find_by_task_ids_no_match0Bd_
FNDA:0,_RNCNCNCNCNvXNtNtNtNtCsi6y5LRNeeCE_8adapters6shared11persistence5impls25reminder_persistence_implNtBe_19PostgresPersistenceNtNtNtNtCs9ngygJYhGyL_11application6shared6traits20reminder_persistence19ReminderPersistence16find_by_task_ids0000Bi_
FNDA:0,_RNCNCNCNvXNtNtNtNtCsi6y5LRNeeCE_8adapters6shared11persistence5impls25reminder_persistence_implNtBc_19PostgresPersistenceNtNtNtNtCs9ngygJYhGyL_11application6shared6traits20reminder_persistence19ReminderPersistence12get_reminder000Bg_
FNDA:0,_RNCNCNCNvXNtNtNtNtCsi6y5LRNeeCE_8adapters6shared11persistence5impls25reminder_persistence_implNtBc_19PostgresPersistenceNtNtNtNtCs9ngygJYhGyL_11application6shared6traits20reminder_persistence19ReminderPersistence12get_reminder00s0_0Bg_
FNDA:0,_RNCNCNCNvXNtNtNtNtCsi6y5LRNeeCE_8adapters6shared11persistence5impls25reminder_persistence_implNtBc_19PostgresPersistenceNtNtNtNtCs9ngygJYhGyL_11application6shared6traits20reminder_persistence19ReminderPersistence12get_reminder00s1_0Bg_
FNDA:3,_RNCNCNCNvXNtNtNtNtCsi6y5LRNeeCE_8adapters6shared11persistence5impls25reminder_persistence_implNtBc_19PostgresPersistenceNtNtNtNtCs9ngygJYhGyL_11application6shared6traits20reminder_persistence19ReminderPersistence12get_reminder00s2_0Bg_
FNDA:5,_RNCNCNCNvXNtNtNtNtCsi6y5LRNeeCE_8adapters6shared11persistence5impls25reminder_persistence_implNtBc_19PostgresPersistenceNtNtNtNtCs9ngygJYhGyL_11application6shared6traits20reminder_persistence19ReminderPersistence12get_reminder00s_0Bg_
FNDA:3,_RNCNCNCNvXNtNtNtNtCsi6y5LRNeeCE_8adapters6shared11persistence5impls25reminder_persistence_implNtBc_19PostgresPersistenceNtNtNtNtCs9ngygJYhGyL_11application6shared6traits20reminder_persistence19ReminderPersistence13save_reminder000Bg_
FNDA:0,_RNCNCNCNvXNtNtNtNtCsi6y5LRNeeCE_8adapters6shared11persistence5impls25reminder_persistence_implNtBc_19PostgresPersistenceNtNtNtNtCs9ngygJYhGyL_11application6shared6traits20reminder_persistence19ReminderPersistence15delete_reminder000Bg_
FNDA:0,_RNCNCNCNvXNtNtNtNtCsi6y5LRNeeCE_8adapters6shared11persistence5impls25reminder_persistence_implNtBc_19PostgresPersistenceNtNtNtNtCs9ngygJYhGyL_11application6shared6traits20reminder_persistence19ReminderPersistence15delete_reminder00s0_0Bg_
FNDA:0,_RNCNCNCNvXNtNtNtNtCsi6y5LRNeeCE_8adapters6shared11persistence5impls25reminder_persistence_implNtBc_19PostgresPersistenceNtNtNtNtCs9ngygJYhGyL_11application6shared6traits20reminder_persistence19ReminderPersistence15delete_reminder00s1_0Bg_
FNDA:1,_RNCNCNCNvXNtNtNtNtCsi6y5LRNeeCE_8adapters6shared11persistence5impls25reminder_persistence_implNtBc_19PostgresPersistenceNtNtNtNtCs9ngygJYhGyL_11application6shared6traits20reminder_persistence19ReminderPersistence15delete_reminder00s_0Bg_
FNDA:1,_RNCNCNCNvXNtNtNtNtCsi6y5LRNeeCE_8adapters6shared11persistence5impls25reminder_persistence_implNtBc_19PostgresPersistenceNtNtNtNtCs9ngygJYhGyL_11application6shared6traits20reminder_persistence19ReminderPersistence15update_reminder000Bg_
FNDA:1,_RNCNCNCNvXNtNtNtNtCsi6y5LRNeeCE_8adapters6shared11persistence5impls25reminder_persistence_implNtBc_19PostgresPersistenceNtNtNtNtCs9ngygJYhGyL_11application6shared6traits20reminder_persistence19ReminderPersistence16find_by_task_ids000Bg_
FNDA:0,_RNCNCNCNCNvXNtNtNtNtCsjp8PXOiLT2t_8adapters6shared11persistence5impls25reminder_persistence_implNtBe_19PostgresPersistenceNtNtNtNtCs9ngygJYhGyL_11application6shared6traits20reminder_persistence19ReminderPersistence16find_by_task_ids0000Bi_
FNDA:0,_RNCNCNCNCNvXNtNtNtNtCsjp8PXOiLT2t_8adapters6shared11persistence5impls25reminder_persistence_implNtBe_19PostgresPersistenceNtNtNtNtCs9ngygJYhGyL_11application6shared6traits20reminder_persistence19ReminderPersistence20find_pending_by_user0000Bi_
FNDA:0,_RNCNCNCNvXNtNtNtNtCsjp8PXOiLT2t_8adapters6shared11persistence5impls25reminder_persistence_implNtBc_19PostgresPersistenceNtNtNtNtCs9ngygJYhGyL_11application6shared6traits20reminder_persistence19ReminderPersistence12get_reminder000Bg_
FNDA:0,_RNCNCNCNvXNtNtNtNtCsjp8PXOiLT2t_8adapters6shared11persistence5impls25reminder_persistence_implNtBc_19PostgresPersistenceNtNtNtNtCs9ngygJYhGyL_11application6shared6traits20reminder_persistence19ReminderPersistence12get_reminder00s0_0Bg_
FNDA:0,_RNCNCNCNvXNtNtNtNtCsjp8PXOiLT2t_8adapters6shared11persistence5impls25reminder_persistence_implNtBc_19PostgresPersistenceNtNtNtNtCs9ngygJYhGyL_11application6shared6traits20reminder_persistence19ReminderPersistence12get_reminder00s1_0Bg_
FNDA:0,_RNCNCNCNvXNtNtNtNtCsjp8PXOiLT2t_8adapters6shared11persistence5impls25reminder_persistence_implNtBc_19PostgresPersistenceNtNtNtNtCs9ngygJYhGyL_11application6shared6traits20reminder_persistence19ReminderPersistence12get_reminder00s2_0Bg_
FNDA:0,_RNCNCNCNvXNtNtNtNtCsjp8PXOiLT2t_8adapters6shared11persistence5impls25reminder_persistence_implNtBc_19PostgresPersistenceNtNtNtNtCs9ngygJYhGyL_11application6shared6traits20reminder_persistence19ReminderPersistence12get_reminder00s_0Bg_
FNDA:0,_RNCNCNCNvXNtNtNtNtCsjp8PXOiLT2t_8adapters6shared11persistence5impls25reminder_persistence_implNtBc_19PostgresPersistenceNtNtNtNtCs9ngygJYhGyL_11application6shared6traits20reminder_persistence19ReminderPersistence13save_reminder000Bg_
FNDA:0,_RNCNCNCNvXNtNtNtNtCsjp8PXOiLT2t_8adapters6shared11persistence5impls25reminder_persistence_implNtBc_19PostgresPersistenceNtNtNtNtCs9ngygJYhGyL_11application6shared6traits20reminder_persistence19ReminderPersistence15delete_reminder000Bg_
FNDA:0,_RNCNCNCNvXNtNtNtNtCsjp8PXOiLT2t_8adapters6shared11persistence5impls25reminder_persistence_implNtBc_19PostgresPersistenceNtNtNtNtCs9ngygJYhGyL_11application6shared6traits20reminder_persistence19ReminderPersistence15delete_reminder00s0_0Bg_
FNDA:0,_RNCNCNCNvXNtNtNtNtCsjp8PXOiLT2t_8adapters6shared11persistence5impls25reminder_persistence_implNtBc_19PostgresPersistenceNtNtNtNtCs9ngygJYhGyL_11application6shared6traits20reminder_persistence19ReminderPersistence15delete_reminder00s1_0Bg_
FNDA:0,_RNCNCNCNvXNtNtNtNtCsjp8PXOiLT2t_8adapters6shared11persistence5impls25reminder_persistence_implNtBc_19PostgresPersistenceNtNtNtNtCs9ngygJYhGyL_11application6shared6traits20reminder_persistence19ReminderPersistence15delete_reminder00s_0Bg_
FNDA:0,_RNCNCNCNvXNtNtNtNtCsjp8PXOiLT2t_8adapters6shared11persistence5impls25reminder_persistence_implNtBc_19PostgresPersistenceNtNtNtNtCs9ngygJYhGyL_11application6shared6traits20reminder_persistence19ReminderPersistence15update_reminder000Bg_
FNDA:5,_RNCNCNCNvXNtNtNtNtCsjp8PXOiLT2t_8adapters6shared11persistence5impls25reminder_persistence_implNtBc_19PostgresPersistenceNtNtNtNtCs9ngygJYhGyL_11application6shared6traits20reminder_persistence19ReminderPersistence16find_by_task_ids000Bg_
FNDA:0,_RNCNCNCNvXNtNtNtNtCsjp8PXOiLT2t_8adapters6shared11persistence5impls25reminder_persistence_implNtBc_19PostgresPersistenceNtNtNtNtCs9ngygJYhGyL_11application6shared6traits20reminder_persistence19ReminderPersistence20find_pending_by_user000Bg_
FNF:34
FNH:25
DA:24,3
DA:25,3
DA:26,3
DA:27,3
DA:28,3
DA:29,3
DA:39,0
DA:42,5
DA:43,5
DA:44,5
DA:45,5
DA:46,5
DA:47,5
DA:48,5
DA:50,0
DA:51,0
DA:53,3
DA:62,0
DA:64,1
DA:65,1
DA:66,1
DA:67,1
DA:69,0
DA:70,0
DA:81,6
DA:82,6
DA:83,6
DA:84,6
DA:85,6
DA:86,6
DA:88,6
DA:89,6
DA:91,6
DA:92,6
DA:100,0
DA:101,0
DA:102,0
DA:103,0
DA:104,0
DA:105,0
DA:106,0
DA:108,0
DA:109,0
DA:123,1
DA:124,1
DA:125,1
DA:126,1
DA:127,1
DA:128,1
DA:149,6
DA:150,6
DA:151,6
DA:152,6
DA:153,6
DA:154,6
DA:155,6
DA:156,6
DA:158,6
DA:160,6
DA:161,6
DA:162,6
DA:163,6
DA:165,6
DA:166,6
DA:168,3
DA:169,3
DA:170,3
DA:171,3
DA:172,3
DA:173,3
DA:174,3
DA:175,3
DA:176,3
DA:177,3
DA:178,3
DA:179,3
DA:180,3
DA:181,3
DA:182,3
DA:183,3
DA:184,3
DA:185,3
DA:186,3
DA:188,3
DA:189,3
DA:190,3
DA:191,3
DA:192,3
DA:193,3
DA:194,3
DA:196,3
DA:199,1
DA:200,1
DA:201,1
DA:202,1
DA:203,1
DA:205,1
DA:207,1
DA:208,1
DA:209,1
DA:210,1
DA:213,1
DA:214,1
DA:215,1
DA:216,1
DA:217,1
DA:220,1
DA:221,1
DA:222,1
DA:223,1
DA:224,1
DA:226,1
DA:227,1
DA:229,1
DA:230,1
DA:231,1
DA:234,1
DA:235,1
DA:236,1
DA:237,1
DA:238,1
DA:240,1
DA:242,1
DA:243,1
DA:244,1
DA:245,1
DA:246,1
DA:247,1
DA:248,1
DA:250,1
DA:252,1
DA:253,1
DA:254,1
DA:255,1
DA:256,1
DA:257,1
DA:258,1
DA:259,1
DA:262,1
DA:263,1
DA:264,1
DA:265,1
DA:266,1
DA:269,1
DA:270,1
DA:271,1
DA:272,1
DA:273,1
DA:274,1
DA:275,1
DA:276,1
BRF:0
BRH:0
LF:169
LH:152
end_of_record
SF:/Users/francescopiogaglione/projects/personal/focus_flow_workspace/focus_flow_cloud/backend/crates/adapters/src/shared/persistence/impls/reminder_worker_port_impl.rs
FN:56,_RNCNCNCNvXs1_NtNtNtNtCsi6y5LRNeeCE_8adapters6shared11persistence5impls25reminder_worker_port_implNtBb_22ReminderWorkerPortImplNtNtNtNtCs9ngygJYhGyL_11application6shared6traits20reminder_worker_port18ReminderWorkerPort8schedule000Bj_
FN:32,_RNvMNtNtNtNtCsi6y5LRNeeCE_8adapters6shared11persistence5impls25reminder_worker_port_implNtB2_22ReminderWorkerPortImpl3new
FN:82,_RNvNtNtNtNtCsi6y5LRNeeCE_8adapters6shared11persistence5impls25reminder_worker_port_impl21spawn_reminder_worker
FN:102,_RNCNCNCNvNtNtNtNtCsi6y5LRNeeCE_8adapters6shared11persistence5impls25reminder_worker_port_impl21spawn_reminder_worker000Bf_
FN:87,_RNCNvNtNtNtNtCsi6y5LRNeeCE_8adapters6shared11persistence5impls25reminder_worker_port_impl21spawn_reminder_worker0Bb_
FN:32,_RNvMNtNtNtNtCsjp8PXOiLT2t_8adapters6shared11persistence5impls25reminder_worker_port_implNtB2_22ReminderWorkerPortImpl3new
FN:82,_RNvNtNtNtNtCsjp8PXOiLT2t_8adapters6shared11persistence5impls25reminder_worker_port_impl21spawn_reminder_worker
FN:102,_RNCNCNCNvNtNtNtNtCsjp8PXOiLT2t_8adapters6shared11persistence5impls25reminder_worker_port_impl21spawn_reminder_worker000Bf_
FN:56,_RNCNCNCNvXs1_NtNtNtNtCsjp8PXOiLT2t_8adapters6shared11persistence5impls25reminder_worker_port_implNtBb_22ReminderWorkerPortImplNtNtNtNtCs9ngygJYhGyL_11application6shared6traits20reminder_worker_port18ReminderWorkerPort8schedule000Bj_
FN:87,_RNCNvNtNtNtNtCsjp8PXOiLT2t_8adapters6shared11persistence5impls25reminder_worker_port_impl21spawn_reminder_worker0Bb_
FNDA:0,_RNCNCNCNvXs1_NtNtNtNtCsi6y5LRNeeCE_8adapters6shared11persistence5impls25reminder_worker_port_implNtBb_22ReminderWorkerPortImplNtNtNtNtCs9ngygJYhGyL_11application6shared6traits20reminder_worker_port18ReminderWorkerPort8schedule000Bj_
FNDA:0,_RNvMNtNtNtNtCsi6y5LRNeeCE_8adapters6shared11persistence5impls25reminder_worker_port_implNtB2_22ReminderWorkerPortImpl3new
FNDA:0,_RNvNtNtNtNtCsi6y5LRNeeCE_8adapters6shared11persistence5impls25reminder_worker_port_impl21spawn_reminder_worker
FNDA:0,_RNCNCNCNvNtNtNtNtCsi6y5LRNeeCE_8adapters6shared11persistence5impls25reminder_worker_port_impl21spawn_reminder_worker000Bf_
FNDA:0,_RNCNvNtNtNtNtCsi6y5LRNeeCE_8adapters6shared11persistence5impls25reminder_worker_port_impl21spawn_reminder_worker0Bb_
FNDA:26,_RNvMNtNtNtNtCsjp8PXOiLT2t_8adapters6shared11persistence5impls25reminder_worker_port_implNtB2_22ReminderWorkerPortImpl3new
FNDA:26,_RNvNtNtNtNtCsjp8PXOiLT2t_8adapters6shared11persistence5impls25reminder_worker_port_impl21spawn_reminder_worker
FNDA:26,_RNCNCNCNvNtNtNtNtCsjp8PXOiLT2t_8adapters6shared11persistence5impls25reminder_worker_port_impl21spawn_reminder_worker000Bf_
FNDA:0,_RNCNCNCNvXs1_NtNtNtNtCsjp8PXOiLT2t_8adapters6shared11persistence5impls25reminder_worker_port_implNtBb_22ReminderWorkerPortImplNtNtNtNtCs9ngygJYhGyL_11application6shared6traits20reminder_worker_port18ReminderWorkerPort8schedule000Bj_
FNDA:26,_RNCNvNtNtNtNtCsjp8PXOiLT2t_8adapters6shared11persistence5impls25reminder_worker_port_impl21spawn_reminder_worker0Bb_
FNF:5
FNH:4
DA:32,26
DA:33,26
DA:34,26
DA:35,26
DA:36,26
DA:37,26
DA:56,0
DA:57,0
DA:58,0
DA:59,0
DA:82,26
DA:83,26
DA:84,26
DA:85,26
DA:86,26
DA:87,26
DA:102,26
DA:103,26
DA:104,26
DA:105,0
DA:106,0
DA:108,0
DA:109,26
BRF:0
BRH:0
LF:24
LH:17
end_of_record
SF:/Users/francescopiogaglione/projects/personal/focus_flow_workspace/focus_flow_cloud/backend/crates/adapters/src/shared/persistence/mod.rs
FN:27,_RINvMNtNtCsi6y5LRNeeCE_8adapters6shared11persistenceNtB3_19PostgresPersistence16with_transactionNCNCNCNvXNtNtB3_5impls25reminder_persistence_implBO_NtNtNtNtCs9ngygJYhGyL_11application6shared6traits20reminder_persistence19ReminderPersistence13save_reminder000NtCsraHdjdGY3T_4uuid4UuidEB7_
FN:27,_RINvMNtNtCsi6y5LRNeeCE_8adapters6shared11persistenceNtB3_19PostgresPersistence16with_transactionNCNCNCNvXNtNtB3_5impls25reminder_persistence_implBO_NtNtNtNtCs9ngygJYhGyL_11application6shared6traits20reminder_persistence19ReminderPersistence15update_reminder000uEB7_
FN:27,_RINvMNtNtCsi6y5LRNeeCE_8adapters6shared11persistenceNtB3_19PostgresPersistence16with_transactionNCNCNCNvXNtNtB3_5impls25reminder_persistence_implBO_NtNtNtNtCs9ngygJYhGyL_11application6shared6traits20reminder_persistence19ReminderPersistence16find_by_task_ids000INtNtCs1OjIl8oxbrv_5alloc3vec3VecNtNtNtNtCseoQRfqfIfnI_6domain5tasks8entities8reminder8ReminderEEB7_
FN:27,_RINvMNtNtCsi6y5LRNeeCE_8adapters6shared11persistenceNtB3_19PostgresPersistence16with_transactionNCNCNCNvXNtNtB3_5impls34push_subscription_persistence_implBO_NtNtNtNtCs9ngygJYhGyL_11application6shared6traits29push_subscription_persistence27PushSubscriptionPersistence6delete000uEB7_
FN:27,_RINvMNtNtCsi6y5LRNeeCE_8adapters6shared11persistenceNtB3_19PostgresPersistence16with_transactionNCNCNCNvXNtNtB3_5impls34push_subscription_persistence_implBO_NtNtNtNtCs9ngygJYhGyL_11application6shared6traits29push_subscription_persistence27PushSubscriptionPersistence6upsert000NtCsraHdjdGY3T_4uuid4UuidEB7_
FN:31,_RNCINvMNtNtCsi6y5LRNeeCE_8adapters6shared11persistenceNtB5_19PostgresPersistence16with_transactionNCNCNCNvXNtNtB5_5impls25reminder_persistence_implBQ_NtNtNtNtCs9ngygJYhGyL_11application6shared6traits20reminder_persistence19ReminderPersistence13save_reminder000NtCsraHdjdGY3T_4uuid4UuidE0B9_
FN:31,_RNCINvMNtNtCsi6y5LRNeeCE_8adapters6shared11persistenceNtB5_19PostgresPersistence16with_transactionNCNCNCNvXNtNtB5_5impls25reminder_persistence_implBQ_NtNtNtNtCs9ngygJYhGyL_11application6shared6traits20reminder_persistence19ReminderPersistence15update_reminder000uE0B9_
FN:31,_RNCINvMNtNtCsi6y5LRNeeCE_8adapters6shared11persistenceNtB5_19PostgresPersistence16with_transactionNCNCNCNvXNtNtB5_5impls25reminder_persistence_implBQ_NtNtNtNtCs9ngygJYhGyL_11application6shared6traits20reminder_persistence19ReminderPersistence16find_by_task_ids000INtNtCs1OjIl8oxbrv_5alloc3vec3VecNtNtNtNtCseoQRfqfIfnI_6domain5tasks8entities8reminder8ReminderEE0B9_
FN:31,_RNCINvMNtNtCsi6y5LRNeeCE_8adapters6shared11persistenceNtB5_19PostgresPersistence16with_transactionNCNCNCNvXNtNtB5_5impls34push_subscription_persistence_implBQ_NtNtNtNtCs9ngygJYhGyL_11application6shared6traits29push_subscription_persistence27PushSubscriptionPersistence6delete000uE0B9_
FN:31,_RNCINvMNtNtCsi6y5LRNeeCE_8adapters6shared11persistenceNtB5_19PostgresPersistence16with_transactionNCNCNCNvXNtNtB5_5impls34push_subscription_persistence_implBQ_NtNtNtNtCs9ngygJYhGyL_11application6shared6traits29push_subscription_persistence27PushSubscriptionPersistence6upsert000NtCsraHdjdGY3T_4uuid4UuidE0B9_
FN:36,_RNCNCINvMNtNtCsi6y5LRNeeCE_8adapters6shared11persistenceNtB7_19PostgresPersistence16with_transactionNCNCNCNvXNtNtB7_5impls25reminder_persistence_implBS_NtNtNtNtCs9ngygJYhGyL_11application6shared6traits20reminder_persistence19ReminderPersistence13save_reminder000NtCsraHdjdGY3T_4uuid4UuidE00Bb_
FN:40,_RNCNCINvMNtNtCsi6y5LRNeeCE_8adapters6shared11persistenceNtB7_19PostgresPersistence16with_transactionNCNCNCNvXNtNtB7_5impls25reminder_persistence_implBS_NtNtNtNtCs9ngygJYhGyL_11application6shared6traits20reminder_persistence19ReminderPersistence13save_reminder000NtCsraHdjdGY3T_4uuid4UuidE0s0_0Bb_
FN:41,_RNCNCINvMNtNtCsi6y5LRNeeCE_8adapters6shared11persistenceNtB7_19PostgresPersistence16with_transactionNCNCNCNvXNtNtB7_5impls25reminder_persistence_implBS_NtNtNtNtCs9ngygJYhGyL_11application6shared6traits20reminder_persistence19ReminderPersistence13save_reminder000NtCsraHdjdGY3T_4uuid4UuidE0s1_0Bb_
FN:38,_RNCNCINvMNtNtCsi6y5LRNeeCE_8adapters6shared11persistenceNtB7_19PostgresPersistence16with_transactionNCNCNCNvXNtNtB7_5impls25reminder_persistence_implBS_NtNtNtNtCs9ngygJYhGyL_11application6shared6traits20reminder_persistence19ReminderPersistence13save_reminder000NtCsraHdjdGY3T_4uuid4UuidE0s_0Bb_
FN:36,_RNCNCINvMNtNtCsi6y5LRNeeCE_8adapters6shared11persistenceNtB7_19PostgresPersistence16with_transactionNCNCNCNvXNtNtB7_5impls25reminder_persistence_implBS_NtNtNtNtCs9ngygJYhGyL_11application6shared6traits20reminder_persistence19ReminderPersistence15update_reminder000uE00Bb_
FN:40,_RNCNCINvMNtNtCsi6y5LRNeeCE_8adapters6shared11persistenceNtB7_19PostgresPersistence16with_transactionNCNCNCNvXNtNtB7_5impls25reminder_persistence_implBS_NtNtNtNtCs9ngygJYhGyL_11application6shared6traits20reminder_persistence19ReminderPersistence15update_reminder000uE0s0_0Bb_
FN:41,_RNCNCINvMNtNtCsi6y5LRNeeCE_8adapters6shared11persistenceNtB7_19PostgresPersistence16with_transactionNCNCNCNvXNtNtB7_5impls25reminder_persistence_implBS_NtNtNtNtCs9ngygJYhGyL_11application6shared6traits20reminder_persistence19ReminderPersistence15update_reminder000uE0s1_0Bb_
FN:38,_RNCNCINvMNtNtCsi6y5LRNeeCE_8adapters6shared11persistenceNtB7_19PostgresPersistence16with_transactionNCNCNCNvXNtNtB7_5impls25reminder_persistence_implBS_NtNtNtNtCs9ngygJYhGyL_11application6shared6traits20reminder_persistence19ReminderPersistence15update_reminder000uE0s_0Bb_
FN:36,_RNCNCINvMNtNtCsi6y5LRNeeCE_8adapters6shared11persistenceNtB7_19PostgresPersistence16with_transactionNCNCNCNvXNtNtB7_5impls25reminder_persistence_implBS_NtNtNtNtCs9ngygJYhGyL_11application6shared6traits20reminder_persistence19ReminderPersistence16find_by_task_ids000INtNtCs1OjIl8oxbrv_5alloc3vec3VecNtNtNtNtCseoQRfqfIfnI_6domain5tasks8entities8reminder8ReminderEE00Bb_
FN:40,_RNCNCINvMNtNtCsi6y5LRNeeCE_8adapters6shared11persistenceNtB7_19PostgresPersistence16with_transactionNCNCNCNvXNtNtB7_5impls25reminder_persistence_implBS_NtNtNtNtCs9ngygJYhGyL_11application6shared6traits20reminder_persistence19ReminderPersistence16find_by_task_ids000INtNtCs1OjIl8oxbrv_5alloc3vec3VecNtNtNtNtCseoQRfqfIfnI_6domain5tasks8entities8reminder8ReminderEE0s0_0Bb_
FN:41,_RNCNCINvMNtNtCsi6y5LRNeeCE_8adapters6shared11persistenceNtB7_19PostgresPersistence16with_transactionNCNCNCNvXNtNtB7_5impls25reminder_persistence_implBS_NtNtNtNtCs9ngygJYhGyL_11application6shared6traits20reminder_persistence19ReminderPersistence16find_by_task_ids000INtNtCs1OjIl8oxbrv_5alloc3vec3VecNtNtNtNtCseoQRfqfIfnI_6domain5tasks8entities8reminder8ReminderEE0s1_0Bb_
FN:38,_RNCNCINvMNtNtCsi6y5LRNeeCE_8adapters6shared11persistenceNtB7_19PostgresPersistence16with_transactionNCNCNCNvXNtNtB7_5impls25reminder_persistence_implBS_NtNtNtNtCs9ngygJYhGyL_11application6shared6traits20reminder_persistence19ReminderPersistence16find_by_task_ids000INtNtCs1OjIl8oxbrv_5alloc3vec3VecNtNtNtNtCseoQRfqfIfnI_6domain5tasks8entities8reminder8ReminderEE0s_0Bb_
FN:36,_RNCNCINvMNtNtCsi6y5LRNeeCE_8adapters6shared11persistenceNtB7_19PostgresPersistence16with_transactionNCNCNCNvXNtNtB7_5impls34push_subscription_persistence_implBS_NtNtNtNtCs9ngygJYhGyL_11application6shared6traits29push_subscription_persistence27PushSubscriptionPersistence6delete000uE00Bb_
FN:40,_RNCNCINvMNtNtCsi6y5LRNeeCE_8adapters6shared11persistenceNtB7_19PostgresPersistence16with_transactionNCNCNCNvXNtNtB7_5impls34push_subscription_persistence_implBS_NtNtNtNtCs9ngygJYhGyL_11application6shared6traits29push_subscription_persistence27PushSubscriptionPersistence6delete000uE0s0_0Bb_
FN:41,_RNCNCINvMNtNtCsi6y5LRNeeCE_8adapters6shared11persistenceNtB7_19PostgresPersistence16with_transactionNCNCNCNvXNtNtB7_5impls34push_subscription_persistence_implBS_NtNtNtNtCs9ngygJYhGyL_11application6shared6traits29push_subscription_persistence27PushSubscriptionPersistence6delete000uE0s1_0Bb_
FN:38,_RNCNCINvMNtNtCsi6y5LRNeeCE_8adapters6shared11persistenceNtB7_19PostgresPersistence16with_transactionNCNCNCNvXNtNtB7_5impls34push_subscription_persistence_implBS_NtNtNtNtCs9ngygJYhGyL_11application6shared6traits29push_subscription_persistence27PushSubscriptionPersistence6delete000uE0s_0Bb_
FN:36,_RNCNCINvMNtNtCsi6y5LRNeeCE_8adapters6shared11persistenceNtB7_19PostgresPersistence16with_transactionNCNCNCNvXNtNtB7_5impls34push_subscription_persistence_implBS_NtNtNtNtCs9ngygJYhGyL_11application6shared6traits29push_subscription_persistence27PushSubscriptionPersistence6upsert000NtCsraHdjdGY3T_4uuid4UuidE00Bb_
FN:40,_RNCNCINvMNtNtCsi6y5LRNeeCE_8adapters6shared11persistenceNtB7_19PostgresPersistence16with_transactionNCNCNCNvXNtNtB7_5impls34push_subscription_persistence_implBS_NtNtNtNtCs9ngygJYhGyL_11application6shared6traits29push_subscription_persistence27PushSubscriptionPersistence6upsert000NtCsraHdjdGY3T_4uuid4UuidE0s0_0Bb_
FN:41,_RNCNCINvMNtNtCsi6y5LRNeeCE_8adapters6shared11persistenceNtB7_19PostgresPersistence16with_transactionNCNCNCNvXNtNtB7_5impls34push_subscription_persistence_implBS_NtNtNtNtCs9ngygJYhGyL_11application6shared6traits29push_subscription_persistence27PushSubscriptionPersistence6upsert000NtCsraHdjdGY3T_4uuid4UuidE0s1_0Bb_
FN:38,_RNCNCINvMNtNtCsi6y5LRNeeCE_8adapters6shared11persistenceNtB7_19PostgresPersistence16with_transactionNCNCNCNvXNtNtB7_5impls34push_subscription_persistence_implBS_NtNtNtNtCs9ngygJYhGyL_11application6shared6traits29push_subscription_persistence27PushSubscriptionPersistence6upsert000NtCsraHdjdGY3T_4uuid4UuidE0s_0Bb_
FN:20,_RNvMNtNtCsi6y5LRNeeCE_8adapters6shared11persistenceNtB2_19PostgresPersistence3new
FN:27,_RINvMNtNtCsjp8PXOiLT2t_8adapters6shared11persistenceNtB3_19PostgresPersistence16with_transactionNCNCNCNvXNtNtB3_5impls25reminder_persistence_implBO_NtNtNtNtCs9ngygJYhGyL_11application6shared6traits20reminder_persistence19ReminderPersistence13save_reminder000NtCsraHdjdGY3T_4uuid4UuidEB7_
FN:27,_RINvMNtNtCsjp8PXOiLT2t_8adapters6shared11persistenceNtB3_19PostgresPersistence16with_transactionNCNCNCNvXNtNtB3_5impls25reminder_persistence_implBO_NtNtNtNtCs9ngygJYhGyL_11application6shared6traits20reminder_persistence19ReminderPersistence15update_reminder000uEB7_
FN:27,_RINvMNtNtCsjp8PXOiLT2t_8adapters6shared11persistenceNtB3_19PostgresPersistence16with_transactionNCNCNCNvXNtNtB3_5impls25reminder_persistence_implBO_NtNtNtNtCs9ngygJYhGyL_11application6shared6traits20reminder_persistence19ReminderPersistence16find_by_task_ids000INtNtCs1OjIl8oxbrv_5alloc3vec3VecNtNtNtNtCseoQRfqfIfnI_6domain5tasks8entities8reminder8ReminderEEB7_
FN:27,_RINvMNtNtCsjp8PXOiLT2t_8adapters6shared11persistenceNtB3_19PostgresPersistence16with_transactionNCNCNCNvXNtNtB3_5impls25reminder_persistence_implBO_NtNtNtNtCs9ngygJYhGyL_11application6shared6traits20reminder_persistence19ReminderPersistence20find_pending_by_user000INtNtCs1OjIl8oxbrv_5alloc3vec3VecNtNtNtNtCseoQRfqfIfnI_6domain5tasks8entities8reminder8ReminderEEB7_
FN:27,_RINvMNtNtCsjp8PXOiLT2t_8adapters6shared11persistenceNtB3_19PostgresPersistence16with_transactionNCNCNCNvXNtNtB3_5impls34push_subscription_persistence_implBO_NtNtNtNtCs9ngygJYhGyL_11application6shared6traits29push_subscription_persistence27PushSubscriptionPersistence6delete000uEB7_
FN:27,_RINvMNtNtCsjp8PXOiLT2t_8adapters6shared11persistenceNtB3_19PostgresPersistence16with_transactionNCNCNCNvXNtNtB3_5impls34push_subscription_persistence_implBO_NtNtNtNtCs9ngygJYhGyL_11application6shared6traits29push_subscription_persistence27PushSubscriptionPersistence6upsert000NtCsraHdjdGY3T_4uuid4UuidEB7_
FN:27,_RINvMNtNtCsjp8PXOiLT2t_8adapters6shared11persistenceNtB3_19PostgresPersistence16with_transactionNCNCNCNvXNtNtNtNtB7_10flashcards11persistence5impls26flashcard_persistence_implBO_NtNtNtNtCs9ngygJYhGyL_11application10flashcards6traits21flashcard_persistence20FlashcardPersistence13create_folder000NtNtNtNtCseoQRfqfIfnI_6domain6shared8entities15folder_metadata14FolderMetadataEB7_
FN:27,_RINvMNtNtCsjp8PXOiLT2t_8adapters6shared11persistenceNtB3_19PostgresPersistence16with_transactionNCNCNCNvXNtNtNtNtB7_10flashcards11persistence5impls26flashcard_persistence_implBO_NtNtNtNtCs9ngygJYhGyL_11application10flashcards6traits21flashcard_persistence20FlashcardPersistence13delete_folder000jEB7_
FN:27,_RINvMNtNtCsjp8PXOiLT2t_8adapters6shared11persistenceNtB3_19PostgresPersistence16with_transactionNCNCNCNvXNtNtNtNtB7_10flashcards11persistence5impls26flashcard_persistence_implBO_NtNtNtNtCs9ngygJYhGyL_11application10flashcards6traits21flashcard_persistence20FlashcardPersistence14find_by_folder000INtNtCs1OjIl8oxbrv_5alloc3vec3VecNtNtNtB1J_9db_models12db_flashcard11DbFlashcardEEB7_
FN:27,_RINvMNtNtCsjp8PXOiLT2t_8adapters6shared11persistenceNtB3_19PostgresPersistence16with_transactionNCNCNCNvXNtNtNtNtB7_10flashcards11persistence5impls26flashcard_persistence_implBO_NtNtNtNtCs9ngygJYhGyL_11application10flashcards6traits21flashcard_persistence20FlashcardPersistence14save_to_folder000uEB7_
FN:27,_RINvMNtNtCsjp8PXOiLT2t_8adapters6shared11persistenceNtB3_19PostgresPersistence16with_transactionNCNCNCNvXNtNtNtNtB7_10flashcards11persistence5impls26flashcard_persistence_implBO_NtNtNtNtCs9ngygJYhGyL_11application10flashcards6traits21flashcard_persistence20FlashcardPersistence16find_due_by_user000INtNtCs1OjIl8oxbrv_5alloc3vec3VecNtNtNtB1J_9db_models12db_flashcard11DbFlashcardEEB7_
FN:27,_RINvMNtNtCsjp8PXOiLT2t_8adapters6shared11persistenceNtB3_19PostgresPersistence16with_transactionNCNCNCNvXNtNtNtNtB7_10flashcards11persistence5impls26flashcard_persistence_implBO_NtNtNtNtCs9ngygJYhGyL_11application10flashcards6traits21flashcard_persistence20FlashcardPersistence18remove_from_folder000jEB7_
FN:27,_RINvMNtNtCsjp8PXOiLT2t_8adapters6shared11persistenceNtB3_19PostgresPersistence16with_transactionNCNCNCNvXNtNtNtNtB7_10flashcards11persistence5impls26flashcard_persistence_implBO_NtNtNtNtCs9ngygJYhGyL_11application10flashcards6traits21flashcard_persistence20FlashcardPersistence25find_subfolders_by_parent000INtNtCs1OjIl8oxbrv_5alloc3vec3VecNtNtNtB1J_9db_models9db_folder8DbFolderEEB7_
FN:27,_RINvMNtNtCsjp8PXOiLT2t_8adapters6shared11persistenceNtB3_19PostgresPersistence16with_transactionNCNCNCNvXNtNtNtNtB7_10flashcards11persistence5impls26flashcard_persistence_implBO_NtNtNtNtCs9ngygJYhGyL_11application10flashcards6traits21flashcard_persistence20FlashcardPersistence27create_root_folder_for_user000uEB7_
FN:27,_RINvMNtNtCsjp8PXOiLT2t_8adapters6shared11persistenceNtB3_19PostgresPersistence16with_transactionNCNCNCNvXNtNtNtNtB7_10flashcards11persistence5impls26flashcard_persistence_implBO_NtNtNtNtCs9ngygJYhGyL_11application10flashcards6traits21flashcard_persistence20FlashcardPersistence4save000uEB7_
FN:27,_RINvMNtNtCsjp8PXOiLT2t_8adapters6shared11persistenceNtB3_19PostgresPersistence16with_transactionNCNCNCNvXNtNtNtNtB7_10flashcards11persistence5impls26flashcard_persistence_implBO_NtNtNtNtCs9ngygJYhGyL_11application10flashcards6traits21flashcard_persistence20FlashcardPersistence6delete000jEB7_
FN:27,_RINvMNtNtCsjp8PXOiLT2t_8adapters6shared11persistenceNtB3_19PostgresPersistence16with_transactionNCNCNCNvXNtNtNtNtB7_10flashcards11persistence5impls26flashcard_persistence_implBO_NtNtNtNtCs9ngygJYhGyL_11application10flashcards6traits21flashcard_persistence20FlashcardPersistence6update000jEB7_
FN:27,_RINvMNtNtCsjp8PXOiLT2t_8adapters6shared11persistenceNtB3_19PostgresPersistence16with_transactionNCNCNCNvXNtNtNtNtB7_5tasks11persistence5impls21task_persistence_implBO_NtNtNtNtCs9ngygJYhGyL_11application5tasks6traits16task_persistence15TaskPersistence11create_task00s_0NtCsraHdjdGY3T_4uuid4UuidEB7_
FN:27,_RINvMNtNtCsjp8PXOiLT2t_8adapters6shared11persistenceNtB3_19PostgresPersistence16with_transactionNCNCNCNvXNtNtNtNtB7_5tasks11persistence5impls21task_persistence_implBO_NtNtNtNtCs9ngygJYhGyL_11application5tasks6traits16task_persistence15TaskPersistence11update_task00s_0NtNtNtNtCseoQRfqfIfnI_6domain5tasks8entities4task4TaskEB7_
FN:27,_RINvMNtNtCsjp8PXOiLT2t_8adapters6shared11persistenceNtB3_19PostgresPersistence16with_transactionNCNCNCNvXNtNtNtNtB7_5tasks11persistence5impls21task_persistence_implBO_NtNtNtNtCs9ngygJYhGyL_11application5tasks6traits16task_persistence15TaskPersistence8find_all000INtNtCs1OjIl8oxbrv_5alloc3vec3VecNtNtNtNtCseoQRfqfIfnI_6domain5tasks8entities4task4TaskEEB7_
FN:31,_RNCINvMNtNtCsjp8PXOiLT2t_8adapters6shared11persistenceNtB5_19PostgresPersistence16with_transactionNCNCNCNvXNtNtB5_5impls25reminder_persistence_implBQ_NtNtNtNtCs9ngygJYhGyL_11application6shared6traits20reminder_persistence19ReminderPersistence13save_reminder000NtCsraHdjdGY3T_4uuid4UuidE0B9_
FN:31,_RNCINvMNtNtCsjp8PXOiLT2t_8adapters6shared11persistenceNtB5_19PostgresPersistence16with_transactionNCNCNCNvXNtNtB5_5impls25reminder_persistence_implBQ_NtNtNtNtCs9ngygJYhGyL_11application6shared6traits20reminder_persistence19ReminderPersistence15update_reminder000uE0B9_
FN:31,_RNCINvMNtNtCsjp8PXOiLT2t_8adapters6shared11persistenceNtB5_19PostgresPersistence16with_transactionNCNCNCNvXNtNtB5_5impls25reminder_persistence_implBQ_NtNtNtNtCs9ngygJYhGyL_11application6shared6traits20reminder_persistence19ReminderPersistence16find_by_task_ids000INtNtCs1OjIl8oxbrv_5alloc3vec3VecNtNtNtNtCseoQRfqfIfnI_6domain5tasks8entities8reminder8ReminderEE0B9_
FN:31,_RNCINvMNtNtCsjp8PXOiLT2t_8adapters6shared11persistenceNtB5_19PostgresPersistence16with_transactionNCNCNCNvXNtNtB5_5impls25reminder_persistence_implBQ_NtNtNtNtCs9ngygJYhGyL_11application6shared6traits20reminder_persistence19ReminderPersistence20find_pending_by_user000INtNtCs1OjIl8oxbrv_5alloc3vec3VecNtNtNtNtCseoQRfqfIfnI_6domain5tasks8entities8reminder8ReminderEE0B9_
FN:31,_RNCINvMNtNtCsjp8PXOiLT2t_8adapters6shared11persistenceNtB5_19PostgresPersistence16with_transactionNCNCNCNvXNtNtB5_5impls34push_subscription_persistence_implBQ_NtNtNtNtCs9ngygJYhGyL_11application6shared6traits29push_subscription_persistence27PushSubscriptionPersistence6delete000uE0B9_
FN:31,_RNCINvMNtNtCsjp8PXOiLT2t_8adapters6shared11persistenceNtB5_19PostgresPersistence16with_transactionNCNCNCNvXNtNtB5_5impls34push_subscription_persistence_implBQ_NtNtNtNtCs9ngygJYhGyL_11application6shared6traits29push_subscription_persistence27PushSubscriptionPersistence6upsert000NtCsraHdjdGY3T_4uuid4UuidE0B9_
FN:31,_RNCINvMNtNtCsjp8PXOiLT2t_8adapters6shared11persistenceNtB5_19PostgresPersistence16with_transactionNCNCNCNvXNtNtNtNtB9_10flashcards11persistence5impls26flashcard_persistence_implBQ_NtNtNtNtCs9ngygJYhGyL_11application10flashcards6traits21flashcard_persistence20FlashcardPersistence13create_folder000NtNtNtNtCseoQRfqfIfnI_6domain6shared8entities15folder_metadata14FolderMetadataE0B9_
FN:31,_RNCINvMNtNtCsjp8PXOiLT2t_8adapters6shared11persistenceNtB5_19PostgresPersistence16with_transactionNCNCNCNvXNtNtNtNtB9_10flashcards11persistence5impls26flashcard_persistence_implBQ_NtNtNtNtCs9ngygJYhGyL_11application10flashcards6traits21flashcard_persistence20FlashcardPersistence13delete_folder000jE0B9_
FN:31,_RNCINvMNtNtCsjp8PXOiLT2t_8adapters6shared11persistenceNtB5_19PostgresPersistence16with_transactionNCNCNCNvXNtNtNtNtB9_10flashcards11persistence5impls26flashcard_persistence_implBQ_NtNtNtNtCs9ngygJYhGyL_11application10flashcards6traits21flashcard_persistence20FlashcardPersistence14find_by_folder000INtNtCs1OjIl8oxbrv_5alloc3vec3VecNtNtNtB1L_9db_models12db_flashcard11DbFlashcardEE0B9_
FN:31,_RNCINvMNtNtCsjp8PXOiLT2t_8adapters6shared11persistenceNtB5_19PostgresPersistence16with_transactionNCNCNCNvXNtNtNtNtB9_10flashcards11persistence5impls26flashcard_persistence_implBQ_NtNtNtNtCs9ngygJYhGyL_11application10flashcards6traits21flashcard_persistence20FlashcardPersistence14save_to_folder000uE0B9_
FN:31,_RNCINvMNtNtCsjp8PXOiLT2t_8adapters6shared11persistenceNtB5_19PostgresPersistence16with_transactionNCNCNCNvXNtNtNtNtB9_10flashcards11persistence5impls26flashcard_persistence_implBQ_NtNtNtNtCs9ngygJYhGyL_11application10flashcards6traits21flashcard_persistence20FlashcardPersistence16find_due_by_user000INtNtCs1OjIl8oxbrv_5alloc3vec3VecNtNtNtB1L_9db_models12db_flashcard11DbFlashcardEE0B9_
FN:31,_RNCINvMNtNtCsjp8PXOiLT2t_8adapters6shared11persistenceNtB5_19PostgresPersistence16with_transactionNCNCNCNvXNtNtNtNtB9_10flashcards11persistence5impls26flashcard_persistence_implBQ_NtNtNtNtCs9ngygJYhGyL_11application10flashcards6traits21flashcard_persistence20FlashcardPersistence18remove_from_folder000jE0B9_
FN:31,_RNCINvMNtNtCsjp8PXOiLT2t_8adapters6shared11persistenceNtB5_19PostgresPersistence16with_transactionNCNCNCNvXNtNtNtNtB9_10flashcards11persistence5impls26flashcard_persistence_implBQ_NtNtNtNtCs9ngygJYhGyL_11application10flashcards6traits21flashcard_persistence20FlashcardPersistence25find_subfolders_by_parent000INtNtCs1OjIl8oxbrv_5alloc3vec3VecNtNtNtB1L_9db_models9db_folder8DbFolderEE0B9_
FN:31,_RNCINvMNtNtCsjp8PXOiLT2t_8adapters6shared11persistenceNtB5_19PostgresPersistence16with_transactionNCNCNCNvXNtNtNtNtB9_10flashcards11persistence5impls26flashcard_persistence_implBQ_NtNtNtNtCs9ngygJYhGyL_11application10flashcards6traits21flashcard_persistence20FlashcardPersistence27create_root_folder_for_user000uE0B9_
FN:31,_RNCINvMNtNtCsjp8PXOiLT2t_8adapters6shared11persistenceNtB5_19PostgresPersistence16with_transactionNCNCNCNvXNtNtNtNtB9_10flashcards11persistence5impls26flashcard_persistence_implBQ_NtNtNtNtCs9ngygJYhGyL_11application10flashcards6traits21flashcard_persistence20FlashcardPersistence4save000uE0B9_
FN:31,_RNCINvMNtNtCsjp8PXOiLT2t_8adapters6shared11persistenceNtB5_19PostgresPersistence16with_transactionNCNCNCNvXNtNtNtNtB9_10flashcards11persistence5impls26flashcard_persistence_implBQ_NtNtNtNtCs9ngygJYhGyL_11application10flashcards6traits21flashcard_persistence20FlashcardPersistence6delete000jE0B9_
FN:31,_RNCINvMNtNtCsjp8PXOiLT2t_8adapters6shared11persistenceNtB5_19PostgresPersistence16with_transactionNCNCNCNvXNtNtNtNtB9_10flashcards11persistence5impls26flashcard_persistence_implBQ_NtNtNtNtCs9ngygJYhGyL_11application10flashcards6traits21flashcard_persistence20FlashcardPersistence6update000jE0B9_
FN:31,_RNCINvMNtNtCsjp8PXOiLT2t_8adapters6shared11persistenceNtB5_19PostgresPersistence16with_transactionNCNCNCNvXNtNtNtNtB9_5tasks11persistence5impls21task_persistence_implBQ_NtNtNtNtCs9ngygJYhGyL_11application5tasks6traits16task_persistence15TaskPersistence11create_task00s_0NtCsraHdjdGY3T_4uuid4UuidE0B9_
FN:31,_RNCINvMNtNtCsjp8PXOiLT2t_8adapters6shared11persistenceNtB5_19PostgresPersistence16with_transactionNCNCNCNvXNtNtNtNtB9_5tasks11persistence5impls21task_persistence_implBQ_NtNtNtNtCs9ngygJYhGyL_11application5tasks6traits16task_persistence15TaskPersistence11update_task00s_0NtNtNtNtCseoQRfqfIfnI_6domain5tasks8entities4task4TaskE0B9_
FN:31,_RNCINvMNtNtCsjp8PXOiLT2t_8adapters6shared11persistenceNtB5_19PostgresPersistence16with_transactionNCNCNCNvXNtNtNtNtB9_5tasks11persistence5impls21task_persistence_implBQ_NtNtNtNtCs9ngygJYhGyL_11application5tasks6traits16task_persistence15TaskPersistence8find_all000INtNtCs1OjIl8oxbrv_5alloc3vec3VecNtNtNtNtCseoQRfqfIfnI_6domain5tasks8entities4task4TaskEE0B9_
FN:36,_RNCNCINvMNtNtCsjp8PXOiLT2t_8adapters6shared11persistenceNtB7_19PostgresPersistence16with_transactionNCNCNCNvXNtNtB7_5impls25reminder_persistence_implBS_NtNtNtNtCs9ngygJYhGyL_11application6shared6traits20reminder_persistence19ReminderPersistence13save_reminder000NtCsraHdjdGY3T_4uuid4UuidE00Bb_
FN:40,_RNCNCINvMNtNtCsjp8PXOiLT2t_8adapters6shared11persistenceNtB7_19PostgresPersistence16with_transactionNCNCNCNvXNtNtB7_5impls25reminder_persistence_implBS_NtNtNtNtCs9ngygJYhGyL_11application6shared6traits20reminder_persistence19ReminderPersistence13save_reminder000NtCsraHdjdGY3T_4uuid4UuidE0s0_0Bb_
FN:41,_RNCNCINvMNtNtCsjp8PXOiLT2t_8adapters6shared11persistenceNtB7_19PostgresPersistence16with_transactionNCNCNCNvXNtNtB7_5impls25reminder_persistence_implBS_NtNtNtNtCs9ngygJYhGyL_11application6shared6traits20reminder_persistence19ReminderPersistence13save_reminder000NtCsraHdjdGY3T_4uuid4UuidE0s1_0Bb_
FN:38,_RNCNCINvMNtNtCsjp8PXOiLT2t_8adapters6shared11persistenceNtB7_19PostgresPersistence16with_transactionNCNCNCNvXNtNtB7_5impls25reminder_persistence_implBS_NtNtNtNtCs9ngygJYhGyL_11application6shared6traits20reminder_persistence19ReminderPersistence13save_reminder000NtCsraHdjdGY3T_4uuid4UuidE0s_0Bb_
FN:36,_RNCNCINvMNtNtCsjp8PXOiLT2t_8adapters6shared11persistenceNtB7_19PostgresPersistence16with_transactionNCNCNCNvXNtNtB7_5impls25reminder_persistence_implBS_NtNtNtNtCs9ngygJYhGyL_11application6shared6traits20reminder_persistence19ReminderPersistence15update_reminder000uE00Bb_
FN:40,_RNCNCINvMNtNtCsjp8PXOiLT2t_8adapters6shared11persistenceNtB7_19PostgresPersistence16with_transactionNCNCNCNvXNtNtB7_5impls25reminder_persistence_implBS_NtNtNtNtCs9ngygJYhGyL_11application6shared6traits20reminder_persistence19ReminderPersistence15update_reminder000uE0s0_0Bb_
FN:41,_RNCNCINvMNtNtCsjp8PXOiLT2t_8adapters6shared11persistenceNtB7_19PostgresPersistence16with_transactionNCNCNCNvXNtNtB7_5impls25reminder_persistence_implBS_NtNtNtNtCs9ngygJYhGyL_11application6shared6traits20reminder_persistence19ReminderPersistence15update_reminder000uE0s1_0Bb_
FN:38,_RNCNCINvMNtNtCsjp8PXOiLT2t_8adapters6shared11persistenceNtB7_19PostgresPersistence16with_transactionNCNCNCNvXNtNtB7_5impls25reminder_persistence_implBS_NtNtNtNtCs9ngygJYhGyL_11application6shared6traits20reminder_persistence19ReminderPersistence15update_reminder000uE0s_0Bb_
FN:36,_RNCNCINvMNtNtCsjp8PXOiLT2t_8adapters6shared11persistenceNtB7_19PostgresPersistence16with_transactionNCNCNCNvXNtNtB7_5impls25reminder_persistence_implBS_NtNtNtNtCs9ngygJYhGyL_11application6shared6traits20reminder_persistence19ReminderPersistence16find_by_task_ids000INtNtCs1OjIl8oxbrv_5alloc3vec3VecNtNtNtNtCseoQRfqfIfnI_6domain5tasks8entities8reminder8ReminderEE00Bb_
FN:40,_RNCNCINvMNtNtCsjp8PXOiLT2t_8adapters6shared11persistenceNtB7_19PostgresPersistence16with_transactionNCNCNCNvXNtNtB7_5impls25reminder_persistence_implBS_NtNtNtNtCs9ngygJYhGyL_11application6shared6traits20reminder_persistence19ReminderPersistence16find_by_task_ids000INtNtCs1OjIl8oxbrv_5alloc3vec3VecNtNtNtNtCseoQRfqfIfnI_6domain5tasks8entities8reminder8ReminderEE0s0_0Bb_
FN:41,_RNCNCINvMNtNtCsjp8PXOiLT2t_8adapters6shared11persistenceNtB7_19PostgresPersistence16with_transactionNCNCNCNvXNtNtB7_5impls25reminder_persistence_implBS_NtNtNtNtCs9ngygJYhGyL_11application6shared6traits20reminder_persistence19ReminderPersistence16find_by_task_ids000INtNtCs1OjIl8oxbrv_5alloc3vec3VecNtNtNtNtCseoQRfqfIfnI_6domain5tasks8entities8reminder8ReminderEE0s1_0Bb_
FN:38,_RNCNCINvMNtNtCsjp8PXOiLT2t_8adapters6shared11persistenceNtB7_19PostgresPersistence16with_transactionNCNCNCNvXNtNtB7_5impls25reminder_persistence_implBS_NtNtNtNtCs9ngygJYhGyL_11application6shared6traits20reminder_persistence19ReminderPersistence16find_by_task_ids000INtNtCs1OjIl8oxbrv_5alloc3vec3VecNtNtNtNtCseoQRfqfIfnI_6domain5tasks8entities8reminder8ReminderEE0s_0Bb_
FN:36,_RNCNCINvMNtNtCsjp8PXOiLT2t_8adapters6shared11persistenceNtB7_19PostgresPersistence16with_transactionNCNCNCNvXNtNtB7_5impls25reminder_persistence_implBS_NtNtNtNtCs9ngygJYhGyL_11application6shared6traits20reminder_persistence19ReminderPersistence20find_pending_by_user000INtNtCs1OjIl8oxbrv_5alloc3vec3VecNtNtNtNtCseoQRfqfIfnI_6domain5tasks8entities8reminder8ReminderEE00Bb_
FN:40,_RNCNCINvMNtNtCsjp8PXOiLT2t_8adapters6shared11persistenceNtB7_19PostgresPersistence16with_transactionNCNCNCNvXNtNtB7_5impls25reminder_persistence_implBS_NtNtNtNtCs9ngygJYhGyL_11application6shared6traits20reminder_persistence19ReminderPersistence20find_pending_by_user000INtNtCs1OjIl8oxbrv_5alloc3vec3VecNtNtNtNtCseoQRfqfIfnI_6domain5tasks8entities8reminder8ReminderEE0s0_0Bb_
FN:41,_RNCNCINvMNtNtCsjp8PXOiLT2t_8adapters6shared11persistenceNtB7_19PostgresPersistence16with_transactionNCNCNCNvXNtNtB7_5impls25reminder_persistence_implBS_NtNtNtNtCs9ngygJYhGyL_11application6shared6traits20reminder_persistence19ReminderPersistence20find_pending_by_user000INtNtCs1OjIl8oxbrv_5alloc3vec3VecNtNtNtNtCseoQRfqfIfnI_6domain5tasks8entities8reminder8ReminderEE0s1_0Bb_
FN:38,_RNCNCINvMNtNtCsjp8PXOiLT2t_8adapters6shared11persistenceNtB7_19PostgresPersistence16with_transactionNCNCNCNvXNtNtB7_5impls25reminder_persistence_implBS_NtNtNtNtCs9ngygJYhGyL_11application6shared6traits20reminder_persistence19ReminderPersistence20find_pending_by_user000INtNtCs1OjIl8oxbrv_5alloc3vec3VecNtNtNtNtCseoQRfqfIfnI_6domain5tasks8entities8reminder8ReminderEE0s_0Bb_
FN:36,_RNCNCINvMNtNtCsjp8PXOiLT2t_8adapters6shared11persistenceNtB7_19PostgresPersistence16with_transactionNCNCNCNvXNtNtB7_5impls34push_subscription_persistence_implBS_NtNtNtNtCs9ngygJYhGyL_11application6shared6traits29push_subscription_persistence27PushSubscriptionPersistence6delete000uE00Bb_
FN:40,_RNCNCINvMNtNtCsjp8PXOiLT2t_8adapters6shared11persistenceNtB7_19PostgresPersistence16with_transactionNCNCNCNvXNtNtB7_5impls34push_subscription_persistence_implBS_NtNtNtNtCs9ngygJYhGyL_11application6shared6traits29push_subscription_persistence27PushSubscriptionPersistence6delete000uE0s0_0Bb_
FN:41,_RNCNCINvMNtNtCsjp8PXOiLT2t_8adapters6shared11persistenceNtB7_19PostgresPersistence16with_transactionNCNCNCNvXNtNtB7_5impls34push_subscription_persistence_implBS_NtNtNtNtCs9ngygJYhGyL_11application6shared6traits29push_subscription_persistence27PushSubscriptionPersistence6delete000uE0s1_0Bb_
FN:38,_RNCNCINvMNtNtCsjp8PXOiLT2t_8adapters6shared11persistenceNtB7_19PostgresPersistence16with_transactionNCNCNCNvXNtNtB7_5impls34push_subscription_persistence_implBS_NtNtNtNtCs9ngygJYhGyL_11application6shared6traits29push_subscription_persistence27PushSubscriptionPersistence6delete000uE0s_0Bb_
FN:36,_RNCNCINvMNtNtCsjp8PXOiLT2t_8adapters6shared11persistenceNtB7_19PostgresPersistence16with_transactionNCNCNCNvXNtNtB7_5impls34push_subscription_persistence_implBS_NtNtNtNtCs9ngygJYhGyL_11application6shared6traits29push_subscription_persistence27PushSubscriptionPersistence6upsert000NtCsraHdjdGY3T_4uuid4UuidE00Bb_
FN:40,_RNCNCINvMNtNtCsjp8PXOiLT2t_8adapters6shared11persistenceNtB7_19PostgresPersistence16with_transactionNCNCNCNvXNtNtB7_5impls34push_subscription_persistence_implBS_NtNtNtNtCs9ngygJYhGyL_11application6shared6traits29push_subscription_persistence27PushSubscriptionPersistence6upsert000NtCsraHdjdGY3T_4uuid4UuidE0s0_0Bb_
FN:41,_RNCNCINvMNtNtCsjp8PXOiLT2t_8adapters6shared11persistenceNtB7_19PostgresPersistence16with_transactionNCNCNCNvXNtNtB7_5impls34push_subscription_persistence_implBS_NtNtNtNtCs9ngygJYhGyL_11application6shared6traits29push_subscription_persistence27PushSubscriptionPersistence6upsert000NtCsraHdjdGY3T_4uuid4UuidE0s1_0Bb_
FN:38,_RNCNCINvMNtNtCsjp8PXOiLT2t_8adapters6shared11persistenceNtB7_19PostgresPersistence16with_transactionNCNCNCNvXNtNtB7_5impls34push_subscription_persistence_implBS_NtNtNtNtCs9ngygJYhGyL_11application6shared6traits29push_subscription_persistence27PushSubscriptionPersistence6upsert000NtCsraHdjdGY3T_4uuid4UuidE0s_0Bb_
FN:36,_RNCNCINvMNtNtCsjp8PXOiLT2t_8adapters6shared11persistenceNtB7_19PostgresPersistence16with_transactionNCNCNCNvXNtNtNtNtBb_10flashcards11persistence5impls26flashcard_persistence_implBS_NtNtNtNtCs9ngygJYhGyL_11application10flashcards6traits21flashcard_persistence20FlashcardPersistence13create_folder000NtNtNtNtCseoQRfqfIfnI_6domain6shared8entities15folder_metadata14FolderMetadataE00Bb_
FN:40,_RNCNCINvMNtNtCsjp8PXOiLT2t_8adapters6shared11persistenceNtB7_19PostgresPersistence16with_transactionNCNCNCNvXNtNtNtNtBb_10flashcards11persistence5impls26flashcard_persistence_implBS_NtNtNtNtCs9ngygJYhGyL_11application10flashcards6traits21flashcard_persistence20FlashcardPersistence13create_folder000NtNtNtNtCseoQRfqfIfnI_6domain6shared8entities15folder_metadata14FolderMetadataE0s0_0Bb_
FN:41,_RNCNCINvMNtNtCsjp8PXOiLT2t_8adapters6shared11persistenceNtB7_19PostgresPersistence16with_transactionNCNCNCNvXNtNtNtNtBb_10flashcards11persistence5impls26flashcard_persistence_implBS_NtNtNtNtCs9ngygJYhGyL_11application10flashcards6traits21flashcard_persistence20FlashcardPersistence13create_folder000NtNtNtNtCseoQRfqfIfnI_6domain6shared8entities15folder_metadata14FolderMetadataE0s1_0Bb_
FN:38,_RNCNCINvMNtNtCsjp8PXOiLT2t_8adapters6shared11persistenceNtB7_19PostgresPersistence16with_transactionNCNCNCNvXNtNtNtNtBb_10flashcards11persistence5impls26flashcard_persistence_implBS_NtNtNtNtCs9ngygJYhGyL_11application10flashcards6traits21flashcard_persistence20FlashcardPersistence13create_folder000NtNtNtNtCseoQRfqfIfnI_6domain6shared8entities15folder_metadata14FolderMetadataE0s_0Bb_
FN:36,_RNCNCINvMNtNtCsjp8PXOiLT2t_8adapters6shared11persistenceNtB7_19PostgresPersistence16with_transactionNCNCNCNvXNtNtNtNtBb_10flashcards11persistence5impls26flashcard_persistence_implBS_NtNtNtNtCs9ngygJYhGyL_11application10flashcards6traits21flashcard_persistence20FlashcardPersistence13delete_folder000jE00Bb_
FN:40,_RNCNCINvMNtNtCsjp8PXOiLT2t_8adapters6shared11persistenceNtB7_19PostgresPersistence16with_transactionNCNCNCNvXNtNtNtNtBb_10flashcards11persistence5impls26flashcard_persistence_implBS_NtNtNtNtCs9ngygJYhGyL_11application10flashcards6traits21flashcard_persistence20FlashcardPersistence13delete_folder000jE0s0_0Bb_
FN:41,_RNCNCINvMNtNtCsjp8PXOiLT2t_8adapters6shared11persistenceNtB7_19PostgresPersistence16with_transactionNCNCNCNvXNtNtNtNtBb_10flashcards11persistence5impls26flashcard_persistence_implBS_NtNtNtNtCs9ngygJYhGyL_11application10flashcards6traits21flashcard_persistence20FlashcardPersistence13delete_folder000jE0s1_0Bb_
FN:38,_RNCNCINvMNtNtCsjp8PXOiLT2t_8adapters6shared11persistenceNtB7_19PostgresPersistence16with_transactionNCNCNCNvXNtNtNtNtBb_10flashcards11persistence5impls26flashcard_persistence_implBS_NtNtNtNtCs9ngygJYhGyL_11application10flashcards6traits21flashcard_persistence20FlashcardPersistence13delete_folder000jE0s_0Bb_
FN:36,_RNCNCINvMNtNtCsjp8PXOiLT2t_8adapters6shared11persistenceNtB7_19PostgresPersistence16with_transactionNCNCNCNvXNtNtNtNtBb_10flashcards11persistence5impls26flashcard_persistence_implBS_NtNtNtNtCs9ngygJYhGyL_11application10flashcards6traits21flashcard_persistence20FlashcardPersistence14find_by_folder000INtNtCs1OjIl8oxbrv_5alloc3vec3VecNtNtNtB1N_9db_models12db_flashcard11DbFlashcardEE00Bb_
FN:40,_RNCNCINvMNtNtCsjp8PXOiLT2t_8adapters6shared11persistenceNtB7_19PostgresPersistence16with_transactionNCNCNCNvXNtNtNtNtBb_10flashcards11persistence5impls26flashcard_persistence_implBS_NtNtNtNtCs9ngygJYhGyL_11application10flashcards6traits21flashcard_persistence20FlashcardPersistence14find_by_folder000INtNtCs1OjIl8oxbrv_5alloc3vec3VecNtNtNtB1N_9db_models12db_flashcard11DbFlashcardEE0s0_0Bb_
FN:41,_RNCNCINvMNtNtCsjp8PXOiLT2t_8adapters6shared11persistenceNtB7_19PostgresPersistence16with_transactionNCNCNCNvXNtNtNtNtBb_10flashcards11persistence5impls26flashcard_persistence_implBS_NtNtNtNtCs9ngygJYhGyL_11application10flashcards6traits21flashcard_persistence20FlashcardPersistence14find_by_folder000INtNtCs1OjIl8oxbrv_5alloc3vec3VecNtNtNtB1N_9db_models12db_flashcard11DbFlashcardEE0s1_0Bb_
FN:38,_RNCNCINvMNtNtCsjp8PXOiLT2t_8adapters6shared11persistenceNtB7_19PostgresPersistence16with_transactionNCNCNCNvXNtNtNtNtBb_10flashcards11persistence5impls26flashcard_persistence_implBS_NtNtNtNtCs9ngygJYhGyL_11application10flashcards6traits21flashcard_persistence20FlashcardPersistence14find_by_folder000INtNtCs1OjIl8oxbrv_5alloc3vec3VecNtNtNtB1N_9db_models12db_flashcard11DbFlashcardEE0s_0Bb_
FN:36,_RNCNCINvMNtNtCsjp8PXOiLT2t_8adapters6shared11persistenceNtB7_19PostgresPersistence16with_transactionNCNCNCNvXNtNtNtNtBb_10flashcards11persistence5impls26flashcard_persistence_implBS_NtNtNtNtCs9ngygJYhGyL_11application10flashcards6traits21flashcard_persistence20FlashcardPersistence14save_to_folder000uE00Bb_
FN:40,_RNCNCINvMNtNtCsjp8PXOiLT2t_8adapters6shared11persistenceNtB7_19PostgresPersistence16with_transactionNCNCNCNvXNtNtNtNtBb_10flashcards11persistence5impls26flashcard_persistence_implBS_NtNtNtNtCs9ngygJYhGyL_11application10flashcards6traits21flashcard_persistence20FlashcardPersistence14save_to_folder000uE0s0_0Bb_
FN:41,_RNCNCINvMNtNtCsjp8PXOiLT2t_8adapters6shared11persistenceNtB7_19PostgresPersistence16with_transactionNCNCNCNvXNtNtNtNtBb_10flashcards11persistence5impls26flashcard_persistence_implBS_NtNtNtNtCs9ngygJYhGyL_11application10flashcards6traits21flashcard_persistence20FlashcardPersistence14save_to_folder000uE0s1_0Bb_
FN:38,_RNCNCINvMNtNtCsjp8PXOiLT2t_8adapters6shared11persistenceNtB7_19PostgresPersistence16with_transactionNCNCNCNvXNtNtNtNtBb_10flashcards11persistence5impls26flashcard_persistence_implBS_NtNtNtNtCs9ngygJYhGyL_11application10flashcards6traits21flashcard_persistence20FlashcardPersistence14save_to_folder000uE0s_0Bb_
FN:36,_RNCNCINvMNtNtCsjp8PXOiLT2t_8adapters6shared11persistenceNtB7_19PostgresPersistence16with_transactionNCNCNCNvXNtNtNtNtBb_10flashcards11persistence5impls26flashcard_persistence_implBS_NtNtNtNtCs9ngygJYhGyL_11application10flashcards6traits21flashcard_persistence20FlashcardPersistence16find_due_by_user000INtNtCs1OjIl8oxbrv_5alloc3vec3VecNtNtNtB1N_9db_models12db_flashcard11DbFlashcardEE00Bb_
FN:40,_RNCNCINvMNtNtCsjp8PXOiLT2t_8adapters6shared11persistenceNtB7_19PostgresPersistence16with_transactionNCNCNCNvXNtNtNtNtBb_10flashcards11persistence5impls26flashcard_persistence_implBS_NtNtNtNtCs9ngygJYhGyL_11application10flashcards6traits21flashcard_persistence20FlashcardPersistence16find_due_by_user000INtNtCs1OjIl8oxbrv_5alloc3vec3VecNtNtNtB1N_9db_models12db_flashcard11DbFlashcardEE0s0_0Bb_
FN:41,_RNCNCINvMNtNtCsjp8PXOiLT2t_8adapters6shared11persistenceNtB7_19PostgresPersistence16with_transactionNCNCNCNvXNtNtNtNtBb_10flashcards11persistence5impls26flashcard_persistence_implBS_NtNtNtNtCs9ngygJYhGyL_11application10flashcards6traits21flashcard_persistence20FlashcardPersistence16find_due_by_user000INtNtCs1OjIl8oxbrv_5alloc3vec3VecNtNtNtB1N_9db_models12db_flashcard11DbFlashcardEE0s1_0Bb_
FN:38,_RNCNCINvMNtNtCsjp8PXOiLT2t_8adapters6shared11persistenceNtB7_19PostgresPersistence16with_transactionNCNCNCNvXNtNtNtNtBb_10flashcards11persistence5impls26flashcard_persistence_implBS_NtNtNtNtCs9ngygJYhGyL_11application10flashcards6traits21flashcard_persistence20FlashcardPersistence16find_due_by_user000INtNtCs1OjIl8oxbrv_5alloc3vec3VecNtNtNtB1N_9db_models12db_flashcard11DbFlashcardEE0s_0Bb_
FN:36,_RNCNCINvMNtNtCsjp8PXOiLT2t_8adapters6shared11persistenceNtB7_19PostgresPersistence16with_transactionNCNCNCNvXNtNtNtNtBb_10flashcards11persistence5impls26flashcard_persistence_implBS_NtNtNtNtCs9ngygJYhGyL_11application10flashcards6traits21flashcard_persistence20FlashcardPersistence18remove_from_folder000jE00Bb_
FN:40,_RNCNCINvMNtNtCsjp8PXOiLT2t_8adapters6shared11persistenceNtB7_19PostgresPersistence16with_transactionNCNCNCNvXNtNtNtNtBb_10flashcards11persistence5impls26flashcard_persistence_implBS_NtNtNtNtCs9ngygJYhGyL_11application10flashcards6traits21flashcard_persistence20FlashcardPersistence18remove_from_folder000jE0s0_0Bb_
FN:41,_RNCNCINvMNtNtCsjp8PXOiLT2t_8adapters6shared11persistenceNtB7_19PostgresPersistence16with_transactionNCNCNCNvXNtNtNtNtBb_10flashcards11persistence5impls26flashcard_persistence_implBS_NtNtNtNtCs9ngygJYhGyL_11application10flashcards6traits21flashcard_persistence20FlashcardPersistence18remove_from_folder000jE0s1_0Bb_
FN:38,_RNCNCINvMNtNtCsjp8PXOiLT2t_8adapters6shared11persistenceNtB7_19PostgresPersistence16with_transactionNCNCNCNvXNtNtNtNtBb_10flashcards11persistence5impls26flashcard_persistence_implBS_NtNtNtNtCs9ngygJYhGyL_11application10flashcards6traits21flashcard_persistence20FlashcardPersistence18remove_from_folder000jE0s_0Bb_
FN:36,_RNCNCINvMNtNtCsjp8PXOiLT2t_8adapters6shared11persistenceNtB7_19PostgresPersistence16with_transactionNCNCNCNvXNtNtNtNtBb_10flashcards11persistence5impls26flashcard_persistence_implBS_NtNtNtNtCs9ngygJYhGyL_11application10flashcards6traits21flashcard_persistence20FlashcardPersistence25find_subfolders_by_parent000INtNtCs1OjIl8oxbrv_5alloc3vec3VecNtNtNtB1N_9db_models9db_folder8DbFolderEE00Bb_
FN:40,_RNCNCINvMNtNtCsjp8PXOiLT2t_8adapters6shared11persistenceNtB7_19PostgresPersistence16with_transactionNCNCNCNvXNtNtNtNtBb_10flashcards11persistence5impls26flashcard_persistence_implBS_NtNtNtNtCs9ngygJYhGyL_11application10flashcards6traits21flashcard_persistence20FlashcardPersistence25find_subfolders_by_parent000INtNtCs1OjIl8oxbrv_5alloc3vec3VecNtNtNtB1N_9db_models9db_folder8DbFolderEE0s0_0Bb_
FN:41,_RNCNCINvMNtNtCsjp8PXOiLT2t_8adapters6shared11persistenceNtB7_19PostgresPersistence16with_transactionNCNCNCNvXNtNtNtNtBb_10flashcards11persistence5impls26flashcard_persistence_implBS_NtNtNtNtCs9ngygJYhGyL_11application10flashcards6traits21flashcard_persistence20FlashcardPersistence25find_subfolders_by_parent000INtNtCs1OjIl8oxbrv_5alloc3vec3VecNtNtNtB1N_9db_models9db_folder8DbFolderEE0s1_0Bb_
FN:38,_RNCNCINvMNtNtCsjp8PXOiLT2t_8adapters6shared11persistenceNtB7_19PostgresPersistence16with_transactionNCNCNCNvXNtNtNtNtBb_10flashcards11persistence5impls26flashcard_persistence_implBS_NtNtNtNtCs9ngygJYhGyL_11application10flashcards6traits21flashcard_persistence20FlashcardPersistence25find_subfolders_by_parent000INtNtCs1OjIl8oxbrv_5alloc3vec3VecNtNtNtB1N_9db_models9db_folder8DbFolderEE0s_0Bb_
FN:36,_RNCNCINvMNtNtCsjp8PXOiLT2t_8adapters6shared11persistenceNtB7_19PostgresPersistence16with_transactionNCNCNCNvXNtNtNtNtBb_10flashcards11persistence5impls26flashcard_persistence_implBS_NtNtNtNtCs9ngygJYhGyL_11application10flashcards6traits21flashcard_persistence20FlashcardPersistence27create_root_folder_for_user000uE00Bb_
FN:40,_RNCNCINvMNtNtCsjp8PXOiLT2t_8adapters6shared11persistenceNtB7_19PostgresPersistence16with_transactionNCNCNCNvXNtNtNtNtBb_10flashcards11persistence5impls26flashcard_persistence_implBS_NtNtNtNtCs9ngygJYhGyL_11application10flashcards6traits21flashcard_persistence20FlashcardPersistence27create_root_folder_for_user000uE0s0_0Bb_
FN:41,_RNCNCINvMNtNtCsjp8PXOiLT2t_8adapters6shared11persistenceNtB7_19PostgresPersistence16with_transactionNCNCNCNvXNtNtNtNtBb_10flashcards11persistence5impls26flashcard_persistence_implBS_NtNtNtNtCs9ngygJYhGyL_11application10flashcards6traits21flashcard_persistence20FlashcardPersistence27create_root_folder_for_user000uE0s1_0Bb_
FN:38,_RNCNCINvMNtNtCsjp8PXOiLT2t_8adapters6shared11persistenceNtB7_19PostgresPersistence16with_transactionNCNCNCNvXNtNtNtNtBb_10flashcards11persistence5impls26flashcard_persistence_implBS_NtNtNtNtCs9ngygJYhGyL_11application10flashcards6traits21flashcard_persistence20FlashcardPersistence27create_root_folder_for_user000uE0s_0Bb_
FN:36,_RNCNCINvMNtNtCsjp8PXOiLT2t_8adapters6shared11persistenceNtB7_19PostgresPersistence16with_transactionNCNCNCNvXNtNtNtNtBb_10flashcards11persistence5impls26flashcard_persistence_implBS_NtNtNtNtCs9ngygJYhGyL_11application10flashcards6traits21flashcard_persistence20FlashcardPersistence4save000uE00Bb_
FN:40,_RNCNCINvMNtNtCsjp8PXOiLT2t_8adapters6shared11persistenceNtB7_19PostgresPersistence16with_transactionNCNCNCNvXNtNtNtNtBb_10flashcards11persistence5impls26flashcard_persistence_implBS_NtNtNtNtCs9ngygJYhGyL_11application10flashcards6traits21flashcard_persistence20FlashcardPersistence4save000uE0s0_0Bb_
FN:41,_RNCNCINvMNtNtCsjp8PXOiLT2t_8adapters6shared11persistenceNtB7_19PostgresPersistence16with_transactionNCNCNCNvXNtNtNtNtBb_10flashcards11persistence5impls26flashcard_persistence_implBS_NtNtNtNtCs9ngygJYhGyL_11application10flashcards6traits21flashcard_persistence20FlashcardPersistence4save000uE0s1_0Bb_
FN:38,_RNCNCINvMNtNtCsjp8PXOiLT2t_8adapters6shared11persistenceNtB7_19PostgresPersistence16with_transactionNCNCNCNvXNtNtNtNtBb_10flashcards11persistence5impls26flashcard_persistence_implBS_NtNtNtNtCs9ngygJYhGyL_11application10flashcards6traits21flashcard_persistence20FlashcardPersistence4save000uE0s_0Bb_
FN:36,_RNCNCINvMNtNtCsjp8PXOiLT2t_8adapters6shared11persistenceNtB7_19PostgresPersistence16with_transactionNCNCNCNvXNtNtNtNtBb_10flashcards11persistence5impls26flashcard_persistence_implBS_NtNtNtNtCs9ngygJYhGyL_11application10flashcards6traits21flashcard_persistence20FlashcardPersistence6delete000jE00Bb_
FN:40,_RNCNCINvMNtNtCsjp8PXOiLT2t_8adapters6shared11persistenceNtB7_19PostgresPersistence16with_transactionNCNCNCNvXNtNtNtNtBb_10flashcards11persistence5impls26flashcard_persistence_implBS_NtNtNtNtCs9ngygJYhGyL_11application10flashcards6traits21flashcard_persistence20FlashcardPersistence6delete000jE0s0_0Bb_
FN:41,_RNCNCINvMNtNtCsjp8PXOiLT2t_8adapters6shared11persistenceNtB7_19PostgresPersistence16with_transactionNCNCNCNvXNtNtNtNtBb_10flashcards11persistence5impls26flashcard_persistence_implBS_NtNtNtNtCs9ngygJYhGyL_11application10flashcards6traits21flashcard_persistence20FlashcardPersistence6delete000jE0s1_0Bb_
FN:38,_RNCNCINvMNtNtCsjp8PXOiLT2t_8adapters6shared11persistenceNtB7_19PostgresPersistence16with_transactionNCNCNCNvXNtNtNtNtBb_10flashcards11persistence5impls26flashcard_persistence_implBS_NtNtNtNtCs9ngygJYhGyL_11application10flashcards6traits21flashcard_persistence20FlashcardPersistence6delete000jE0s_0Bb_
FN:36,_RNCNCINvMNtNtCsjp8PXOiLT2t_8adapters6shared11persistenceNtB7_19PostgresPersistence16with_transactionNCNCNCNvXNtNtNtNtBb_10flashcards11persistence5impls26flashcard_persistence_implBS_NtNtNtNtCs9ngygJYhGyL_11application10flashcards6traits21flashcard_persistence20FlashcardPersistence6update000jE00Bb_
FN:40,_RNCNCINvMNtNtCsjp8PXOiLT2t_8adapters6shared11persistenceNtB7_19PostgresPersistence16with_transactionNCNCNCNvXNtNtNtNtBb_10flashcards11persistence5impls26flashcard_persistence_implBS_NtNtNtNtCs9ngygJYhGyL_11application10flashcards6traits21flashcard_persistence20FlashcardPersistence6update000jE0s0_0Bb_
FN:41,_RNCNCINvMNtNtCsjp8PXOiLT2t_8adapters6shared11persistenceNtB7_19PostgresPersistence16with_transactionNCNCNCNvXNtNtNtNtBb_10flashcards11persistence5impls26flashcard_persistence_implBS_NtNtNtNtCs9ngygJYhGyL_11application10flashcards6traits21flashcard_persistence20FlashcardPersistence6update000jE0s1_0Bb_
FN:38,_RNCNCINvMNtNtCsjp8PXOiLT2t_8adapters6shared11persistenceNtB7_19PostgresPersistence16with_transactionNCNCNCNvXNtNtNtNtBb_10flashcards11persistence5impls26flashcard_persistence_implBS_NtNtNtNtCs9ngygJYhGyL_11application10flashcards6traits21flashcard_persistence20FlashcardPersistence6update000jE0s_0Bb_
FN:36,_RNCNCINvMNtNtCsjp8PXOiLT2t_8adapters6shared11persistenceNtB7_19PostgresPersistence16with_transactionNCNCNCNvXNtNtNtNtBb_5tasks11persistence5impls21task_persistence_implBS_NtNtNtNtCs9ngygJYhGyL_11application5tasks6traits16task_persistence15TaskPersistence11create_task00s_0NtCsraHdjdGY3T_4uuid4UuidE00Bb_
FN:40,_RNCNCINvMNtNtCsjp8PXOiLT2t_8adapters6shared11persistenceNtB7_19PostgresPersistence16with_transactionNCNCNCNvXNtNtNtNtBb_5tasks11persistence5impls21task_persistence_implBS_NtNtNtNtCs9ngygJYhGyL_11application5tasks6traits16task_persistence15TaskPersistence11create_task00s_0NtCsraHdjdGY3T_4uuid4UuidE0s0_0Bb_
FN:41,_RNCNCINvMNtNtCsjp8PXOiLT2t_8adapters6shared11persistenceNtB7_19PostgresPersistence16with_transactionNCNCNCNvXNtNtNtNtBb_5tasks11persistence5impls21task_persistence_implBS_NtNtNtNtCs9ngygJYhGyL_11application5tasks6traits16task_persistence15TaskPersistence11create_task00s_0NtCsraHdjdGY3T_4uuid4UuidE0s1_0Bb_
FN:38,_RNCNCINvMNtNtCsjp8PXOiLT2t_8adapters6shared11persistenceNtB7_19PostgresPersistence16with_transactionNCNCNCNvXNtNtNtNtBb_5tasks11persistence5impls21task_persistence_implBS_NtNtNtNtCs9ngygJYhGyL_11application5tasks6traits16task_persistence15TaskPersistence11create_task00s_0NtCsraHdjdGY3T_4uuid4UuidE0s_0Bb_
FN:36,_RNCNCINvMNtNtCsjp8PXOiLT2t_8adapters6shared11persistenceNtB7_19PostgresPersistence16with_transactionNCNCNCNvXNtNtNtNtBb_5tasks11persistence5impls21task_persistence_implBS_NtNtNtNtCs9ngygJYhGyL_11application5tasks6traits16task_persistence15TaskPersistence11update_task00s_0NtNtNtNtCseoQRfqfIfnI_6domain5tasks8entities4task4TaskE00Bb_
FN:40,_RNCNCINvMNtNtCsjp8PXOiLT2t_8adapters6shared11persistenceNtB7_19PostgresPersistence16with_transactionNCNCNCNvXNtNtNtNtBb_5tasks11persistence5impls21task_persistence_implBS_NtNtNtNtCs9ngygJYhGyL_11application5tasks6traits16task_persistence15TaskPersistence11update_task00s_0NtNtNtNtCseoQRfqfIfnI_6domain5tasks8entities4task4TaskE0s0_0Bb_
FN:41,_RNCNCINvMNtNtCsjp8PXOiLT2t_8adapters6shared11persistenceNtB7_19PostgresPersistence16with_transactionNCNCNCNvXNtNtNtNtBb_5tasks11persistence5impls21task_persistence_implBS_NtNtNtNtCs9ngygJYhGyL_11application5tasks6traits16task_persistence15TaskPersistence11update_task00s_0NtNtNtNtCseoQRfqfIfnI_6domain5tasks8entities4task4TaskE0s1_0Bb_
FN:38,_RNCNCINvMNtNtCsjp8PXOiLT2t_8adapters6shared11persistenceNtB7_19PostgresPersistence16with_transactionNCNCNCNvXNtNtNtNtBb_5tasks11persistence5impls21task_persistence_implBS_NtNtNtNtCs9ngygJYhGyL_11application5tasks6traits16task_persistence15TaskPersistence11update_task00s_0NtNtNtNtCseoQRfqfIfnI_6domain5tasks8entities4task4TaskE0s_0Bb_
FN:36,_RNCNCINvMNtNtCsjp8PXOiLT2t_8adapters6shared11persistenceNtB7_19PostgresPersistence16with_transactionNCNCNCNvXNtNtNtNtBb_5tasks11persistence5impls21task_persistence_implBS_NtNtNtNtCs9ngygJYhGyL_11application5tasks6traits16task_persistence15TaskPersistence8find_all000INtNtCs1OjIl8oxbrv_5alloc3vec3VecNtNtNtNtCseoQRfqfIfnI_6domain5tasks8entities4task4TaskEE00Bb_
FN:40,_RNCNCINvMNtNtCsjp8PXOiLT2t_8adapters6shared11persistenceNtB7_19PostgresPersistence16with_transactionNCNCNCNvXNtNtNtNtBb_5tasks11persistence5impls21task_persistence_implBS_NtNtNtNtCs9ngygJYhGyL_11application5tasks6traits16task_persistence15TaskPersistence8find_all000INtNtCs1OjIl8oxbrv_5alloc3vec3VecNtNtNtNtCseoQRfqfIfnI_6domain5tasks8entities4task4TaskEE0s0_0Bb_
FN:41,_RNCNCINvMNtNtCsjp8PXOiLT2t_8adapters6shared11persistenceNtB7_19PostgresPersistence16with_transactionNCNCNCNvXNtNtNtNtBb_5tasks11persistence5impls21task_persistence_implBS_NtNtNtNtCs9ngygJYhGyL_11application5tasks6traits16task_persistence15TaskPersistence8find_all000INtNtCs1OjIl8oxbrv_5alloc3vec3VecNtNtNtNtCseoQRfqfIfnI_6domain5tasks8entities4task4TaskEE0s1_0Bb_
FN:38,_RNCNCINvMNtNtCsjp8PXOiLT2t_8adapters6shared11persistenceNtB7_19PostgresPersistence16with_transactionNCNCNCNvXNtNtNtNtBb_5tasks11persistence5impls21task_persistence_implBS_NtNtNtNtCs9ngygJYhGyL_11application5tasks6traits16task_persistence15TaskPersistence8find_all000INtNtCs1OjIl8oxbrv_5alloc3vec3VecNtNtNtNtCseoQRfqfIfnI_6domain5tasks8entities4task4TaskEE0s_0Bb_
FN:20,_RNvMNtNtCsjp8PXOiLT2t_8adapters6shared11persistenceNtB2_19PostgresPersistence3new
FNDA:3,_RINvMNtNtCsi6y5LRNeeCE_8adapters6shared11persistenceNtB3_19PostgresPersistence16with_transactionNCNCNCNvXNtNtB3_5impls25reminder_persistence_implBO_NtNtNtNtCs9ngygJYhGyL_11application6shared6traits20reminder_persistence19ReminderPersistence13save_reminder000NtCsraHdjdGY3T_4uuid4UuidEB7_
FNDA:1,_RINvMNtNtCsi6y5LRNeeCE_8adapters6shared11persistenceNtB3_19PostgresPersistence16with_transactionNCNCNCNvXNtNtB3_5impls25reminder_persistence_implBO_NtNtNtNtCs9ngygJYhGyL_11application6shared6traits20reminder_persistence19ReminderPersistence15update_reminder000uEB7_
FNDA:1,_RINvMNtNtCsi6y5LRNeeCE_8adapters6shared11persistenceNtB3_19PostgresPersistence16with_transactionNCNCNCNvXNtNtB3_5impls25reminder_persistence_implBO_NtNtNtNtCs9ngygJYhGyL_11application6shared6traits20reminder_persistence19ReminderPersistence16find_by_task_ids000INtNtCs1OjIl8oxbrv_5alloc3vec3VecNtNtNtNtCseoQRfqfIfnI_6domain5tasks8entities8reminder8ReminderEEB7_
FNDA:2,_RINvMNtNtCsi6y5LRNeeCE_8adapters6shared11persistenceNtB3_19PostgresPersistence16with_transactionNCNCNCNvXNtNtB3_5impls34push_subscription_persistence_implBO_NtNtNtNtCs9ngygJYhGyL_11application6shared6traits29push_subscription_persistence27PushSubscriptionPersistence6delete000uEB7_
FNDA:7,_RINvMNtNtCsi6y5LRNeeCE_8adapters6shared11persistenceNtB3_19PostgresPersistence16with_transactionNCNCNCNvXNtNtB3_5impls34push_subscription_persistence_implBO_NtNtNtNtCs9ngygJYhGyL_11application6shared6traits29push_subscription_persistence27PushSubscriptionPersistence6upsert000NtCsraHdjdGY3T_4uuid4UuidEB7_
FNDA:3,_RNCINvMNtNtCsi6y5LRNeeCE_8adapters6shared11persistenceNtB5_19PostgresPersistence16with_transactionNCNCNCNvXNtNtB5_5impls25reminder_persistence_implBQ_NtNtNtNtCs9ngygJYhGyL_11application6shared6traits20reminder_persistence19ReminderPersistence13save_reminder000NtCsraHdjdGY3T_4uuid4UuidE0B9_
FNDA:1,_RNCINvMNtNtCsi6y5LRNeeCE_8adapters6shared11persistenceNtB5_19PostgresPersistence16with_transactionNCNCNCNvXNtNtB5_5impls25reminder_persistence_implBQ_NtNtNtNtCs9ngygJYhGyL_11application6shared6traits20reminder_persistence19ReminderPersistence15update_reminder000uE0B9_
FNDA:1,_RNCINvMNtNtCsi6y5LRNeeCE_8adapters6shared11persistenceNtB5_19PostgresPersistence16with_transactionNCNCNCNvXNtNtB5_5impls25reminder_persistence_implBQ_NtNtNtNtCs9ngygJYhGyL_11application6shared6traits20reminder_persistence19ReminderPersistence16find_by_task_ids000INtNtCs1OjIl8oxbrv_5alloc3vec3VecNtNtNtNtCseoQRfqfIfnI_6domain5tasks8entities8reminder8ReminderEE0B9_
FNDA:2,_RNCINvMNtNtCsi6y5LRNeeCE_8adapters6shared11persistenceNtB5_19PostgresPersistence16with_transactionNCNCNCNvXNtNtB5_5impls34push_subscription_persistence_implBQ_NtNtNtNtCs9ngygJYhGyL_11application6shared6traits29push_subscription_persistence27PushSubscriptionPersistence6delete000uE0B9_
FNDA:7,_RNCINvMNtNtCsi6y5LRNeeCE_8adapters6shared11persistenceNtB5_19PostgresPersistence16with_transactionNCNCNCNvXNtNtB5_5impls34push_subscription_persistence_implBQ_NtNtNtNtCs9ngygJYhGyL_11application6shared6traits29push_subscription_persistence27PushSubscriptionPersistence6upsert000NtCsraHdjdGY3T_4uuid4UuidE0B9_
FNDA:0,_RNCNCINvMNtNtCsi6y5LRNeeCE_8adapters6shared11persistenceNtB7_19PostgresPersistence16with_transactionNCNCNCNvXNtNtB7_5impls25reminder_persistence_implBS_NtNtNtNtCs9ngygJYhGyL_11application6shared6traits20reminder_persistence19ReminderPersistence13save_reminder000NtCsraHdjdGY3T_4uuid4UuidE00Bb_
FNDA:0,_RNCNCINvMNtNtCsi6y5LRNeeCE_8adapters6shared11persistenceNtB7_19PostgresPersistence16with_transactionNCNCNCNvXNtNtB7_5impls25reminder_persistence_implBS_NtNtNtNtCs9ngygJYhGyL_11application6shared6traits20reminder_persistence19ReminderPersistence13save_reminder000NtCsraHdjdGY3T_4uuid4UuidE0s0_0Bb_
FNDA:0,_RNCNCINvMNtNtCsi6y5LRNeeCE_8adapters6shared11persistenceNtB7_19PostgresPersistence16with_transactionNCNCNCNvXNtNtB7_5impls25reminder_persistence_implBS_NtNtNtNtCs9ngygJYhGyL_11application6shared6traits20reminder_persistence19ReminderPersistence13save_reminder000NtCsraHdjdGY3T_4uuid4UuidE0s1_0Bb_
FNDA:3,_RNCNCINvMNtNtCsi6y5LRNeeCE_8adapters6shared11persistenceNtB7_19PostgresPersistence16with_transactionNCNCNCNvXNtNtB7_5impls25reminder_persistence_implBS_NtNtNtNtCs9ngygJYhGyL_11application6shared6traits20reminder_persistence19ReminderPersistence13save_reminder000NtCsraHdjdGY3T_4uuid4UuidE0s_0Bb_
FNDA:0,_RNCNCINvMNtNtCsi6y5LRNeeCE_8adapters6shared11persistenceNtB7_19PostgresPersistence16with_transactionNCNCNCNvXNtNtB7_5impls25reminder_persistence_implBS_NtNtNtNtCs9ngygJYhGyL_11application6shared6traits20reminder_persistence19ReminderPersistence15update_reminder000uE00Bb_
FNDA:0,_RNCNCINvMNtNtCsi6y5LRNeeCE_8adapters6shared11persistenceNtB7_19PostgresPersistence16with_transactionNCNCNCNvXNtNtB7_5impls25reminder_persistence_implBS_NtNtNtNtCs9ngygJYhGyL_11application6shared6traits20reminder_persistence19ReminderPersistence15update_reminder000uE0s0_0Bb_
FNDA:0,_RNCNCINvMNtNtCsi6y5LRNeeCE_8adapters6shared11persistenceNtB7_19PostgresPersistence16with_transactionNCNCNCNvXNtNtB7_5impls25reminder_persistence_implBS_NtNtNtNtCs9ngygJYhGyL_11application6shared6traits20reminder_persistence19ReminderPersistence15update_reminder000uE0s1_0Bb_
FNDA:1,_RNCNCINvMNtNtCsi6y5LRNeeCE_8adapters6shared11persistenceNtB7_19PostgresPersistence16with_transactionNCNCNCNvXNtNtB7_5impls25reminder_persistence_implBS_NtNtNtNtCs9ngygJYhGyL_11application6shared6traits20reminder_persistence19ReminderPersistence15update_reminder000uE0s_0Bb_
FNDA:0,_RNCNCINvMNtNtCsi6y5LRNeeCE_8adapters6shared11persistenceNtB7_19PostgresPersistence16with_transactionNCNCNCNvXNtNtB7_5impls25reminder_persistence_implBS_NtNtNtNtCs9ngygJYhGyL_11application6shared6traits20reminder_persistence19ReminderPersistence16find_by_task_ids000INtNtCs1OjIl8oxbrv_5alloc3vec3VecNtNtNtNtCseoQRfqfIfnI_6domain5tasks8entities8reminder8ReminderEE00Bb_
FNDA:0,_RNCNCINvMNtNtCsi6y5LRNeeCE_8adapters6shared11persistenceNtB7_19PostgresPersistence16with_transactionNCNCNCNvXNtNtB7_5impls25reminder_persistence_implBS_NtNtNtNtCs9ngygJYhGyL_11application6shared6traits20reminder_persistence19ReminderPersistence16find_by_task_ids000INtNtCs1OjIl8oxbrv_5alloc3vec3VecNtNtNtNtCseoQRfqfIfnI_6domain5tasks8entities8reminder8ReminderEE0s0_0Bb_
FNDA:0,_RNCNCINvMNtNtCsi6y5LRNeeCE_8adapters6shared11persistenceNtB7_19PostgresPersistence16with_transactionNCNCNCNvXNtNtB7_5impls25reminder_persistence_implBS_NtNtNtNtCs9ngygJYhGyL_11application6shared6traits20reminder_persistence19ReminderPersistence16find_by_task_ids000INtNtCs1OjIl8oxbrv_5alloc3vec3VecNtNtNtNtCseoQRfqfIfnI_6domain5tasks8entities8reminder8ReminderEE0s1_0Bb_
FNDA:1,_RNCNCINvMNtNtCsi6y5LRNeeCE_8adapters6shared11persistenceNtB7_19PostgresPersistence16with_transactionNCNCNCNvXNtNtB7_5impls25reminder_persistence_implBS_NtNtNtNtCs9ngygJYhGyL_11application6shared6traits20reminder_persistence19ReminderPersistence16find_by_task_ids000INtNtCs1OjIl8oxbrv_5alloc3vec3VecNtNtNtNtCseoQRfqfIfnI_6domain5tasks8entities8reminder8ReminderEE0s_0Bb_
FNDA:0,_RNCNCINvMNtNtCsi6y5LRNeeCE_8adapters6shared11persistenceNtB7_19PostgresPersistence16with_transactionNCNCNCNvXNtNtB7_5impls34push_subscription_persistence_implBS_NtNtNtNtCs9ngygJYhGyL_11application6shared6traits29push_subscription_persistence27PushSubscriptionPersistence6delete000uE00Bb_
FNDA:0,_RNCNCINvMNtNtCsi6y5LRNeeCE_8adapters6shared11persistenceNtB7_19PostgresPersistence16with_transactionNCNCNCNvXNtNtB7_5impls34push_subscription_persistence_implBS_NtNtNtNtCs9ngygJYhGyL_11application6shared6traits29push_subscription_persistence27PushSubscriptionPersistence6delete000uE0s0_0Bb_
FNDA:0,_RNCNCINvMNtNtCsi6y5LRNeeCE_8adapters6shared11persistenceNtB7_19PostgresPersistence16with_transactionNCNCNCNvXNtNtB7_5impls34push_subscription_persistence_implBS_NtNtNtNtCs9ngygJYhGyL_11application6shared6traits29push_subscription_persistence27PushSubscriptionPersistence6delete000uE0s1_0Bb_
FNDA:2,_RNCNCINvMNtNtCsi6y5LRNeeCE_8adapters6shared11persistenceNtB7_19PostgresPersistence16with_transactionNCNCNCNvXNtNtB7_5impls34push_subscription_persistence_implBS_NtNtNtNtCs9ngygJYhGyL_11application6shared6traits29push_subscription_persistence27PushSubscriptionPersistence6delete000uE0s_0Bb_
FNDA:0,_RNCNCINvMNtNtCsi6y5LRNeeCE_8adapters6shared11persistenceNtB7_19PostgresPersistence16with_transactionNCNCNCNvXNtNtB7_5impls34push_subscription_persistence_implBS_NtNtNtNtCs9ngygJYhGyL_11application6shared6traits29push_subscription_persistence27PushSubscriptionPersistence6upsert000NtCsraHdjdGY3T_4uuid4UuidE00Bb_
FNDA:0,_RNCNCINvMNtNtCsi6y5LRNeeCE_8adapters6shared11persistenceNtB7_19PostgresPersistence16with_transactionNCNCNCNvXNtNtB7_5impls34push_subscription_persistence_implBS_NtNtNtNtCs9ngygJYhGyL_11application6shared6traits29push_subscription_persistence27PushSubscriptionPersistence6upsert000NtCsraHdjdGY3T_4uuid4UuidE0s0_0Bb_
FNDA:0,_RNCNCINvMNtNtCsi6y5LRNeeCE_8adapters6shared11persistenceNtB7_19PostgresPersistence16with_transactionNCNCNCNvXNtNtB7_5impls34push_subscription_persistence_implBS_NtNtNtNtCs9ngygJYhGyL_11application6shared6traits29push_subscription_persistence27PushSubscriptionPersistence6upsert000NtCsraHdjdGY3T_4uuid4UuidE0s1_0Bb_
FNDA:7,_RNCNCINvMNtNtCsi6y5LRNeeCE_8adapters6shared11persistenceNtB7_19PostgresPersistence16with_transactionNCNCNCNvXNtNtB7_5impls34push_subscription_persistence_implBS_NtNtNtNtCs9ngygJYhGyL_11application6shared6traits29push_subscription_persistence27PushSubscriptionPersistence6upsert000NtCsraHdjdGY3T_4uuid4UuidE0s_0Bb_
FNDA:24,_RNvMNtNtCsi6y5LRNeeCE_8adapters6shared11persistenceNtB2_19PostgresPersistence3new
FNDA:0,_RINvMNtNtCsjp8PXOiLT2t_8adapters6shared11persistenceNtB3_19PostgresPersistence16with_transactionNCNCNCNvXNtNtB3_5impls25reminder_persistence_implBO_NtNtNtNtCs9ngygJYhGyL_11application6shared6traits20reminder_persistence19ReminderPersistence13save_reminder000NtCsraHdjdGY3T_4uuid4UuidEB7_
FNDA:0,_RINvMNtNtCsjp8PXOiLT2t_8adapters6shared11persistenceNtB3_19PostgresPersistence16with_transactionNCNCNCNvXNtNtB3_5impls25reminder_persistence_implBO_NtNtNtNtCs9ngygJYhGyL_11application6shared6traits20reminder_persistence19ReminderPersistence15update_reminder000uEB7_
FNDA:5,_RINvMNtNtCsjp8PXOiLT2t_8adapters6shared11persistenceNtB3_19PostgresPersistence16with_transactionNCNCNCNvXNtNtB3_5impls25reminder_persistence_implBO_NtNtNtNtCs9ngygJYhGyL_11application6shared6traits20reminder_persistence19ReminderPersistence16find_by_task_ids000INtNtCs1OjIl8oxbrv_5alloc3vec3VecNtNtNtNtCseoQRfqfIfnI_6domain5tasks8entities8reminder8ReminderEEB7_
FNDA:0,_RINvMNtNtCsjp8PXOiLT2t_8adapters6shared11persistenceNtB3_19PostgresPersistence16with_transactionNCNCNCNvXNtNtB3_5impls25reminder_persistence_implBO_NtNtNtNtCs9ngygJYhGyL_11application6shared6traits20reminder_persistence19ReminderPersistence20find_pending_by_user000INtNtCs1OjIl8oxbrv_5alloc3vec3VecNtNtNtNtCseoQRfqfIfnI_6domain5tasks8entities8reminder8ReminderEEB7_
FNDA:0,_RINvMNtNtCsjp8PXOiLT2t_8adapters6shared11persistenceNtB3_19PostgresPersistence16with_transactionNCNCNCNvXNtNtB3_5impls34push_subscription_persistence_implBO_NtNtNtNtCs9ngygJYhGyL_11application6shared6traits29push_subscription_persistence27PushSubscriptionPersistence6delete000uEB7_
FNDA:0,_RINvMNtNtCsjp8PXOiLT2t_8adapters6shared11persistenceNtB3_19PostgresPersistence16with_transactionNCNCNCNvXNtNtB3_5impls34push_subscription_persistence_implBO_NtNtNtNtCs9ngygJYhGyL_11application6shared6traits29push_subscription_persistence27PushSubscriptionPersistence6upsert000NtCsraHdjdGY3T_4uuid4UuidEB7_
FNDA:0,_RINvMNtNtCsjp8PXOiLT2t_8adapters6shared11persistenceNtB3_19PostgresPersistence16with_transactionNCNCNCNvXNtNtNtNtB7_10flashcards11persistence5impls26flashcard_persistence_implBO_NtNtNtNtCs9ngygJYhGyL_11application10flashcards6traits21flashcard_persistence20FlashcardPersistence13create_folder000NtNtNtNtCseoQRfqfIfnI_6domain6shared8entities15folder_metadata14FolderMetadataEB7_
FNDA:0,_RINvMNtNtCsjp8PXOiLT2t_8adapters6shared11persistenceNtB3_19PostgresPersistence16with_transactionNCNCNCNvXNtNtNtNtB7_10flashcards11persistence5impls26flashcard_persistence_implBO_NtNtNtNtCs9ngygJYhGyL_11application10flashcards6traits21flashcard_persistence20FlashcardPersistence13delete_folder000jEB7_
FNDA:0,_RINvMNtNtCsjp8PXOiLT2t_8adapters6shared11persistenceNtB3_19PostgresPersistence16with_transactionNCNCNCNvXNtNtNtNtB7_10flashcards11persistence5impls26flashcard_persistence_implBO_NtNtNtNtCs9ngygJYhGyL_11application10flashcards6traits21flashcard_persistence20FlashcardPersistence14find_by_folder000INtNtCs1OjIl8oxbrv_5alloc3vec3VecNtNtNtB1J_9db_models12db_flashcard11DbFlashcardEEB7_
FNDA:0,_RINvMNtNtCsjp8PXOiLT2t_8adapters6shared11persistenceNtB3_19PostgresPersistence16with_transactionNCNCNCNvXNtNtNtNtB7_10flashcards11persistence5impls26flashcard_persistence_implBO_NtNtNtNtCs9ngygJYhGyL_11application10flashcards6traits21flashcard_persistence20FlashcardPersistence14save_to_folder000uEB7_
FNDA:0,_RINvMNtNtCsjp8PXOiLT2t_8adapters6shared11persistenceNtB3_19PostgresPersistence16with_transactionNCNCNCNvXNtNtNtNtB7_10flashcards11persistence5impls26flashcard_persistence_implBO_NtNtNtNtCs9ngygJYhGyL_11application10flashcards6traits21flashcard_persistence20FlashcardPersistence16find_due_by_user000INtNtCs1OjIl8oxbrv_5alloc3vec3VecNtNtNtB1J_9db_models12db_flashcard11DbFlashcardEEB7_
FNDA:0,_RINvMNtNtCsjp8PXOiLT2t_8adapters6shared11persistenceNtB3_19PostgresPersistence16with_transactionNCNCNCNvXNtNtNtNtB7_10flashcards11persistence5impls26flashcard_persistence_implBO_NtNtNtNtCs9ngygJYhGyL_11application10flashcards6traits21flashcard_persistence20FlashcardPersistence18remove_from_folder000jEB7_
FNDA:0,_RINvMNtNtCsjp8PXOiLT2t_8adapters6shared11persistenceNtB3_19PostgresPersistence16with_transactionNCNCNCNvXNtNtNtNtB7_10flashcards11persistence5impls26flashcard_persistence_implBO_NtNtNtNtCs9ngygJYhGyL_11application10flashcards6traits21flashcard_persistence20FlashcardPersistence25find_subfolders_by_parent000INtNtCs1OjIl8oxbrv_5alloc3vec3VecNtNtNtB1J_9db_models9db_folder8DbFolderEEB7_
FNDA:0,_RINvMNtNtCsjp8PXOiLT2t_8adapters6shared11persistenceNtB3_19PostgresPersistence16with_transactionNCNCNCNvXNtNtNtNtB7_10flashcards11persistence5impls26flashcard_persistence_implBO_NtNtNtNtCs9ngygJYhGyL_11application10flashcards6traits21flashcard_persistence20FlashcardPersistence27create_root_folder_for_user000uEB7_
FNDA:0,_RINvMNtNtCsjp8PXOiLT2t_8adapters6shared11persistenceNtB3_19PostgresPersistence16with_transactionNCNCNCNvXNtNtNtNtB7_10flashcards11persistence5impls26flashcard_persistence_implBO_NtNtNtNtCs9ngygJYhGyL_11application10flashcards6traits21flashcard_persistence20FlashcardPersistence4save000uEB7_
FNDA:0,_RINvMNtNtCsjp8PXOiLT2t_8adapters6shared11persistenceNtB3_19PostgresPersistence16with_transactionNCNCNCNvXNtNtNtNtB7_10flashcards11persistence5impls26flashcard_persistence_implBO_NtNtNtNtCs9ngygJYhGyL_11application10flashcards6traits21flashcard_persistence20FlashcardPersistence6delete000jEB7_
FNDA:0,_RINvMNtNtCsjp8PXOiLT2t_8adapters6shared11persistenceNtB3_19PostgresPersistence16with_transactionNCNCNCNvXNtNtNtNtB7_10flashcards11persistence5impls26flashcard_persistence_implBO_NtNtNtNtCs9ngygJYhGyL_11application10flashcards6traits21flashcard_persistence20FlashcardPersistence6update000jEB7_
FNDA:9,_RINvMNtNtCsjp8PXOiLT2t_8adapters6shared11persistenceNtB3_19PostgresPersistence16with_transactionNCNCNCNvXNtNtNtNtB7_5tasks11persistence5impls21task_persistence_implBO_NtNtNtNtCs9ngygJYhGyL_11application5tasks6traits16task_persistence15TaskPersistence11create_task00s_0NtCsraHdjdGY3T_4uuid4UuidEB7_
FNDA:2,_RINvMNtNtCsjp8PXOiLT2t_8adapters6shared11persistenceNtB3_19PostgresPersistence16with_transactionNCNCNCNvXNtNtNtNtB7_5tasks11persistence5impls21task_persistence_implBO_NtNtNtNtCs9ngygJYhGyL_11application5tasks6traits16task_persistence15TaskPersistence11update_task00s_0NtNtNtNtCseoQRfqfIfnI_6domain5tasks8entities4task4TaskEB7_
FNDA:8,_RINvMNtNtCsjp8PXOiLT2t_8adapters6shared11persistenceNtB3_19PostgresPersistence16with_transactionNCNCNCNvXNtNtNtNtB7_5tasks11persistence5impls21task_persistence_implBO_NtNtNtNtCs9ngygJYhGyL_11application5tasks6traits16task_persistence15TaskPersistence8find_all000INtNtCs1OjIl8oxbrv_5alloc3vec3VecNtNtNtNtCseoQRfqfIfnI_6domain5tasks8entities4task4TaskEEB7_
FNDA:0,_RNCINvMNtNtCsjp8PXOiLT2t_8adapters6shared11persistenceNtB5_19PostgresPersistence16with_transactionNCNCNCNvXNtNtB5_5impls25reminder_persistence_implBQ_NtNtNtNtCs9ngygJYhGyL_11application6shared6traits20reminder_persistence19ReminderPersistence13save_reminder000NtCsraHdjdGY3T_4uuid4UuidE0B9_
FNDA:0,_RNCINvMNtNtCsjp8PXOiLT2t_8adapters6shared11persistenceNtB5_19PostgresPersistence16with_transactionNCNCNCNvXNtNtB5_5impls25reminder_persistence_implBQ_NtNtNtNtCs9ngygJYhGyL_11application6shared6traits20reminder_persistence19ReminderPersistence15update_reminder000uE0B9_
FNDA:5,_RNCINvMNtNtCsjp8PXOiLT2t_8adapters6shared11persistenceNtB5_19PostgresPersistence16with_transactionNCNCNCNvXNtNtB5_5impls25reminder_persistence_implBQ_NtNtNtNtCs9ngygJYhGyL_11application6shared6traits20reminder_persistence19ReminderPersistence16find_by_task_ids000INtNtCs1OjIl8oxbrv_5alloc3vec3VecNtNtNtNtCseoQRfqfIfnI_6domain5tasks8entities8reminder8ReminderEE0B9_
FNDA:0,_RNCINvMNtNtCsjp8PXOiLT2t_8adapters6shared11persistenceNtB5_19PostgresPersistence16with_transactionNCNCNCNvXNtNtB5_5impls25reminder_persistence_implBQ_NtNtNtNtCs9ngygJYhGyL_11application6shared6traits20reminder_persistence19ReminderPersistence20find_pending_by_user000INtNtCs1OjIl8oxbrv_5alloc3vec3VecNtNtNtNtCseoQRfqfIfnI_6domain5tasks8entities8reminder8ReminderEE0B9_
FNDA:0,_RNCINvMNtNtCsjp8PXOiLT2t_8adapters6shared11persistenceNtB5_19PostgresPersistence16with_transactionNCNCNCNvXNtNtB5_5impls34push_subscription_persistence_implBQ_NtNtNtNtCs9ngygJYhGyL_11application6shared6traits29push_subscription_persistence27PushSubscriptionPersistence6delete000uE0B9_
FNDA:0,_RNCINvMNtNtCsjp8PXOiLT2t_8adapters6shared11persistenceNtB5_19PostgresPersistence16with_transactionNCNCNCNvXNtNtB5_5impls34push_subscription_persistence_implBQ_NtNtNtNtCs9ngygJYhGyL_11application6shared6traits29push_subscription_persistence27PushSubscriptionPersistence6upsert000NtCsraHdjdGY3T_4uuid4UuidE0B9_
FNDA:0,_RNCINvMNtNtCsjp8PXOiLT2t_8adapters6shared11persistenceNtB5_19PostgresPersistence16with_transactionNCNCNCNvXNtNtNtNtB9_10flashcards11persistence5impls26flashcard_persistence_implBQ_NtNtNtNtCs9ngygJYhGyL_11application10flashcards6traits21flashcard_persistence20FlashcardPersistence13create_folder000NtNtNtNtCseoQRfqfIfnI_6domain6shared8entities15folder_metadata14FolderMetadataE0B9_
FNDA:0,_RNCINvMNtNtCsjp8PXOiLT2t_8adapters6shared11persistenceNtB5_19PostgresPersistence16with_transactionNCNCNCNvXNtNtNtNtB9_10flashcards11persistence5impls26flashcard_persistence_implBQ_NtNtNtNtCs9ngygJYhGyL_11application10flashcards6traits21flashcard_persistence20FlashcardPersistence13delete_folder000jE0B9_
FNDA:0,_RNCINvMNtNtCsjp8PXOiLT2t_8adapters6shared11persistenceNtB5_19PostgresPersistence16with_transactionNCNCNCNvXNtNtNtNtB9_10flashcards11persistence5impls26flashcard_persistence_implBQ_NtNtNtNtCs9ngygJYhGyL_11application10flashcards6traits21flashcard_persistence20FlashcardPersistence14find_by_folder000INtNtCs1OjIl8oxbrv_5alloc3vec3VecNtNtNtB1L_9db_models12db_flashcard11DbFlashcardEE0B9_
FNDA:0,_RNCINvMNtNtCsjp8PXOiLT2t_8adapters6shared11persistenceNtB5_19PostgresPersistence16with_transactionNCNCNCNvXNtNtNtNtB9_10flashcards11persistence5impls26flashcard_persistence_implBQ_NtNtNtNtCs9ngygJYhGyL_11application10flashcards6traits21flashcard_persistence20FlashcardPersistence14save_to_folder000uE0B9_
FNDA:0,_RNCINvMNtNtCsjp8PXOiLT2t_8adapters6shared11persistenceNtB5_19PostgresPersistence16with_transactionNCNCNCNvXNtNtNtNtB9_10flashcards11persistence5impls26flashcard_persistence_implBQ_NtNtNtNtCs9ngygJYhGyL_11application10flashcards6traits21flashcard_persistence20FlashcardPersistence16find_due_by_user000INtNtCs1OjIl8oxbrv_5alloc3vec3VecNtNtNtB1L_9db_models12db_flashcard11DbFlashcardEE0B9_
FNDA:0,_RNCINvMNtNtCsjp8PXOiLT2t_8adapters6shared11persistenceNtB5_19PostgresPersistence16with_transactionNCNCNCNvXNtNtNtNtB9_10flashcards11persistence5impls26flashcard_persistence_implBQ_NtNtNtNtCs9ngygJYhGyL_11application10flashcards6traits21flashcard_persistence20FlashcardPersistence18remove_from_folder000jE0B9_
FNDA:0,_RNCINvMNtNtCsjp8PXOiLT2t_8adapters6shared11persistenceNtB5_19PostgresPersistence16with_transactionNCNCNCNvXNtNtNtNtB9_10flashcards11persistence5impls26flashcard_persistence_implBQ_NtNtNtNtCs9ngygJYhGyL_11application10flashcards6traits21flashcard_persistence20FlashcardPersistence25find_subfolders_by_parent000INtNtCs1OjIl8oxbrv_5alloc3vec3VecNtNtNtB1L_9db_models9db_folder8DbFolderEE0B9_
FNDA:0,_RNCINvMNtNtCsjp8PXOiLT2t_8adapters6shared11persistenceNtB5_19PostgresPersistence16with_transactionNCNCNCNvXNtNtNtNtB9_10flashcards11persistence5impls26flashcard_persistence_implBQ_NtNtNtNtCs9ngygJYhGyL_11application10flashcards6traits21flashcard_persistence20FlashcardPersistence27create_root_folder_for_user000uE0B9_
FNDA:0,_RNCINvMNtNtCsjp8PXOiLT2t_8adapters6shared11persistenceNtB5_19PostgresPersistence16with_transactionNCNCNCNvXNtNtNtNtB9_10flashcards11persistence5impls26flashcard_persistence_implBQ_NtNtNtNtCs9ngygJYhGyL_11application10flashcards6traits21flashcard_persistence20FlashcardPersistence4save000uE0B9_
FNDA:0,_RNCINvMNtNtCsjp8PXOiLT2t_8adapters6shared11persistenceNtB5_19PostgresPersistence16with_transactionNCNCNCNvXNtNtNtNtB9_10flashcards11persistence5impls26flashcard_persistence_implBQ_NtNtNtNtCs9ngygJYhGyL_11application10flashcards6traits21flashcard_persistence20FlashcardPersistence6delete000jE0B9_
FNDA:0,_RNCINvMNtNtCsjp8PXOiLT2t_8adapters6shared11persistenceNtB5_19PostgresPersistence16with_transactionNCNCNCNvXNtNtNtNtB9_10flashcards11persistence5impls26flashcard_persistence_implBQ_NtNtNtNtCs9ngygJYhGyL_11application10flashcards6traits21flashcard_persistence20FlashcardPersistence6update000jE0B9_
FNDA:9,_RNCINvMNtNtCsjp8PXOiLT2t_8adapters6shared11persistenceNtB5_19PostgresPersistence16with_transactionNCNCNCNvXNtNtNtNtB9_5tasks11persistence5impls21task_persistence_implBQ_NtNtNtNtCs9ngygJYhGyL_11application5tasks6traits16task_persistence15TaskPersistence11create_task00s_0NtCsraHdjdGY3T_4uuid4UuidE0B9_
FNDA:2,_RNCINvMNtNtCsjp8PXOiLT2t_8adapters6shared11persistenceNtB5_19PostgresPersistence16with_transactionNCNCNCNvXNtNtNtNtB9_5tasks11persistence5impls21task_persistence_implBQ_NtNtNtNtCs9ngygJYhGyL_11application5tasks6traits16task_persistence15TaskPersistence11update_task00s_0NtNtNtNtCseoQRfqfIfnI_6domain5tasks8entities4task4TaskE0B9_
FNDA:8,_RNCINvMNtNtCsjp8PXOiLT2t_8adapters6shared11persistenceNtB5_19PostgresPersistence16with_transactionNCNCNCNvXNtNtNtNtB9_5tasks11persistence5impls21task_persistence_implBQ_NtNtNtNtCs9ngygJYhGyL_11application5tasks6traits16task_persistence15TaskPersistence8find_all000INtNtCs1OjIl8oxbrv_5alloc3vec3VecNtNtNtNtCseoQRfqfIfnI_6domain5tasks8entities4task4TaskEE0B9_
FNDA:0,_RNCNCINvMNtNtCsjp8PXOiLT2t_8adapters6shared11persistenceNtB7_19PostgresPersistence16with_transactionNCNCNCNvXNtNtB7_5impls25reminder_persistence_implBS_NtNtNtNtCs9ngygJYhGyL_11application6shared6traits20reminder_persistence19ReminderPersistence13save_reminder000NtCsraHdjdGY3T_4uuid4UuidE00Bb_
FNDA:0,_RNCNCINvMNtNtCsjp8PXOiLT2t_8adapters6shared11persistenceNtB7_19PostgresPersistence16with_transactionNCNCNCNvXNtNtB7_5impls25reminder_persistence_implBS_NtNtNtNtCs9ngygJYhGyL_11application6shared6traits20reminder_persistence19ReminderPersistence13save_reminder000NtCsraHdjdGY3T_4uuid4UuidE0s0_0Bb_
FNDA:0,_RNCNCINvMNtNtCsjp8PXOiLT2t_8adapters6shared11persistenceNtB7_19PostgresPersistence16with_transactionNCNCNCNvXNtNtB7_5impls25reminder_persistence_implBS_NtNtNtNtCs9ngygJYhGyL_11application6shared6traits20reminder_persistence19ReminderPersistence13save_reminder000NtCsraHdjdGY3T_4uuid4UuidE0s1_0Bb_
FNDA:0,_RNCNCINvMNtNtCsjp8PXOiLT2t_8adapters6shared11persistenceNtB7_19PostgresPersistence16with_transactionNCNCNCNvXNtNtB7_5impls25reminder_persistence_implBS_NtNtNtNtCs9ngygJYhGyL_11application6shared6traits20reminder_persistence19ReminderPersistence13save_reminder000NtCsraHdjdGY3T_4uuid4UuidE0s_0Bb_
FNDA:0,_RNCNCINvMNtNtCsjp8PXOiLT2t_8adapters6shared11persistenceNtB7_19PostgresPersistence16with_transactionNCNCNCNvXNtNtB7_5impls25reminder_persistence_implBS_NtNtNtNtCs9ngygJYhGyL_11application6shared6traits20reminder_persistence19ReminderPersistence15update_reminder000uE00Bb_
FNDA:0,_RNCNCINvMNtNtCsjp8PXOiLT2t_8adapters6shared11persistenceNtB7_19PostgresPersistence16with_transactionNCNCNCNvXNtNtB7_5impls25reminder_persistence_implBS_NtNtNtNtCs9ngygJYhGyL_11application6shared6traits20reminder_persistence19ReminderPersistence15update_reminder000uE0s0_0Bb_
FNDA:0,_RNCNCINvMNtNtCsjp8PXOiLT2t_8adapters6shared11persistenceNtB7_19PostgresPersistence16with_transactionNCNCNCNvXNtNtB7_5impls25reminder_persistence_implBS_NtNtNtNtCs9ngygJYhGyL_11application6shared6traits20reminder_persistence19ReminderPersistence15update_reminder000uE0s1_0Bb_
FNDA:0,_RNCNCINvMNtNtCsjp8PXOiLT2t_8adapters6shared11persistenceNtB7_19PostgresPersistence16with_transactionNCNCNCNvXNtNtB7_5impls25reminder_persistence_implBS_NtNtNtNtCs9ngygJYhGyL_11application6shared6traits20reminder_persistence19ReminderPersistence15update_reminder000uE0s_0Bb_
FNDA:0,_RNCNCINvMNtNtCsjp8PXOiLT2t_8adapters6shared11persistenceNtB7_19PostgresPersistence16with_transactionNCNCNCNvXNtNtB7_5impls25reminder_persistence_implBS_NtNtNtNtCs9ngygJYhGyL_11application6shared6traits20reminder_persistence19ReminderPersistence16find_by_task_ids000INtNtCs1OjIl8oxbrv_5alloc3vec3VecNtNtNtNtCseoQRfqfIfnI_6domain5tasks8entities8reminder8ReminderEE00Bb_
FNDA:0,_RNCNCINvMNtNtCsjp8PXOiLT2t_8adapters6shared11persistenceNtB7_19PostgresPersistence16with_transactionNCNCNCNvXNtNtB7_5impls25reminder_persistence_implBS_NtNtNtNtCs9ngygJYhGyL_11application6shared6traits20reminder_persistence19ReminderPersistence16find_by_task_ids000INtNtCs1OjIl8oxbrv_5alloc3vec3VecNtNtNtNtCseoQRfqfIfnI_6domain5tasks8entities8reminder8ReminderEE0s0_0Bb_
FNDA:0,_RNCNCINvMNtNtCsjp8PXOiLT2t_8adapters6shared11persistenceNtB7_19PostgresPersistence16with_transactionNCNCNCNvXNtNtB7_5impls25reminder_persistence_implBS_NtNtNtNtCs9ngygJYhGyL_11application6shared6traits20reminder_persistence19ReminderPersistence16find_by_task_ids000INtNtCs1OjIl8oxbrv_5alloc3vec3VecNtNtNtNtCseoQRfqfIfnI_6domain5tasks8entities8reminder8ReminderEE0s1_0Bb_
FNDA:5,_RNCNCINvMNtNtCsjp8PXOiLT2t_8adapters6shared11persistenceNtB7_19PostgresPersistence16with_transactionNCNCNCNvXNtNtB7_5impls25reminder_persistence_implBS_NtNtNtNtCs9ngygJYhGyL_11application6shared6traits20reminder_persistence19ReminderPersistence16find_by_task_ids000INtNtCs1OjIl8oxbrv_5alloc3vec3VecNtNtNtNtCseoQRfqfIfnI_6domain5tasks8entities8reminder8ReminderEE0s_0Bb_
FNDA:0,_RNCNCINvMNtNtCsjp8PXOiLT2t_8adapters6shared11persistenceNtB7_19PostgresPersistence16with_transactionNCNCNCNvXNtNtB7_5impls25reminder_persistence_implBS_NtNtNtNtCs9ngygJYhGyL_11application6shared6traits20reminder_persistence19ReminderPersistence20find_pending_by_user000INtNtCs1OjIl8oxbrv_5alloc3vec3VecNtNtNtNtCseoQRfqfIfnI_6domain5tasks8entities8reminder8ReminderEE00Bb_
FNDA:0,_RNCNCINvMNtNtCsjp8PXOiLT2t_8adapters6shared11persistenceNtB7_19PostgresPersistence16with_transactionNCNCNCNvXNtNtB7_5impls25reminder_persistence_implBS_NtNtNtNtCs9ngygJYhGyL_11application6shared6traits20reminder_persistence19ReminderPersistence20find_pending_by_user000INtNtCs1OjIl8oxbrv_5alloc3vec3VecNtNtNtNtCseoQRfqfIfnI_6domain5tasks8entities8reminder8ReminderEE0s0_0Bb_
FNDA:0,_RNCNCINvMNtNtCsjp8PXOiLT2t_8adapters6shared11persistenceNtB7_19PostgresPersistence16with_transactionNCNCNCNvXNtNtB7_5impls25reminder_persistence_implBS_NtNtNtNtCs9ngygJYhGyL_11application6shared6traits20reminder_persistence19ReminderPersistence20find_pending_by_user000INtNtCs1OjIl8oxbrv_5alloc3vec3VecNtNtNtNtCseoQRfqfIfnI_6domain5tasks8entities8reminder8ReminderEE0s1_0Bb_
FNDA:0,_RNCNCINvMNtNtCsjp8PXOiLT2t_8adapters6shared11persistenceNtB7_19PostgresPersistence16with_transactionNCNCNCNvXNtNtB7_5impls25reminder_persistence_implBS_NtNtNtNtCs9ngygJYhGyL_11application6shared6traits20reminder_persistence19ReminderPersistence20find_pending_by_user000INtNtCs1OjIl8oxbrv_5alloc3vec3VecNtNtNtNtCseoQRfqfIfnI_6domain5tasks8entities8reminder8ReminderEE0s_0Bb_
FNDA:0,_RNCNCINvMNtNtCsjp8PXOiLT2t_8adapters6shared11persistenceNtB7_19PostgresPersistence16with_transactionNCNCNCNvXNtNtB7_5impls34push_subscription_persistence_implBS_NtNtNtNtCs9ngygJYhGyL_11application6shared6traits29push_subscription_persistence27PushSubscriptionPersistence6delete000uE00Bb_
FNDA:0,_RNCNCINvMNtNtCsjp8PXOiLT2t_8adapters6shared11persistenceNtB7_19PostgresPersistence16with_transactionNCNCNCNvXNtNtB7_5impls34push_subscription_persistence_implBS_NtNtNtNtCs9ngygJYhGyL_11application6shared6traits29push_subscription_persistence27PushSubscriptionPersistence6delete000uE0s0_0Bb_
FNDA:0,_RNCNCINvMNtNtCsjp8PXOiLT2t_8adapters6shared11persistenceNtB7_19PostgresPersistence16with_transactionNCNCNCNvXNtNtB7_5impls34push_subscription_persistence_implBS_NtNtNtNtCs9ngygJYhGyL_11application6shared6traits29push_subscription_persistence27PushSubscriptionPersistence6delete000uE0s1_0Bb_
FNDA:0,_RNCNCINvMNtNtCsjp8PXOiLT2t_8adapters6shared11persistenceNtB7_19PostgresPersistence16with_transactionNCNCNCNvXNtNtB7_5impls34push_subscription_persistence_implBS_NtNtNtNtCs9ngygJYhGyL_11application6shared6traits29push_subscription_persistence27PushSubscriptionPersistence6delete000uE0s_0Bb_
FNDA:0,_RNCNCINvMNtNtCsjp8PXOiLT2t_8adapters6shared11persistenceNtB7_19PostgresPersistence16with_transactionNCNCNCNvXNtNtB7_5impls34push_subscription_persistence_implBS_NtNtNtNtCs9ngygJYhGyL_11application6shared6traits29push_subscription_persistence27PushSubscriptionPersistence6upsert000NtCsraHdjdGY3T_4uuid4UuidE00Bb_
FNDA:0,_RNCNCINvMNtNtCsjp8PXOiLT2t_8adapters6shared11persistenceNtB7_19PostgresPersistence16with_transactionNCNCNCNvXNtNtB7_5impls34push_subscription_persistence_implBS_NtNtNtNtCs9ngygJYhGyL_11application6shared6traits29push_subscription_persistence27PushSubscriptionPersistence6upsert000NtCsraHdjdGY3T_4uuid4UuidE0s0_0Bb_
FNDA:0,_RNCNCINvMNtNtCsjp8PXOiLT2t_8adapters6shared11persistenceNtB7_19PostgresPersistence16with_transactionNCNCNCNvXNtNtB7_5impls34push_subscription_persistence_implBS_NtNtNtNtCs9ngygJYhGyL_11application6shared6traits29push_subscription_persistence27PushSubscriptionPersistence6upsert000NtCsraHdjdGY3T_4uuid4UuidE0s1_0Bb_
FNDA:0,_RNCNCINvMNtNtCsjp8PXOiLT2t_8adapters6shared11persistenceNtB7_19PostgresPersistence16with_transactionNCNCNCNvXNtNtB7_5impls34push_subscription_persistence_implBS_NtNtNtNtCs9ngygJYhGyL_11application6shared6traits29push_subscription_persistence27PushSubscriptionPersistence6upsert000NtCsraHdjdGY3T_4uuid4UuidE0s_0Bb_
FNDA:0,_RNCNCINvMNtNtCsjp8PXOiLT2t_8adapters6shared11persistenceNtB7_19PostgresPersistence16with_transactionNCNCNCNvXNtNtNtNtBb_10flashcards11persistence5impls26flashcard_persistence_implBS_NtNtNtNtCs9ngygJYhGyL_11application10flashcards6traits21flashcard_persistence20FlashcardPersistence13create_folder000NtNtNtNtCseoQRfqfIfnI_6domain6shared8entities15folder_metadata14FolderMetadataE00Bb_
FNDA:0,_RNCNCINvMNtNtCsjp8PXOiLT2t_8adapters6shared11persistenceNtB7_19PostgresPersistence16with_transactionNCNCNCNvXNtNtNtNtBb_10flashcards11persistence5impls26flashcard_persistence_implBS_NtNtNtNtCs9ngygJYhGyL_11application10flashcards6traits21flashcard_persistence20FlashcardPersistence13create_folder000NtNtNtNtCseoQRfqfIfnI_6domain6shared8entities15folder_metadata14FolderMetadataE0s0_0Bb_
FNDA:0,_RNCNCINvMNtNtCsjp8PXOiLT2t_8adapters6shared11persistenceNtB7_19PostgresPersistence16with_transactionNCNCNCNvXNtNtNtNtBb_10flashcards11persistence5impls26flashcard_persistence_implBS_NtNtNtNtCs9ngygJYhGyL_11application10flashcards6traits21flashcard_persistence20FlashcardPersistence13create_folder000NtNtNtNtCseoQRfqfIfnI_6domain6shared8entities15folder_metadata14FolderMetadataE0s1_0Bb_
FNDA:0,_RNCNCINvMNtNtCsjp8PXOiLT2t_8adapters6shared11persistenceNtB7_19PostgresPersistence16with_transactionNCNCNCNvXNtNtNtNtBb_10flashcards11persistence5impls26flashcard_persistence_implBS_NtNtNtNtCs9ngygJYhGyL_11application10flashcards6traits21flashcard_persistence20FlashcardPersistence13create_folder000NtNtNtNtCseoQRfqfIfnI_6domain6shared8entities15folder_metadata14FolderMetadataE0s_0Bb_
FNDA:0,_RNCNCINvMNtNtCsjp8PXOiLT2t_8adapters6shared11persistenceNtB7_19PostgresPersistence16with_transactionNCNCNCNvXNtNtNtNtBb_10flashcards11persistence5impls26flashcard_persistence_implBS_NtNtNtNtCs9ngygJYhGyL_11application10flashcards6traits21flashcard_persistence20FlashcardPersistence13delete_folder000jE00Bb_
FNDA:0,_RNCNCINvMNtNtCsjp8PXOiLT2t_8adapters6shared11persistenceNtB7_19PostgresPersistence16with_transactionNCNCNCNvXNtNtNtNtBb_10flashcards11persistence5impls26flashcard_persistence_implBS_NtNtNtNtCs9ngygJYhGyL_11application10flashcards6traits21flashcard_persistence20FlashcardPersistence13delete_folder000jE0s0_0Bb_
FNDA:0,_RNCNCINvMNtNtCsjp8PXOiLT2t_8adapters6shared11persistenceNtB7_19PostgresPersistence16with_transactionNCNCNCNvXNtNtNtNtBb_10flashcards11persistence5impls26flashcard_persistence_implBS_NtNtNtNtCs9ngygJYhGyL_11application10flashcards6traits21flashcard_persistence20FlashcardPersistence13delete_folder000jE0s1_0Bb_
FNDA:0,_RNCNCINvMNtNtCsjp8PXOiLT2t_8adapters6shared11persistenceNtB7_19PostgresPersistence16with_transactionNCNCNCNvXNtNtNtNtBb_10flashcards11persistence5impls26flashcard_persistence_implBS_NtNtNtNtCs9ngygJYhGyL_11application10flashcards6traits21flashcard_persistence20FlashcardPersistence13delete_folder000jE0s_0Bb_
FNDA:0,_RNCNCINvMNtNtCsjp8PXOiLT2t_8adapters6shared11persistenceNtB7_19PostgresPersistence16with_transactionNCNCNCNvXNtNtNtNtBb_10flashcards11persistence5impls26flashcard_persistence_implBS_NtNtNtNtCs9ngygJYhGyL_11application10flashcards6traits21flashcard_persistence20FlashcardPersistence14find_by_folder000INtNtCs1OjIl8oxbrv_5alloc3vec3VecNtNtNtB1N_9db_models12db_flashcard11DbFlashcardEE00Bb_
FNDA:0,_RNCNCINvMNtNtCsjp8PXOiLT2t_8adapters6shared11persistenceNtB7_19PostgresPersistence16with_transactionNCNCNCNvXNtNtNtNtBb_10flashcards11persistence5impls26flashcard_persistence_implBS_NtNtNtNtCs9ngygJYhGyL_11application10flashcards6traits21flashcard_persistence20FlashcardPersistence14find_by_folder000INtNtCs1OjIl8oxbrv_5alloc3vec3VecNtNtNtB1N_9db_models12db_flashcard11DbFlashcardEE0s0_0Bb_
FNDA:0,_RNCNCINvMNtNtCsjp8PXOiLT2t_8adapters6shared11persistenceNtB7_19PostgresPersistence16with_transactionNCNCNCNvXNtNtNtNtBb_10flashcards11persistence5impls26flashcard_persistence_implBS_NtNtNtNtCs9ngygJYhGyL_11application10flashcards6traits21flashcard_persistence20FlashcardPersistence14find_by_folder000INtNtCs1OjIl8oxbrv_5alloc3vec3VecNtNtNtB1N_9db_models12db_flashcard11DbFlashcardEE0s1_0Bb_
FNDA:0,_RNCNCINvMNtNtCsjp8PXOiLT2t_8adapters6shared11persistenceNtB7_19PostgresPersistence16with_transactionNCNCNCNvXNtNtNtNtBb_10flashcards11persistence5impls26flashcard_persistence_implBS_NtNtNtNtCs9ngygJYhGyL_11application10flashcards6traits21flashcard_persistence20FlashcardPersistence14find_by_folder000INtNtCs1OjIl8oxbrv_5alloc3vec3VecNtNtNtB1N_9db_models12db_flashcard11DbFlashcardEE0s_0Bb_
FNDA:0,_RNCNCINvMNtNtCsjp8PXOiLT2t_8adapters6shared11persistenceNtB7_19PostgresPersistence16with_transactionNCNCNCNvXNtNtNtNtBb_10flashcards11persistence5impls26flashcard_persistence_implBS_NtNtNtNtCs9ngygJYhGyL_11application10flashcards6traits21flashcard_persistence20FlashcardPersistence14save_to_folder000uE00Bb_
FNDA:0,_RNCNCINvMNtNtCsjp8PXOiLT2t_8adapters6shared11persistenceNtB7_19PostgresPersistence16with_transactionNCNCNCNvXNtNtNtNtBb_10flashcards11persistence5impls26flashcard_persistence_implBS_NtNtNtNtCs9ngygJYhGyL_11application10flashcards6traits21flashcard_persistence20FlashcardPersistence14save_to_folder000uE0s0_0Bb_
FNDA:0,_RNCNCINvMNtNtCsjp8PXOiLT2t_8adapters6shared11persistenceNtB7_19PostgresPersistence16with_transactionNCNCNCNvXNtNtNtNtBb_10flashcards11persistence5impls26flashcard_persistence_implBS_NtNtNtNtCs9ngygJYhGyL_11application10flashcards6traits21flashcard_persistence20FlashcardPersistence14save_to_folder000uE0s1_0Bb_
FNDA:0,_RNCNCINvMNtNtCsjp8PXOiLT2t_8adapters6shared11persistenceNtB7_19PostgresPersistence16with_transactionNCNCNCNvXNtNtNtNtBb_10flashcards11persistence5impls26flashcard_persistence_implBS_NtNtNtNtCs9ngygJYhGyL_11application10flashcards6traits21flashcard_persistence20FlashcardPersistence14save_to_folder000uE0s_0Bb_
FNDA:0,_RNCNCINvMNtNtCsjp8PXOiLT2t_8adapters6shared11persistenceNtB7_19PostgresPersistence16with_transactionNCNCNCNvXNtNtNtNtBb_10flashcards11persistence5impls26flashcard_persistence_implBS_NtNtNtNtCs9ngygJYhGyL_11application10flashcards6traits21flashcard_persistence20FlashcardPersistence16find_due_by_user000INtNtCs1OjIl8oxbrv_5alloc3vec3VecNtNtNtB1N_9db_models12db_flashcard11DbFlashcardEE00Bb_
FNDA:0,_RNCNCINvMNtNtCsjp8PXOiLT2t_8adapters6shared11persistenceNtB7_19PostgresPersistence16with_transactionNCNCNCNvXNtNtNtNtBb_10flashcards11persistence5impls26flashcard_persistence_implBS_NtNtNtNtCs9ngygJYhGyL_11application10flashcards6traits21flashcard_persistence20FlashcardPersistence16find_due_by_user000INtNtCs1OjIl8oxbrv_5alloc3vec3VecNtNtNtB1N_9db_models12db_flashcard11DbFlashcardEE0s0_0Bb_
FNDA:0,_RNCNCINvMNtNtCsjp8PXOiLT2t_8adapters6shared11persistenceNtB7_19PostgresPersistence16with_transactionNCNCNCNvXNtNtNtNtBb_10flashcards11persistence5impls26flashcard_persistence_implBS_NtNtNtNtCs9ngygJYhGyL_11application10flashcards6traits21flashcard_persistence20FlashcardPersistence16find_due_by_user000INtNtCs1OjIl8oxbrv_5alloc3vec3VecNtNtNtB1N_9db_models12db_flashcard11DbFlashcardEE0s1_0Bb_
FNDA:0,_RNCNCINvMNtNtCsjp8PXOiLT2t_8adapters6shared11persistenceNtB7_19PostgresPersistence16with_transactionNCNCNCNvXNtNtNtNtBb_10flashcards11persistence5impls26flashcard_persistence_implBS_NtNtNtNtCs9ngygJYhGyL_11application10flashcards6traits21flashcard_persistence20FlashcardPersistence16find_due_by_user000INtNtCs1OjIl8oxbrv_5alloc3vec3VecNtNtNtB1N_9db_models12db_flashcard11DbFlashcardEE0s_0Bb_
FNDA:0,_RNCNCINvMNtNtCsjp8PXOiLT2t_8adapters6shared11persistenceNtB7_19PostgresPersistence16with_transactionNCNCNCNvXNtNtNtNtBb_10flashcards11persistence5impls26flashcard_persistence_implBS_NtNtNtNtCs9ngygJYhGyL_11application10flashcards6traits21flashcard_persistence20FlashcardPersistence18remove_from_folder000jE00Bb_
FNDA:0,_RNCNCINvMNtNtCsjp8PXOiLT2t_8adapters6shared11persistenceNtB7_19PostgresPersistence16with_transactionNCNCNCNvXNtNtNtNtBb_10flashcards11persistence5impls26flashcard_persistence_implBS_NtNtNtNtCs9ngygJYhGyL_11application10flashcards6traits21flashcard_persistence20FlashcardPersistence18remove_from_folder000jE0s0_0Bb_
FNDA:0,_RNCNCINvMNtNtCsjp8PXOiLT2t_8adapters6shared11persistenceNtB7_19PostgresPersistence16with_transactionNCNCNCNvXNtNtNtNtBb_10flashcards11persistence5impls26flashcard_persistence_implBS_NtNtNtNtCs9ngygJYhGyL_11application10flashcards6traits21flashcard_persistence20FlashcardPersistence18remove_from_folder000jE0s1_0Bb_
FNDA:0,_RNCNCINvMNtNtCsjp8PXOiLT2t_8adapters6shared11persistenceNtB7_19PostgresPersistence16with_transactionNCNCNCNvXNtNtNtNtBb_10flashcards11persistence5impls26flashcard_persistence_implBS_NtNtNtNtCs9ngygJYhGyL_11application10flashcards6traits21flashcard_persistence20FlashcardPersistence18remove_from_folder000jE0s_0Bb_
FNDA:0,_RNCNCINvMNtNtCsjp8PXOiLT2t_8adapters6shared11persistenceNtB7_19PostgresPersistence16with_transactionNCNCNCNvXNtNtNtNtBb_10flashcards11persistence5impls26flashcard_persistence_implBS_NtNtNtNtCs9ngygJYhGyL_11application10flashcards6traits21flashcard_persistence20FlashcardPersistence25find_subfolders_by_parent000INtNtCs1OjIl8oxbrv_5alloc3vec3VecNtNtNtB1N_9db_models9db_folder8DbFolderEE00Bb_
FNDA:0,_RNCNCINvMNtNtCsjp8PXOiLT2t_8adapters6shared11persistenceNtB7_19PostgresPersistence16with_transactionNCNCNCNvXNtNtNtNtBb_10flashcards11persistence5impls26flashcard_persistence_implBS_NtNtNtNtCs9ngygJYhGyL_11application10flashcards6traits21flashcard_persistence20FlashcardPersistence25find_subfolders_by_parent000INtNtCs1OjIl8oxbrv_5alloc3vec3VecNtNtNtB1N_9db_models9db_folder8DbFolderEE0s0_0Bb_
FNDA:0,_RNCNCINvMNtNtCsjp8PXOiLT2t_8adapters6shared11persistenceNtB7_19PostgresPersistence16with_transactionNCNCNCNvXNtNtNtNtBb_10flashcards11persistence5impls26flashcard_persistence_implBS_NtNtNtNtCs9ngygJYhGyL_11application10flashcards6traits21flashcard_persistence20FlashcardPersistence25find_subfolders_by_parent000INtNtCs1OjIl8oxbrv_5alloc3vec3VecNtNtNtB1N_9db_models9db_folder8DbFolderEE0s1_0Bb_
FNDA:0,_RNCNCINvMNtNtCsjp8PXOiLT2t_8adapters6shared11persistenceNtB7_19PostgresPersistence16with_transactionNCNCNCNvXNtNtNtNtBb_10flashcards11persistence5impls26flashcard_persistence_implBS_NtNtNtNtCs9ngygJYhGyL_11application10flashcards6traits21flashcard_persistence20FlashcardPersistence25find_subfolders_by_parent000INtNtCs1OjIl8oxbrv_5alloc3vec3VecNtNtNtB1N_9db_models9db_folder8DbFolderEE0s_0Bb_
FNDA:0,_RNCNCINvMNtNtCsjp8PXOiLT2t_8adapters6shared11persistenceNtB7_19PostgresPersistence16with_transactionNCNCNCNvXNtNtNtNtBb_10flashcards11persistence5impls26flashcard_persistence_implBS_NtNtNtNtCs9ngygJYhGyL_11application10flashcards6traits21flashcard_persistence20FlashcardPersistence27create_root_folder_for_user000uE00Bb_
FNDA:0,_RNCNCINvMNtNtCsjp8PXOiLT2t_8adapters6shared11persistenceNtB7_19PostgresPersistence16with_transactionNCNCNCNvXNtNtNtNtBb_10flashcards11persistence5impls26flashcard_persistence_implBS_NtNtNtNtCs9ngygJYhGyL_11application10flashcards6traits21flashcard_persistence20FlashcardPersistence27create_root_folder_for_user000uE0s0_0Bb_
FNDA:0,_RNCNCINvMNtNtCsjp8PXOiLT2t_8adapters6shared11persistenceNtB7_19PostgresPersistence16with_transactionNCNCNCNvXNtNtNtNtBb_10flashcards11persistence5impls26flashcard_persistence_implBS_NtNtNtNtCs9ngygJYhGyL_11application10flashcards6traits21flashcard_persistence20FlashcardPersistence27create_root_folder_for_user000uE0s1_0Bb_
FNDA:0,_RNCNCINvMNtNtCsjp8PXOiLT2t_8adapters6shared11persistenceNtB7_19PostgresPersistence16with_transactionNCNCNCNvXNtNtNtNtBb_10flashcards11persistence5impls26flashcard_persistence_implBS_NtNtNtNtCs9ngygJYhGyL_11application10flashcards6traits21flashcard_persistence20FlashcardPersistence27create_root_folder_for_user000uE0s_0Bb_
FNDA:0,_RNCNCINvMNtNtCsjp8PXOiLT2t_8adapters6shared11persistenceNtB7_19PostgresPersistence16with_transactionNCNCNCNvXNtNtNtNtBb_10flashcards11persistence5impls26flashcard_persistence_implBS_NtNtNtNtCs9ngygJYhGyL_11application10flashcards6traits21flashcard_persistence20FlashcardPersistence4save000uE00Bb_
FNDA:0,_RNCNCINvMNtNtCsjp8PXOiLT2t_8adapters6shared11persistenceNtB7_19PostgresPersistence16with_transactionNCNCNCNvXNtNtNtNtBb_10flashcards11persistence5impls26flashcard_persistence_implBS_NtNtNtNtCs9ngygJYhGyL_11application10flashcards6traits21flashcard_persistence20FlashcardPersistence4save000uE0s0_0Bb_
FNDA:0,_RNCNCINvMNtNtCsjp8PXOiLT2t_8adapters6shared11persistenceNtB7_19PostgresPersistence16with_transactionNCNCNCNvXNtNtNtNtBb_10flashcards11persistence5impls26flashcard_persistence_implBS_NtNtNtNtCs9ngygJYhGyL_11application10flashcards6traits21flashcard_persistence20FlashcardPersistence4save000uE0s1_0Bb_
FNDA:0,_RNCNCINvMNtNtCsjp8PXOiLT2t_8adapters6shared11persistenceNtB7_19PostgresPersistence16with_transactionNCNCNCNvXNtNtNtNtBb_10flashcards11persistence5impls26flashcard_persistence_implBS_NtNtNtNtCs9ngygJYhGyL_11application10flashcards6traits21flashcard_persistence20FlashcardPersistence4save000uE0s_0Bb_
FNDA:0,_RNCNCINvMNtNtCsjp8PXOiLT2t_8adapters6shared11persistenceNtB7_19PostgresPersistence16with_transactionNCNCNCNvXNtNtNtNtBb_10flashcards11persistence5impls26flashcard_persistence_implBS_NtNtNtNtCs9ngygJYhGyL_11application10flashcards6traits21flashcard_persistence20FlashcardPersistence6delete000jE00Bb_
FNDA:0,_RNCNCINvMNtNtCsjp8PXOiLT2t_8adapters6shared11persistenceNtB7_19PostgresPersistence16with_transactionNCNCNCNvXNtNtNtNtBb_10flashcards11persistence5impls26flashcard_persistence_implBS_NtNtNtNtCs9ngygJYhGyL_11application10flashcards6traits21flashcard_persistence20FlashcardPersistence6delete000jE0s0_0Bb_
FNDA:0,_RNCNCINvMNtNtCsjp8PXOiLT2t_8adapters6shared11persistenceNtB7_19PostgresPersistence16with_transactionNCNCNCNvXNtNtNtNtBb_10flashcards11persistence5impls26flashcard_persistence_implBS_NtNtNtNtCs9ngygJYhGyL_11application10flashcards6traits21flashcard_persistence20FlashcardPersistence6delete000jE0s1_0Bb_
FNDA:0,_RNCNCINvMNtNtCsjp8PXOiLT2t_8adapters6shared11persistenceNtB7_19PostgresPersistence16with_transactionNCNCNCNvXNtNtNtNtBb_10flashcards11persistence5impls26flashcard_persistence_implBS_NtNtNtNtCs9ngygJYhGyL_11application10flashcards6traits21flashcard_persistence20FlashcardPersistence6delete000jE0s_0Bb_
FNDA:0,_RNCNCINvMNtNtCsjp8PXOiLT2t_8adapters6shared11persistenceNtB7_19PostgresPersistence16with_transactionNCNCNCNvXNtNtNtNtBb_10flashcards11persistence5impls26flashcard_persistence_implBS_NtNtNtNtCs9ngygJYhGyL_11application10flashcards6traits21flashcard_persistence20FlashcardPersistence6update000jE00Bb_
FNDA:0,_RNCNCINvMNtNtCsjp8PXOiLT2t_8adapters6shared11persistenceNtB7_19PostgresPersistence16with_transactionNCNCNCNvXNtNtNtNtBb_10flashcards11persistence5impls26flashcard_persistence_implBS_NtNtNtNtCs9ngygJYhGyL_11application10flashcards6traits21flashcard_persistence20FlashcardPersistence6update000jE0s0_0Bb_
FNDA:0,_RNCNCINvMNtNtCsjp8PXOiLT2t_8adapters6shared11persistenceNtB7_19PostgresPersistence16with_transactionNCNCNCNvXNtNtNtNtBb_10flashcards11persistence5impls26flashcard_persistence_implBS_NtNtNtNtCs9ngygJYhGyL_11application10flashcards6traits21flashcard_persistence20FlashcardPersistence6update000jE0s1_0Bb_
FNDA:0,_RNCNCINvMNtNtCsjp8PXOiLT2t_8adapters6shared11persistenceNtB7_19PostgresPersistence16with_transactionNCNCNCNvXNtNtNtNtBb_10flashcards11persistence5impls26flashcard_persistence_implBS_NtNtNtNtCs9ngygJYhGyL_11application10flashcards6traits21flashcard_persistence20FlashcardPersistence6update000jE0s_0Bb_
FNDA:0,_RNCNCINvMNtNtCsjp8PXOiLT2t_8adapters6shared11persistenceNtB7_19PostgresPersistence16with_transactionNCNCNCNvXNtNtNtNtBb_5tasks11persistence5impls21task_persistence_implBS_NtNtNtNtCs9ngygJYhGyL_11application5tasks6traits16task_persistence15TaskPersistence11create_task00s_0NtCsraHdjdGY3T_4uuid4UuidE00Bb_
FNDA:0,_RNCNCINvMNtNtCsjp8PXOiLT2t_8adapters6shared11persistenceNtB7_19PostgresPersistence16with_transactionNCNCNCNvXNtNtNtNtBb_5tasks11persistence5impls21task_persistence_implBS_NtNtNtNtCs9ngygJYhGyL_11application5tasks6traits16task_persistence15TaskPersistence11create_task00s_0NtCsraHdjdGY3T_4uuid4UuidE0s0_0Bb_
FNDA:0,_RNCNCINvMNtNtCsjp8PXOiLT2t_8adapters6shared11persistenceNtB7_19PostgresPersistence16with_transactionNCNCNCNvXNtNtNtNtBb_5tasks11persistence5impls21task_persistence_implBS_NtNtNtNtCs9ngygJYhGyL_11application5tasks6traits16task_persistence15TaskPersistence11create_task00s_0NtCsraHdjdGY3T_4uuid4UuidE0s1_0Bb_
FNDA:9,_RNCNCINvMNtNtCsjp8PXOiLT2t_8adapters6shared11persistenceNtB7_19PostgresPersistence16with_transactionNCNCNCNvXNtNtNtNtBb_5tasks11persistence5impls21task_persistence_implBS_NtNtNtNtCs9ngygJYhGyL_11application5tasks6traits16task_persistence15TaskPersistence11create_task00s_0NtCsraHdjdGY3T_4uuid4UuidE0s_0Bb_
FNDA:0,_RNCNCINvMNtNtCsjp8PXOiLT2t_8adapters6shared11persistenceNtB7_19PostgresPersistence16with_transactionNCNCNCNvXNtNtNtNtBb_5tasks11persistence5impls21task_persistence_implBS_NtNtNtNtCs9ngygJYhGyL_11application5tasks6traits16task_persistence15TaskPersistence11update_task00s_0NtNtNtNtCseoQRfqfIfnI_6domain5tasks8entities4task4TaskE00Bb_
FNDA:0,_RNCNCINvMNtNtCsjp8PXOiLT2t_8adapters6shared11persistenceNtB7_19PostgresPersistence16with_transactionNCNCNCNvXNtNtNtNtBb_5tasks11persistence5impls21task_persistence_implBS_NtNtNtNtCs9ngygJYhGyL_11application5tasks6traits16task_persistence15TaskPersistence11update_task00s_0NtNtNtNtCseoQRfqfIfnI_6domain5tasks8entities4task4TaskE0s0_0Bb_
FNDA:0,_RNCNCINvMNtNtCsjp8PXOiLT2t_8adapters6shared11persistenceNtB7_19PostgresPersistence16with_transactionNCNCNCNvXNtNtNtNtBb_5tasks11persistence5impls21task_persistence_implBS_NtNtNtNtCs9ngygJYhGyL_11application5tasks6traits16task_persistence15TaskPersistence11update_task00s_0NtNtNtNtCseoQRfqfIfnI_6domain5tasks8entities4task4TaskE0s1_0Bb_
FNDA:2,_RNCNCINvMNtNtCsjp8PXOiLT2t_8adapters6shared11persistenceNtB7_19PostgresPersistence16with_transactionNCNCNCNvXNtNtNtNtBb_5tasks11persistence5impls21task_persistence_implBS_NtNtNtNtCs9ngygJYhGyL_11application5tasks6traits16task_persistence15TaskPersistence11update_task00s_0NtNtNtNtCseoQRfqfIfnI_6domain5tasks8entities4task4TaskE0s_0Bb_
FNDA:0,_RNCNCINvMNtNtCsjp8PXOiLT2t_8adapters6shared11persistenceNtB7_19PostgresPersistence16with_transactionNCNCNCNvXNtNtNtNtBb_5tasks11persistence5impls21task_persistence_implBS_NtNtNtNtCs9ngygJYhGyL_11application5tasks6traits16task_persistence15TaskPersistence8find_all000INtNtCs1OjIl8oxbrv_5alloc3vec3VecNtNtNtNtCseoQRfqfIfnI_6domain5tasks8entities4task4TaskEE00Bb_
FNDA:0,_RNCNCINvMNtNtCsjp8PXOiLT2t_8adapters6shared11persistenceNtB7_19PostgresPersistence16with_transactionNCNCNCNvXNtNtNtNtBb_5tasks11persistence5impls21task_persistence_implBS_NtNtNtNtCs9ngygJYhGyL_11application5tasks6traits16task_persistence15TaskPersistence8find_all000INtNtCs1OjIl8oxbrv_5alloc3vec3VecNtNtNtNtCseoQRfqfIfnI_6domain5tasks8entities4task4TaskEE0s0_0Bb_
FNDA:0,_RNCNCINvMNtNtCsjp8PXOiLT2t_8adapters6shared11persistenceNtB7_19PostgresPersistence16with_transactionNCNCNCNvXNtNtNtNtBb_5tasks11persistence5impls21task_persistence_implBS_NtNtNtNtCs9ngygJYhGyL_11application5tasks6traits16task_persistence15TaskPersistence8find_all000INtNtCs1OjIl8oxbrv_5alloc3vec3VecNtNtNtNtCseoQRfqfIfnI_6domain5tasks8entities4task4TaskEE0s1_0Bb_
FNDA:8,_RNCNCINvMNtNtCsjp8PXOiLT2t_8adapters6shared11persistenceNtB7_19PostgresPersistence16with_transactionNCNCNCNvXNtNtNtNtBb_5tasks11persistence5impls21task_persistence_implBS_NtNtNtNtCs9ngygJYhGyL_11application5tasks6traits16task_persistence15TaskPersistence8find_all000INtNtCs1OjIl8oxbrv_5alloc3vec3VecNtNtNtNtCseoQRfqfIfnI_6domain5tasks8entities4task4TaskEE0s_0Bb_
FNDA:26,_RNvMNtNtCsjp8PXOiLT2t_8adapters6shared11persistenceNtB2_19PostgresPersistence3new
FNF:7
FNH:4
DA:20,50
DA:21,50
DA:22,50
DA:23,50
DA:24,50
DA:25,50
DA:27,38
DA:28,38
DA:29,38
DA:30,38
DA:31,38
DA:32,38
DA:33,38
DA:34,38
DA:35,38
DA:36,38
DA:38,38
DA:39,38
DA:40,38
DA:41,38
DA:42,38
BRF:0
BRH:0
LF:25
LH:22
end_of_record
SF:/Users/francescopiogaglione/projects/personal/focus_flow_workspace/focus_flow_cloud/backend/crates/adapters/src/shared/persistence/schema.rs
FN:60,_RNvMNtNtNtNtCsi6y5LRNeeCE_8adapters6shared11persistence6schema10categoriesNtB2_5table4star
FN:35,_RNvMNtNtNtNtCsi6y5LRNeeCE_8adapters6shared11persistence6schema10flashcardsNtB2_5table4star
FN:76,_RNvMNtNtNtNtCsi6y5LRNeeCE_8adapters6shared11persistence6schema13focus_sessionNtB2_5table4star
FN:150,_RNvMNtNtNtNtCsi6y5LRNeeCE_8adapters6shared11persistence6schema13user_settingsNtB2_5table4star
FN:46,_RNvMNtNtNtNtCsi6y5LRNeeCE_8adapters6shared11persistence6schema16__sqlx_migrationsNtB2_5table4star
FN:21,_RNvMNtNtNtNtCsi6y5LRNeeCE_8adapters6shared11persistence6schema17flashcard_foldersNtB2_5table4star
FN:87,_RNvMNtNtNtNtCsi6y5LRNeeCE_8adapters6shared11persistence6schema18push_subscriptionsNtB2_5table4star
FN:8,_RNvMNtNtNtNtCsi6y5LRNeeCE_8adapters6shared11persistence6schema22flashcard_folder_itemsNtB2_5table4star
FN:138,_RNvMNtNtNtNtCsi6y5LRNeeCE_8adapters6shared11persistence6schema5tasksNtB2_5table4star
FN:165,_RNvMNtNtNtNtCsi6y5LRNeeCE_8adapters6shared11persistence6schema5usersNtB2_5table4star
FN:116,_RNvMNtNtNtNtCsi6y5LRNeeCE_8adapters6shared11persistence6schema8subtasksNtB2_5table4star
FN:102,_RNvMNtNtNtNtCsi6y5LRNeeCE_8adapters6shared11persistence6schema9remindersNtB2_5table4star
FN:60,_RNvXININtNtNtNtCsi6y5LRNeeCE_8adapters6shared11persistence6schema10categoriess0_0pENtB5_5tableINtNtCs4ZchdTtfQ7h_6diesel13query_builder13QueryFragmentpE8walk_astBd_
FN:60,_RNvXININtNtNtNtCsi6y5LRNeeCE_8adapters6shared11persistence6schema10categoriessa_0ppENtB5_5tableINtNtNtNtCs4ZchdTtfQ7h_6diesel12query_source8aliasing18field_alias_mapper48FieldAliasMapperAssociatedTypesDisjointnessTrickB1k_ppE3mapBd_
FN:60,_RNvXININtNtNtNtCsi6y5LRNeeCE_8adapters6shared11persistence6schema10categoriessc_0pppENtB5_5tableINtNtNtCs4ZchdTtfQ7h_6diesel12query_source5joins6JoinToINtB1z_4JoinpppEE11join_targetBd_
FN:60,_RNvXININtNtNtNtCsi6y5LRNeeCE_8adapters6shared11persistence6schema10categoriessd_0ppENtB5_5tableINtNtNtCs4ZchdTtfQ7h_6diesel12query_source5joins6JoinToINtB1y_6JoinOnppEE11join_targetBd_
FN:60,_RNvXININtNtNtNtCsi6y5LRNeeCE_8adapters6shared11persistence6schema10categoriesse_0ppppppppENtB5_5tableINtNtNtCs4ZchdTtfQ7h_6diesel12query_source5joins6JoinToINtNtNtB1I_13query_builder16select_statement15SelectStatementINtNtB2z_11from_clause10FromClausepEpppppppEE11join_targetBd_
FN:60,_RNvXININtNtNtNtCsi6y5LRNeeCE_8adapters6shared11persistence6schema10categoriessf_0pppENtB5_5tableINtNtNtCs4ZchdTtfQ7h_6diesel12query_source5joins6JoinToINtNtNtNtB1D_13query_builder16select_statement5boxed20BoxedSelectStatementINtNtB2w_11from_clause10FromClausepEppEE11join_targetBd_
FN:60,_RNvXININtNtNtNtCsi6y5LRNeeCE_8adapters6shared11persistence6schema10categoriessg_0pENtB5_5tableINtNtNtCs4ZchdTtfQ7h_6diesel12query_source5joins6JoinToINtNtNtB1z_8aliasing5alias5AliaspEE11join_targetBd_
FN:60,_RNvXININtNtNtNtCsi6y5LRNeeCE_8adapters6shared11persistence6schema10categoriessh_0pENtB5_5tableINtNtCs4ZchdTtfQ7h_6diesel10insertable10InsertablepE6valuesBd_
FN:60,_RNvXININtNtNtNtCsi6y5LRNeeCE_8adapters6shared11persistence6schema10categoriessi_0pERNtB5_5tableINtNtCs4ZchdTtfQ7h_6diesel10insertable10InsertablepE6valuesBd_
FN:60,_RNvXININtNtNtNtCsi6y5LRNeeCE_8adapters6shared11persistence6schema10categoriessj_0pENtB5_5tableINtNtNtCs4ZchdTtfQ7h_6diesel12query_source5joins6JoinToINtNtNtNtB1B_2pg13query_builder4only4OnlypEE11join_targetBd_
FN:60,_RNvXININtNtNtNtCsi6y5LRNeeCE_8adapters6shared11persistence6schema10categoriessm_0ppENtB5_5tableINtNtNtCs4ZchdTtfQ7h_6diesel12query_source5joins6JoinToINtNtNtNtB1C_2pg13query_builder11tablesample11TablesampleppEE11join_targetBd_
FN:35,_RNvXININtNtNtNtCsi6y5LRNeeCE_8adapters6shared11persistence6schema10flashcardss0_0pENtB5_5tableINtNtCs4ZchdTtfQ7h_6diesel13query_builder13QueryFragmentpE8walk_astBd_
FN:35,_RNvXININtNtNtNtCsi6y5LRNeeCE_8adapters6shared11persistence6schema10flashcardssa_0ppENtB5_5tableINtNtNtNtCs4ZchdTtfQ7h_6diesel12query_source8aliasing18field_alias_mapper48FieldAliasMapperAssociatedTypesDisjointnessTrickB1k_ppE3mapBd_
FN:35,_RNvXININtNtNtNtCsi6y5LRNeeCE_8adapters6shared11persistence6schema10flashcardssc_0pppENtB5_5tableINtNtNtCs4ZchdTtfQ7h_6diesel12query_source5joins6JoinToINtB1z_4JoinpppEE11join_targetBd_
FN:35,_RNvXININtNtNtNtCsi6y5LRNeeCE_8adapters6shared11persistence6schema10flashcardssd_0ppENtB5_5tableINtNtNtCs4ZchdTtfQ7h_6diesel12query_source5joins6JoinToINtB1y_6JoinOnppEE11join_targetBd_
FN:35,_RNvXININtNtNtNtCsi6y5LRNeeCE_8adapters6shared11persistence6schema10flashcardsse_0ppppppppENtB5_5tableINtNtNtCs4ZchdTtfQ7h_6diesel12query_source5joins6JoinToINtNtNtB1I_13query_builder16select_statement15SelectStatementINtNtB2z_11from_clause10FromClausepEpppppppEE11join_targetBd_
FN:35,_RNvXININtNtNtNtCsi6y5LRNeeCE_8adapters6shared11persistence6schema10flashcardssf_0pppENtB5_5tableINtNtNtCs4ZchdTtfQ7h_6diesel12query_source5joins6JoinToINtNtNtNtB1D_13query_builder16select_statement5boxed20BoxedSelectStatementINtNtB2w_11from_clause10FromClausepEppEE11join_targetBd_
FN:35,_RNvXININtNtNtNtCsi6y5LRNeeCE_8adapters6shared11persistence6schema10flashcardssg_0pENtB5_5tableINtNtNtCs4ZchdTtfQ7h_6diesel12query_source5joins6JoinToINtNtNtB1z_8aliasing5alias5AliaspEE11join_targetBd_
FN:35,_RNvXININtNtNtNtCsi6y5LRNeeCE_8adapters6shared11persistence6schema10flashcardssh_0pENtB5_5tableINtNtCs4ZchdTtfQ7h_6diesel10insertable10InsertablepE6valuesBd_
FN:35,_RNvXININtNtNtNtCsi6y5LRNeeCE_8adapters6shared11persistence6schema10flashcardssi_0pERNtB5_5tableINtNtCs4ZchdTtfQ7h_6diesel10insertable10InsertablepE6valuesBd_
FN:35,_RNvXININtNtNtNtCsi6y5LRNeeCE_8adapters6shared11persistence6schema10flashcardssj_0pENtB5_5tableINtNtNtCs4ZchdTtfQ7h_6diesel12query_source5joins6JoinToINtNtNtNtB1B_2pg13query_builder4only4OnlypEE11join_targetBd_
FN:35,_RNvXININtNtNtNtCsi6y5LRNeeCE_8adapters6shared11persistence6schema10flashcardssm_0ppENtB5_5tableINtNtNtCs4ZchdTtfQ7h_6diesel12query_source5joins6JoinToINtNtNtNtB1C_2pg13query_builder11tablesample11TablesampleppEE11join_targetBd_
FN:76,_RNvXININtNtNtNtCsi6y5LRNeeCE_8adapters6shared11persistence6schema13focus_sessions0_0pENtB5_5tableINtNtCs4ZchdTtfQ7h_6diesel13query_builder13QueryFragmentpE8walk_astBd_
FN:76,_RNvXININtNtNtNtCsi6y5LRNeeCE_8adapters6shared11persistence6schema13focus_sessionsa_0ppENtB5_5tableINtNtNtNtCs4ZchdTtfQ7h_6diesel12query_source8aliasing18field_alias_mapper48FieldAliasMapperAssociatedTypesDisjointnessTrickB1n_ppE3mapBd_
FN:76,_RNvXININtNtNtNtCsi6y5LRNeeCE_8adapters6shared11persistence6schema13focus_sessionsc_0pppENtB5_5tableINtNtNtCs4ZchdTtfQ7h_6diesel12query_source5joins6JoinToINtB1C_4JoinpppEE11join_targetBd_
FN:76,_RNvXININtNtNtNtCsi6y5LRNeeCE_8adapters6shared11persistence6schema13focus_sessionsd_0ppENtB5_5tableINtNtNtCs4ZchdTtfQ7h_6diesel12query_source5joins6JoinToINtB1B_6JoinOnppEE11join_targetBd_
FN:76,_RNvXININtNtNtNtCsi6y5LRNeeCE_8adapters6shared11persistence6schema13focus_sessionse_0ppppppppENtB5_5tableINtNtNtCs4ZchdTtfQ7h_6diesel12query_source5joins6JoinToINtNtNtB1L_13query_builder16select_statement15SelectStatementINtNtB2C_11from_clause10FromClausepEpppppppEE11join_targetBd_
FN:76,_RNvXININtNtNtNtCsi6y5LRNeeCE_8adapters6shared11persistence6schema13focus_sessionsf_0pppENtB5_5tableINtNtNtCs4ZchdTtfQ7h_6diesel12query_source5joins6JoinToINtNtNtNtB1G_13query_builder16select_statement5boxed20BoxedSelectStatementINtNtB2z_11from_clause10FromClausepEppEE11join_targetBd_
FN:76,_RNvXININtNtNtNtCsi6y5LRNeeCE_8adapters6shared11persistence6schema13focus_sessionsg_0pENtB5_5tableINtNtNtCs4ZchdTtfQ7h_6diesel12query_source5joins6JoinToINtNtNtB1C_8aliasing5alias5AliaspEE11join_targetBd_
FN:76,_RNvXININtNtNtNtCsi6y5LRNeeCE_8adapters6shared11persistence6schema13focus_sessionsh_0pENtB5_5tableINtNtCs4ZchdTtfQ7h_6diesel10insertable10InsertablepE6valuesBd_
FN:76,_RNvXININtNtNtNtCsi6y5LRNeeCE_8adapters6shared11persistence6schema13focus_sessionsi_0pERNtB5_5tableINtNtCs4ZchdTtfQ7h_6diesel10insertable10InsertablepE6valuesBd_
FN:76,_RNvXININtNtNtNtCsi6y5LRNeeCE_8adapters6shared11persistence6schema13focus_sessionsj_0pENtB5_5tableINtNtNtCs4ZchdTtfQ7h_6diesel12query_source5joins6JoinToINtNtNtNtB1E_2pg13query_builder4only4OnlypEE11join_targetBd_
FN:76,_RNvXININtNtNtNtCsi6y5LRNeeCE_8adapters6shared11persistence6schema13focus_sessionsm_0ppENtB5_5tableINtNtNtCs4ZchdTtfQ7h_6diesel12query_source5joins6JoinToINtNtNtNtB1F_2pg13query_builder11tablesample11TablesampleppEE11join_targetBd_
FN:150,_RNvXININtNtNtNtCsi6y5LRNeeCE_8adapters6shared11persistence6schema13user_settingss0_0pENtB5_5tableINtNtCs4ZchdTtfQ7h_6diesel13query_builder13QueryFragmentpE8walk_astBd_
FN:150,_RNvXININtNtNtNtCsi6y5LRNeeCE_8adapters6shared11persistence6schema13user_settingssa_0ppENtB5_5tableINtNtNtNtCs4ZchdTtfQ7h_6diesel12query_source8aliasing18field_alias_mapper48FieldAliasMapperAssociatedTypesDisjointnessTrickB1n_ppE3mapBd_
FN:150,_RNvXININtNtNtNtCsi6y5LRNeeCE_8adapters6shared11persistence6schema13user_settingssc_0pppENtB5_5tableINtNtNtCs4ZchdTtfQ7h_6diesel12query_source5joins6JoinToINtB1C_4JoinpppEE11join_targetBd_
FN:150,_RNvXININtNtNtNtCsi6y5LRNeeCE_8adapters6shared11persistence6schema13user_settingssd_0ppENtB5_5tableINtNtNtCs4ZchdTtfQ7h_6diesel12query_source5joins6JoinToINtB1B_6JoinOnppEE11join_targetBd_
FN:150,_RNvXININtNtNtNtCsi6y5LRNeeCE_8adapters6shared11persistence6schema13user_settingsse_0ppppppppENtB5_5tableINtNtNtCs4ZchdTtfQ7h_6diesel12query_source5joins6JoinToINtNtNtB1L_13query_builder16select_statement15SelectStatementINtNtB2C_11from_clause10FromClausepEpppppppEE11join_targetBd_
FN:150,_RNvXININtNtNtNtCsi6y5LRNeeCE_8adapters6shared11persistence6schema13user_settingssf_0pppENtB5_5tableINtNtNtCs4ZchdTtfQ7h_6diesel12query_source5joins6JoinToINtNtNtNtB1G_13query_builder16select_statement5boxed20BoxedSelectStatementINtNtB2z_11from_clause10FromClausepEppEE11join_targetBd_
FN:150,_RNvXININtNtNtNtCsi6y5LRNeeCE_8adapters6shared11persistence6schema13user_settingssg_0pENtB5_5tableINtNtNtCs4ZchdTtfQ7h_6diesel12query_source5joins6JoinToINtNtNtB1C_8aliasing5alias5AliaspEE11join_targetBd_
FN:150,_RNvXININtNtNtNtCsi6y5LRNeeCE_8adapters6shared11persistence6schema13user_settingssh_0pENtB5_5tableINtNtCs4ZchdTtfQ7h_6diesel10insertable10InsertablepE6valuesBd_
FN:150,_RNvXININtNtNtNtCsi6y5LRNeeCE_8adapters6shared11persistence6schema13user_settingssi_0pERNtB5_5tableINtNtCs4ZchdTtfQ7h_6diesel10insertable10InsertablepE6valuesBd_
FN:150,_RNvXININtNtNtNtCsi6y5LRNeeCE_8adapters6shared11persistence6schema13user_settingssj_0pENtB5_5tableINtNtNtCs4ZchdTtfQ7h_6diesel12query_source5joins6JoinToINtNtNtNtB1E_2pg13query_builder4only4OnlypEE11join_targetBd_
FN:150,_RNvXININtNtNtNtCsi6y5LRNeeCE_8adapters6shared11persistence6schema13user_settingssm_0ppENtB5_5tableINtNtNtCs4ZchdTtfQ7h_6diesel12query_source5joins6JoinToINtNtNtNtB1F_2pg13query_builder11tablesample11TablesampleppEE11join_targetBd_
FN:46,_RNvXININtNtNtNtCsi6y5LRNeeCE_8adapters6shared11persistence6schema16__sqlx_migrationss0_0pENtB5_5tableINtNtCs4ZchdTtfQ7h_6diesel13query_builder13QueryFragmentpE8walk_astBd_
FN:46,_RNvXININtNtNtNtCsi6y5LRNeeCE_8adapters6shared11persistence6schema16__sqlx_migrationssa_0ppENtB5_5tableINtNtNtNtCs4ZchdTtfQ7h_6diesel12query_source8aliasing18field_alias_mapper48FieldAliasMapperAssociatedTypesDisjointnessTrickB1r_ppE3mapBd_
FN:46,_RNvXININtNtNtNtCsi6y5LRNeeCE_8adapters6shared11persistence6schema16__sqlx_migrationssc_0pppENtB5_5tableINtNtNtCs4ZchdTtfQ7h_6diesel12query_source5joins6JoinToINtB1G_4JoinpppEE11join_targetBd_
FN:46,_RNvXININtNtNtNtCsi6y5LRNeeCE_8adapters6shared11persistence6schema16__sqlx_migrationssd_0ppENtB5_5tableINtNtNtCs4ZchdTtfQ7h_6diesel12query_source5joins6JoinToINtB1F_6JoinOnppEE11join_targetBd_
FN:46,_RNvXININtNtNtNtCsi6y5LRNeeCE_8adapters6shared11persistence6schema16__sqlx_migrationsse_0ppppppppENtB5_5tableINtNtNtCs4ZchdTtfQ7h_6diesel12query_source5joins6JoinToINtNtNtB1P_13query_builder16select_statement15SelectStatementINtNtB2G_11from_clause10FromClausepEpppppppEE11join_targetBd_
FN:46,_RNvXININtNtNtNtCsi6y5LRNeeCE_8adapters6shared11persistence6schema16__sqlx_migrationssf_0pppENtB5_5tableINtNtNtCs4ZchdTtfQ7h_6diesel12query_source5joins6JoinToINtNtNtNtB1K_13query_builder16select_statement5boxed20BoxedSelectStatementINtNtB2D_11from_clause10FromClausepEppEE11join_targetBd_
FN:46,_RNvXININtNtNtNtCsi6y5LRNeeCE_8adapters6shared11persistence6schema16__sqlx_migrationssg_0pENtB5_5tableINtNtNtCs4ZchdTtfQ7h_6diesel12query_source5joins6JoinToINtNtNtB1G_8aliasing5alias5AliaspEE11join_targetBd_
FN:46,_RNvXININtNtNtNtCsi6y5LRNeeCE_8adapters6shared11persistence6schema16__sqlx_migrationssh_0pENtB5_5tableINtNtCs4ZchdTtfQ7h_6diesel10insertable10InsertablepE6valuesBd_
FN:46,_RNvXININtNtNtNtCsi6y5LRNeeCE_8adapters6shared11persistence6schema16__sqlx_migrationssi_0pERNtB5_5tableINtNtCs4ZchdTtfQ7h_6diesel10insertable10InsertablepE6valuesBd_
FN:46,_RNvXININtNtNtNtCsi6y5LRNeeCE_8adapters6shared11persistence6schema16__sqlx_migrationssj_0pENtB5_5tableINtNtNtCs4ZchdTtfQ7h_6diesel12query_source5joins6JoinToINtNtNtNtB1I_2pg13query_builder4only4OnlypEE11join_targetBd_
FN:46,_RNvXININtNtNtNtCsi6y5LRNeeCE_8adapters6shared11persistence6schema16__sqlx_migrationssm_0ppENtB5_5tableINtNtNtCs4ZchdTtfQ7h_6diesel12query_source5joins6JoinToINtNtNtNtB1J_2pg13query_builder11tablesample11TablesampleppEE11join_targetBd_
FN:21,_RNvXININtNtNtNtCsi6y5LRNeeCE_8adapters6shared11persistence6schema17flashcard_folderss0_0pENtB5_5tableINtNtCs4ZchdTtfQ7h_6diesel13query_builder13QueryFragmentpE8walk_astBd_
FN:21,_RNvXININtNtNtNtCsi6y5LRNeeCE_8adapters6shared11persistence6schema17flashcard_folderssa_0ppENtB5_5tableINtNtNtNtCs4ZchdTtfQ7h_6diesel12query_source8aliasing18field_alias_mapper48FieldAliasMapperAssociatedTypesDisjointnessTrickB1r_ppE3mapBd_
FN:21,_RNvXININtNtNtNtCsi6y5LRNeeCE_8adapters6shared11persistence6schema17flashcard_folderssc_0pppENtB5_5tableINtNtNtCs4ZchdTtfQ7h_6diesel12query_source5joins6JoinToINtB1G_4JoinpppEE11join_targetBd_
FN:21,_RNvXININtNtNtNtCsi6y5LRNeeCE_8adapters6shared11persistence6schema17flashcard_folderssd_0ppENtB5_5tableINtNtNtCs4ZchdTtfQ7h_6diesel12query_source5joins6JoinToINtB1F_6JoinOnppEE11join_targetBd_
FN:21,_RNvXININtNtNtNtCsi6y5LRNeeCE_8adapters6shared11persistence6schema17flashcard_foldersse_0ppppppppENtB5_5tableINtNtNtCs4ZchdTtfQ7h_6diesel12query_source5joins6JoinToINtNtNtB1P_13query_builder16select_statement15SelectStatementINtNtB2G_11from_clause10FromClausepEpppppppEE11join_targetBd_
FN:21,_RNvXININtNtNtNtCsi6y5LRNeeCE_8adapters6shared11persistence6schema17flashcard_folderssf_0pppENtB5_5tableINtNtNtCs4ZchdTtfQ7h_6diesel12query_source5joins6JoinToINtNtNtNtB1K_13query_builder16select_statement5boxed20BoxedSelectStatementINtNtB2D_11from_clause10FromClausepEppEE11join_targetBd_
FN:21,_RNvXININtNtNtNtCsi6y5LRNeeCE_8adapters6shared11persistence6schema17flashcard_folderssg_0pENtB5_5tableINtNtNtCs4ZchdTtfQ7h_6diesel12query_source5joins6JoinToINtNtNtB1G_8aliasing5alias5AliaspEE11join_targetBd_
FN:21,_RNvXININtNtNtNtCsi6y5LRNeeCE_8adapters6shared11persistence6schema17flashcard_folderssh_0pENtB5_5tableINtNtCs4ZchdTtfQ7h_6diesel10insertable10InsertablepE6valuesBd_
FN:21,_RNvXININtNtNtNtCsi6y5LRNeeCE_8adapters6shared11persistence6schema17flashcard_folderssi_0pERNtB5_5tableINtNtCs4ZchdTtfQ7h_6diesel10insertable10InsertablepE6valuesBd_
FN:21,_RNvXININtNtNtNtCsi6y5LRNeeCE_8adapters6shared11persistence6schema17flashcard_folderssj_0pENtB5_5tableINtNtNtCs4ZchdTtfQ7h_6diesel12query_source5joins6JoinToINtNtNtNtB1I_2pg13query_builder4only4OnlypEE11join_targetBd_
FN:21,_RNvXININtNtNtNtCsi6y5LRNeeCE_8adapters6shared11persistence6schema17flashcard_folderssm_0ppENtB5_5tableINtNtNtCs4ZchdTtfQ7h_6diesel12query_source5joins6JoinToINtNtNtNtB1J_2pg13query_builder11tablesample11TablesampleppEE11join_targetBd_
FN:87,_RNvXININtNtNtNtCsi6y5LRNeeCE_8adapters6shared11persistence6schema18push_subscriptionss0_0pENtB5_5tableINtNtCs4ZchdTtfQ7h_6diesel13query_builder13QueryFragmentpE8walk_astBd_
FN:87,_RNvXININtNtNtNtCsi6y5LRNeeCE_8adapters6shared11persistence6schema18push_subscriptionssa_0ppENtB5_5tableINtNtNtNtCs4ZchdTtfQ7h_6diesel12query_source8aliasing18field_alias_mapper48FieldAliasMapperAssociatedTypesDisjointnessTrickB1s_ppE3mapBd_
FN:87,_RNvXININtNtNtNtCsi6y5LRNeeCE_8adapters6shared11persistence6schema18push_subscriptionssc_0pppENtB5_5tableINtNtNtCs4ZchdTtfQ7h_6diesel12query_source5joins6JoinToINtB1H_4JoinpppEE11join_targetBd_
FN:87,_RNvXININtNtNtNtCsi6y5LRNeeCE_8adapters6shared11persistence6schema18push_subscriptionssd_0ppENtB5_5tableINtNtNtCs4ZchdTtfQ7h_6diesel12query_source5joins6JoinToINtB1G_6JoinOnppEE11join_targetBd_
FN:87,_RNvXININtNtNtNtCsi6y5LRNeeCE_8adapters6shared11persistence6schema18push_subscriptionsse_0ppppppppENtB5_5tableINtNtNtCs4ZchdTtfQ7h_6diesel12query_source5joins6JoinToINtNtNtB1Q_13query_builder16select_statement15SelectStatementINtNtB2H_11from_clause10FromClausepEpppppppEE11join_targetBd_
FN:87,_RNvXININtNtNtNtCsi6y5LRNeeCE_8adapters6shared11persistence6schema18push_subscriptionssf_0pppENtB5_5tableINtNtNtCs4ZchdTtfQ7h_6diesel12query_source5joins6JoinToINtNtNtNtB1L_13query_builder16select_statement5boxed20BoxedSelectStatementINtNtB2E_11from_clause10FromClausepEppEE11join_targetBd_
FN:87,_RNvXININtNtNtNtCsi6y5LRNeeCE_8adapters6shared11persistence6schema18push_subscriptionssg_0pENtB5_5tableINtNtNtCs4ZchdTtfQ7h_6diesel12query_source5joins6JoinToINtNtNtB1H_8aliasing5alias5AliaspEE11join_targetBd_
FN:87,_RNvXININtNtNtNtCsi6y5LRNeeCE_8adapters6shared11persistence6schema18push_subscriptionssh_0pENtB5_5tableINtNtCs4ZchdTtfQ7h_6diesel10insertable10InsertablepE6valuesBd_
FN:87,_RNvXININtNtNtNtCsi6y5LRNeeCE_8adapters6shared11persistence6schema18push_subscriptionssi_0pERNtB5_5tableINtNtCs4ZchdTtfQ7h_6diesel10insertable10InsertablepE6valuesBd_
FN:87,_RNvXININtNtNtNtCsi6y5LRNeeCE_8adapters6shared11persistence6schema18push_subscriptionssj_0pENtB5_5tableINtNtNtCs4ZchdTtfQ7h_6diesel12query_source5joins6JoinToINtNtNtNtB1J_2pg13query_builder4only4OnlypEE11join_targetBd_
FN:87,_RNvXININtNtNtNtCsi6y5LRNeeCE_8adapters6shared11persistence6schema18push_subscriptionssm_0ppENtB5_5tableINtNtNtCs4ZchdTtfQ7h_6diesel12query_source5joins6JoinToINtNtNtNtB1K_2pg13query_builder11tablesample11TablesampleppEE11join_targetBd_
FN:8,_RNvXININtNtNtNtCsi6y5LRNeeCE_8adapters6shared11persistence6schema22flashcard_folder_itemss0_0pENtB5_5tableINtNtCs4ZchdTtfQ7h_6diesel13query_builder13QueryFragmentpE8walk_astBd_
FN:8,_RNvXININtNtNtNtCsi6y5LRNeeCE_8adapters6shared11persistence6schema22flashcard_folder_itemssa_0ppENtB5_5tableINtNtNtNtCs4ZchdTtfQ7h_6diesel12query_source8aliasing18field_alias_mapper48FieldAliasMapperAssociatedTypesDisjointnessTrickB1w_ppE3mapBd_
FN:8,_RNvXININtNtNtNtCsi6y5LRNeeCE_8adapters6shared11persistence6schema22flashcard_folder_itemssc_0pppENtB5_5tableINtNtNtCs4ZchdTtfQ7h_6diesel12query_source5joins6JoinToINtB1L_4JoinpppEE11join_targetBd_
FN:8,_RNvXININtNtNtNtCsi6y5LRNeeCE_8adapters6shared11persistence6schema22flashcard_folder_itemssd_0ppENtB5_5tableINtNtNtCs4ZchdTtfQ7h_6diesel12query_source5joins6JoinToINtB1K_6JoinOnppEE11join_targetBd_
FN:8,_RNvXININtNtNtNtCsi6y5LRNeeCE_8adapters6shared11persistence6schema22flashcard_folder_itemsse_0ppppppppENtB5_5tableINtNtNtCs4ZchdTtfQ7h_6diesel12query_source5joins6JoinToINtNtNtB1U_13query_builder16select_statement15SelectStatementINtNtB2L_11from_clause10FromClausepEpppppppEE11join_targetBd_
FN:8,_RNvXININtNtNtNtCsi6y5LRNeeCE_8adapters6shared11persistence6schema22flashcard_folder_itemssf_0pppENtB5_5tableINtNtNtCs4ZchdTtfQ7h_6diesel12query_source5joins6JoinToINtNtNtNtB1P_13query_builder16select_statement5boxed20BoxedSelectStatementINtNtB2I_11from_clause10FromClausepEppEE11join_targetBd_
FN:8,_RNvXININtNtNtNtCsi6y5LRNeeCE_8adapters6shared11persistence6schema22flashcard_folder_itemssg_0pENtB5_5tableINtNtNtCs4ZchdTtfQ7h_6diesel12query_source5joins6JoinToINtNtNtB1L_8aliasing5alias5AliaspEE11join_targetBd_
FN:8,_RNvXININtNtNtNtCsi6y5LRNeeCE_8adapters6shared11persistence6schema22flashcard_folder_itemssh_0pENtB5_5tableINtNtCs4ZchdTtfQ7h_6diesel10insertable10InsertablepE6valuesBd_
FN:8,_RNvXININtNtNtNtCsi6y5LRNeeCE_8adapters6shared11persistence6schema22flashcard_folder_itemssi_0pERNtB5_5tableINtNtCs4ZchdTtfQ7h_6diesel10insertable10InsertablepE6valuesBd_
FN:8,_RNvXININtNtNtNtCsi6y5LRNeeCE_8adapters6shared11persistence6schema22flashcard_folder_itemssj_0pENtB5_5tableINtNtNtCs4ZchdTtfQ7h_6diesel12query_source5joins6JoinToINtNtNtNtB1N_2pg13query_builder4only4OnlypEE11join_targetBd_
FN:8,_RNvXININtNtNtNtCsi6y5LRNeeCE_8adapters6shared11persistence6schema22flashcard_folder_itemssm_0ppENtB5_5tableINtNtNtCs4ZchdTtfQ7h_6diesel12query_source5joins6JoinToINtNtNtNtB1O_2pg13query_builder11tablesample11TablesampleppEE11join_targetBd_
FN:138,_RNvXININtNtNtNtCsi6y5LRNeeCE_8adapters6shared11persistence6schema5taskss0_0pENtB5_5tableINtNtCs4ZchdTtfQ7h_6diesel13query_builder13QueryFragmentpE8walk_astBd_
FN:138,_RNvXININtNtNtNtCsi6y5LRNeeCE_8adapters6shared11persistence6schema5taskssa_0ppENtB5_5tableINtNtNtNtCs4ZchdTtfQ7h_6diesel12query_source8aliasing18field_alias_mapper48FieldAliasMapperAssociatedTypesDisjointnessTrickB1e_ppE3mapBd_
FN:138,_RNvXININtNtNtNtCsi6y5LRNeeCE_8adapters6shared11persistence6schema5taskssc_0pppENtB5_5tableINtNtNtCs4ZchdTtfQ7h_6diesel12query_source5joins6JoinToINtB1t_4JoinpppEE11join_targetBd_
FN:138,_RNvXININtNtNtNtCsi6y5LRNeeCE_8adapters6shared11persistence6schema5taskssd_0ppENtB5_5tableINtNtNtCs4ZchdTtfQ7h_6diesel12query_source5joins6JoinToINtB1s_6JoinOnppEE11join_targetBd_
FN:138,_RNvXININtNtNtNtCsi6y5LRNeeCE_8adapters6shared11persistence6schema5tasksse_0ppppppppENtB5_5tableINtNtNtCs4ZchdTtfQ7h_6diesel12query_source5joins6JoinToINtNtNtB1C_13query_builder16select_statement15SelectStatementINtNtB2t_11from_clause10FromClausepEpppppppEE11join_targetBd_
FN:138,_RNvXININtNtNtNtCsi6y5LRNeeCE_8adapters6shared11persistence6schema5taskssf_0pppENtB5_5tableINtNtNtCs4ZchdTtfQ7h_6diesel12query_source5joins6JoinToINtNtNtNtB1x_13query_builder16select_statement5boxed20BoxedSelectStatementINtNtB2q_11from_clause10FromClausepEppEE11join_targetBd_
FN:138,_RNvXININtNtNtNtCsi6y5LRNeeCE_8adapters6shared11persistence6schema5taskssg_0pENtB5_5tableINtNtNtCs4ZchdTtfQ7h_6diesel12query_source5joins6JoinToINtNtNtB1t_8aliasing5alias5AliaspEE11join_targetBd_
FN:138,_RNvXININtNtNtNtCsi6y5LRNeeCE_8adapters6shared11persistence6schema5taskssh_0pENtB5_5tableINtNtCs4ZchdTtfQ7h_6diesel10insertable10InsertablepE6valuesBd_
FN:138,_RNvXININtNtNtNtCsi6y5LRNeeCE_8adapters6shared11persistence6schema5taskssi_0pERNtB5_5tableINtNtCs4ZchdTtfQ7h_6diesel10insertable10InsertablepE6valuesBd_
FN:138,_RNvXININtNtNtNtCsi6y5LRNeeCE_8adapters6shared11persistence6schema5taskssj_0pENtB5_5tableINtNtNtCs4ZchdTtfQ7h_6diesel12query_source5joins6JoinToINtNtNtNtB1v_2pg13query_builder4only4OnlypEE11join_targetBd_
FN:138,_RNvXININtNtNtNtCsi6y5LRNeeCE_8adapters6shared11persistence6schema5taskssm_0ppENtB5_5tableINtNtNtCs4ZchdTtfQ7h_6diesel12query_source5joins6JoinToINtNtNtNtB1w_2pg13query_builder11tablesample11TablesampleppEE11join_targetBd_
FN:165,_RNvXININtNtNtNtCsi6y5LRNeeCE_8adapters6shared11persistence6schema5userss0_0pENtB5_5tableINtNtCs4ZchdTtfQ7h_6diesel13query_builder13QueryFragmentpE8walk_astBd_
FN:165,_RNvXININtNtNtNtCsi6y5LRNeeCE_8adapters6shared11persistence6schema5userssa_0ppENtB5_5tableINtNtNtNtCs4ZchdTtfQ7h_6diesel12query_source8aliasing18field_alias_mapper48FieldAliasMapperAssociatedTypesDisjointnessTrickB1e_ppE3mapBd_
FN:165,_RNvXININtNtNtNtCsi6y5LRNeeCE_8adapters6shared11persistence6schema5userssc_0pppENtB5_5tableINtNtNtCs4ZchdTtfQ7h_6diesel12query_source5joins6JoinToINtB1t_4JoinpppEE11join_targetBd_
FN:165,_RNvXININtNtNtNtCsi6y5LRNeeCE_8adapters6shared11persistence6schema5userssd_0ppENtB5_5tableINtNtNtCs4ZchdTtfQ7h_6diesel12query_source5joins6JoinToINtB1s_6JoinOnppEE11join_targetBd_
FN:165,_RNvXININtNtNtNtCsi6y5LRNeeCE_8adapters6shared11persistence6schema5usersse_0ppppppppENtB5_5tableINtNtNtCs4ZchdTtfQ7h_6diesel12query_source5joins6JoinToINtNtNtB1C_13query_builder16select_statement15SelectStatementINtNtB2t_11from_clause10FromClausepEpppppppEE11join_targetBd_
FN:165,_RNvXININtNtNtNtCsi6y5LRNeeCE_8adapters6shared11persistence6schema5userssf_0pppENtB5_5tableINtNtNtCs4ZchdTtfQ7h_6diesel12query_source5joins6JoinToINtNtNtNtB1x_13query_builder16select_statement5boxed20BoxedSelectStatementINtNtB2q_11from_clause10FromClausepEppEE11join_targetBd_
FN:165,_RNvXININtNtNtNtCsi6y5LRNeeCE_8adapters6shared11persistence6schema5userssg_0pENtB5_5tableINtNtNtCs4ZchdTtfQ7h_6diesel12query_source5joins6JoinToINtNtNtB1t_8aliasing5alias5AliaspEE11join_targetBd_
FN:165,_RNvXININtNtNtNtCsi6y5LRNeeCE_8adapters6shared11persistence6schema5userssh_0pENtB5_5tableINtNtCs4ZchdTtfQ7h_6diesel10insertable10InsertablepE6valuesBd_
FN:165,_RNvXININtNtNtNtCsi6y5LRNeeCE_8adapters6shared11persistence6schema5userssi_0pERNtB5_5tableINtNtCs4ZchdTtfQ7h_6diesel10insertable10InsertablepE6valuesBd_
FN:165,_RNvXININtNtNtNtCsi6y5LRNeeCE_8adapters6shared11persistence6schema5userssj_0pENtB5_5tableINtNtNtCs4ZchdTtfQ7h_6diesel12query_source5joins6JoinToINtNtNtNtB1v_2pg13query_builder4only4OnlypEE11join_targetBd_
FN:165,_RNvXININtNtNtNtCsi6y5LRNeeCE_8adapters6shared11persistence6schema5userssm_0ppENtB5_5tableINtNtNtCs4ZchdTtfQ7h_6diesel12query_source5joins6JoinToINtNtNtNtB1w_2pg13query_builder11tablesample11TablesampleppEE11join_targetBd_
FN:116,_RNvXININtNtNtNtCsi6y5LRNeeCE_8adapters6shared11persistence6schema8subtaskss0_0pENtB5_5tableINtNtCs4ZchdTtfQ7h_6diesel13query_builder13QueryFragmentpE8walk_astBd_
FN:116,_RNvXININtNtNtNtCsi6y5LRNeeCE_8adapters6shared11persistence6schema8subtaskssa_0ppENtB5_5tableINtNtNtNtCs4ZchdTtfQ7h_6diesel12query_source8aliasing18field_alias_mapper48FieldAliasMapperAssociatedTypesDisjointnessTrickB1h_ppE3mapBd_
FN:116,_RNvXININtNtNtNtCsi6y5LRNeeCE_8adapters6shared11persistence6schema8subtaskssc_0pppENtB5_5tableINtNtNtCs4ZchdTtfQ7h_6diesel12query_source5joins6JoinToINtB1w_4JoinpppEE11join_targetBd_
FN:116,_RNvXININtNtNtNtCsi6y5LRNeeCE_8adapters6shared11persistence6schema8subtaskssd_0ppENtB5_5tableINtNtNtCs4ZchdTtfQ7h_6diesel12query_source5joins6JoinToINtB1v_6JoinOnppEE11join_targetBd_
FN:116,_RNvXININtNtNtNtCsi6y5LRNeeCE_8adapters6shared11persistence6schema8subtasksse_0ppppppppENtB5_5tableINtNtNtCs4ZchdTtfQ7h_6diesel12query_source5joins6JoinToINtNtNtB1F_13query_builder16select_statement15SelectStatementINtNtB2w_11from_clause10FromClausepEpppppppEE11join_targetBd_
FN:116,_RNvXININtNtNtNtCsi6y5LRNeeCE_8adapters6shared11persistence6schema8subtaskssf_0pppENtB5_5tableINtNtNtCs4ZchdTtfQ7h_6diesel12query_source5joins6JoinToINtNtNtNtB1A_13query_builder16select_statement5boxed20BoxedSelectStatementINtNtB2t_11from_clause10FromClausepEppEE11join_targetBd_
FN:116,_RNvXININtNtNtNtCsi6y5LRNeeCE_8adapters6shared11persistence6schema8subtaskssg_0pENtB5_5tableINtNtNtCs4ZchdTtfQ7h_6diesel12query_source5joins6JoinToINtNtNtB1w_8aliasing5alias5AliaspEE11join_targetBd_
FN:116,_RNvXININtNtNtNtCsi6y5LRNeeCE_8adapters6shared11persistence6schema8subtaskssh_0pENtB5_5tableINtNtCs4ZchdTtfQ7h_6diesel10insertable10InsertablepE6valuesBd_
FN:116,_RNvXININtNtNtNtCsi6y5LRNeeCE_8adapters6shared11persistence6schema8subtaskssi_0pERNtB5_5tableINtNtCs4ZchdTtfQ7h_6diesel10insertable10InsertablepE6valuesBd_
FN:116,_RNvXININtNtNtNtCsi6y5LRNeeCE_8adapters6shared11persistence6schema8subtaskssj_0pENtB5_5tableINtNtNtCs4ZchdTtfQ7h_6diesel12query_source5joins6JoinToINtNtNtNtB1y_2pg13query_builder4only4OnlypEE11join_targetBd_
FN:116,_RNvXININtNtNtNtCsi6y5LRNeeCE_8adapters6shared11persistence6schema8subtaskssm_0ppENtB5_5tableINtNtNtCs4ZchdTtfQ7h_6diesel12query_source5joins6JoinToINtNtNtNtB1z_2pg13query_builder11tablesample11TablesampleppEE11join_targetBd_
FN:102,_RNvXININtNtNtNtCsi6y5LRNeeCE_8adapters6shared11persistence6schema9reminderss0_0pENtB5_5tableINtNtCs4ZchdTtfQ7h_6diesel13query_builder13QueryFragmentpE8walk_astBd_
FN:102,_RNvXININtNtNtNtCsi6y5LRNeeCE_8adapters6shared11persistence6schema9reminderssa_0ppENtB5_5tableINtNtNtNtCs4ZchdTtfQ7h_6diesel12query_source8aliasing18field_alias_mapper48FieldAliasMapperAssociatedTypesDisjointnessTrickB1i_ppE3mapBd_
FN:102,_RNvXININtNtNtNtCsi6y5LRNeeCE_8adapters6shared11persistence6schema9reminderssc_0pppENtB5_5tableINtNtNtCs4ZchdTtfQ7h_6diesel12query_source5joins6JoinToINtB1x_4JoinpppEE11join_targetBd_
FN:102,_RNvXININtNtNtNtCsi6y5LRNeeCE_8adapters6shared11persistence6schema9reminderssd_0ppENtB5_5tableINtNtNtCs4ZchdTtfQ7h_6diesel12query_source5joins6JoinToINtB1w_6JoinOnppEE11join_targetBd_
FN:102,_RNvXININtNtNtNtCsi6y5LRNeeCE_8adapters6shared11persistence6schema9remindersse_0ppppppppENtB5_5tableINtNtNtCs4ZchdTtfQ7h_6diesel12query_source5joins6JoinToINtNtNtB1G_13query_builder16select_statement15SelectStatementINtNtB2x_11from_clause10FromClausepEpppppppEE11join_targetBd_
FN:102,_RNvXININtNtNtNtCsi6y5LRNeeCE_8adapters6shared11persistence6schema9reminderssf_0pppENtB5_5tableINtNtNtCs4ZchdTtfQ7h_6diesel12query_source5joins6JoinToINtNtNtNtB1B_13query_builder16select_statement5boxed20BoxedSelectStatementINtNtB2u_11from_clause10FromClausepEppEE11join_targetBd_
FN:102,_RNvXININtNtNtNtCsi6y5LRNeeCE_8adapters6shared11persistence6schema9reminderssg_0pENtB5_5tableINtNtNtCs4ZchdTtfQ7h_6diesel12query_source5joins6JoinToINtNtNtB1x_8aliasing5alias5AliaspEE11join_targetBd_
FN:102,_RNvXININtNtNtNtCsi6y5LRNeeCE_8adapters6shared11persistence6schema9reminderssh_0pENtB5_5tableINtNtCs4ZchdTtfQ7h_6diesel10insertable10InsertablepE6valuesBd_
FN:102,_RNvXININtNtNtNtCsi6y5LRNeeCE_8adapters6shared11persistence6schema9reminderssi_0pERNtB5_5tableINtNtCs4ZchdTtfQ7h_6diesel10insertable10InsertablepE6valuesBd_
FN:102,_RNvXININtNtNtNtCsi6y5LRNeeCE_8adapters6shared11persistence6schema9reminderssj_0pENtB5_5tableINtNtNtCs4ZchdTtfQ7h_6diesel12query_source5joins6JoinToINtNtNtNtB1z_2pg13query_builder4only4OnlypEE11join_targetBd_
FN:102,_RNvXININtNtNtNtCsi6y5LRNeeCE_8adapters6shared11persistence6schema9reminderssm_0ppENtB5_5tableINtNtNtCs4ZchdTtfQ7h_6diesel12query_source5joins6JoinToINtNtNtNtB1A_2pg13query_builder11tablesample11TablesampleppEE11join_targetBd_
FN:60,_RNvXININtNtNtNtNtCsi6y5LRNeeCE_8adapters6shared11persistence6schema10categories7columnss0_0pENtB5_4starINtNtCs4ZchdTtfQ7h_6diesel13query_builder13QueryFragmentpE8walk_astBf_
FN:60,_RNvXININtNtNtNtNtCsi6y5LRNeeCE_8adapters6shared11persistence6schema10categories7columnss1H_0pENtB5_10updated_atINtNtNtCsl8K0bEFm1U0_4core3ops5arith3AddpE3addBf_
FN:60,_RNvXININtNtNtNtNtCsi6y5LRNeeCE_8adapters6shared11persistence6schema10categories7columnss1I_0pENtB5_10updated_atINtNtNtCsl8K0bEFm1U0_4core3ops5arith3SubpE3subBf_
FN:60,_RNvXININtNtNtNtNtCsi6y5LRNeeCE_8adapters6shared11persistence6schema10categories7columnss1o_0pENtB5_10created_atINtNtNtCsl8K0bEFm1U0_4core3ops5arith3AddpE3addBf_
FN:60,_RNvXININtNtNtNtNtCsi6y5LRNeeCE_8adapters6shared11persistence6schema10categories7columnss1p_0pENtB5_10created_atINtNtNtCsl8K0bEFm1U0_4core3ops5arith3SubpE3subBf_
FN:60,_RNvXININtNtNtNtNtCsi6y5LRNeeCE_8adapters6shared11persistence6schema10categories7columnss20_0pENtB5_10deleted_atINtNtNtCsl8K0bEFm1U0_4core3ops5arith3AddpE3addBf_
FN:60,_RNvXININtNtNtNtNtCsi6y5LRNeeCE_8adapters6shared11persistence6schema10categories7columnss21_0pENtB5_10deleted_atINtNtNtCsl8K0bEFm1U0_4core3ops5arith3SubpE3subBf_
FN:35,_RNvXININtNtNtNtNtCsi6y5LRNeeCE_8adapters6shared11persistence6schema10flashcards7columnss0_0pENtB5_4starINtNtCs4ZchdTtfQ7h_6diesel13query_builder13QueryFragmentpE8walk_astBf_
FN:35,_RNvXININtNtNtNtNtCsi6y5LRNeeCE_8adapters6shared11persistence6schema10flashcards7columnss1H_0pENtB5_10difficultyINtNtNtCsl8K0bEFm1U0_4core3ops5arith3AddpE3addBf_
FN:35,_RNvXININtNtNtNtNtCsi6y5LRNeeCE_8adapters6shared11persistence6schema10flashcards7columnss1I_0pENtB5_10difficultyINtNtNtCsl8K0bEFm1U0_4core3ops5arith3SubpE3subBf_
FN:35,_RNvXININtNtNtNtNtCsi6y5LRNeeCE_8adapters6shared11persistence6schema10flashcards7columnss1J_0pENtB5_10difficultyINtNtNtCsl8K0bEFm1U0_4core3ops5arith3DivpE3divBf_
FN:35,_RNvXININtNtNtNtNtCsi6y5LRNeeCE_8adapters6shared11persistence6schema10flashcards7columnss1K_0pENtB5_10difficultyINtNtNtCsl8K0bEFm1U0_4core3ops5arith3MulpE3mulBf_
FN:35,_RNvXININtNtNtNtNtCsi6y5LRNeeCE_8adapters6shared11persistence6schema10flashcards7columnss1m_0pENtB5_9stabilityINtNtNtCsl8K0bEFm1U0_4core3ops5arith3AddpE3addBf_
FN:35,_RNvXININtNtNtNtNtCsi6y5LRNeeCE_8adapters6shared11persistence6schema10flashcards7columnss1n_0pENtB5_9stabilityINtNtNtCsl8K0bEFm1U0_4core3ops5arith3SubpE3subBf_
FN:35,_RNvXININtNtNtNtNtCsi6y5LRNeeCE_8adapters6shared11persistence6schema10flashcards7columnss1o_0pENtB5_9stabilityINtNtNtCsl8K0bEFm1U0_4core3ops5arith3DivpE3divBf_
FN:35,_RNvXININtNtNtNtNtCsi6y5LRNeeCE_8adapters6shared11persistence6schema10flashcards7columnss1p_0pENtB5_9stabilityINtNtNtCsl8K0bEFm1U0_4core3ops5arith3MulpE3mulBf_
FN:35,_RNvXININtNtNtNtNtCsi6y5LRNeeCE_8adapters6shared11persistence6schema10flashcards7columnss22_0pENtB5_8due_dateINtNtNtCsl8K0bEFm1U0_4core3ops5arith3AddpE3addBf_
FN:35,_RNvXININtNtNtNtNtCsi6y5LRNeeCE_8adapters6shared11persistence6schema10flashcards7columnss23_0pENtB5_8due_dateINtNtNtCsl8K0bEFm1U0_4core3ops5arith3SubpE3subBf_
FN:35,_RNvXININtNtNtNtNtCsi6y5LRNeeCE_8adapters6shared11persistence6schema10flashcards7columnss2E_0pENtB5_10updated_atINtNtNtCsl8K0bEFm1U0_4core3ops5arith3AddpE3addBf_
FN:35,_RNvXININtNtNtNtNtCsi6y5LRNeeCE_8adapters6shared11persistence6schema10flashcards7columnss2F_0pENtB5_10updated_atINtNtNtCsl8K0bEFm1U0_4core3ops5arith3SubpE3subBf_
FN:35,_RNvXININtNtNtNtNtCsi6y5LRNeeCE_8adapters6shared11persistence6schema10flashcards7columnss2l_0pENtB5_10created_atINtNtNtCsl8K0bEFm1U0_4core3ops5arith3AddpE3addBf_
FN:35,_RNvXININtNtNtNtNtCsi6y5LRNeeCE_8adapters6shared11persistence6schema10flashcards7columnss2m_0pENtB5_10created_atINtNtNtCsl8K0bEFm1U0_4core3ops5arith3SubpE3subBf_
FN:76,_RNvXININtNtNtNtNtCsi6y5LRNeeCE_8adapters6shared11persistence6schema13focus_session7columnss0_0pENtB5_4starINtNtCs4ZchdTtfQ7h_6diesel13query_builder13QueryFragmentpE8walk_astBf_
FN:76,_RNvXININtNtNtNtNtCsi6y5LRNeeCE_8adapters6shared11persistence6schema13focus_session7columnss1I_0pENtB5_19concentration_scoreINtNtNtCsl8K0bEFm1U0_4core3ops5arith3AddpE3addBf_
FN:76,_RNvXININtNtNtNtNtCsi6y5LRNeeCE_8adapters6shared11persistence6schema13focus_session7columnss1J_0pENtB5_19concentration_scoreINtNtNtCsl8K0bEFm1U0_4core3ops5arith3SubpE3subBf_
FN:76,_RNvXININtNtNtNtNtCsi6y5LRNeeCE_8adapters6shared11persistence6schema13focus_session7columnss1K_0pENtB5_19concentration_scoreINtNtNtCsl8K0bEFm1U0_4core3ops5arith3DivpE3divBf_
FN:76,_RNvXININtNtNtNtNtCsi6y5LRNeeCE_8adapters6shared11persistence6schema13focus_session7columnss1L_0pENtB5_19concentration_scoreINtNtNtCsl8K0bEFm1U0_4core3ops5arith3MulpE3mulBf_
FN:76,_RNvXININtNtNtNtNtCsi6y5LRNeeCE_8adapters6shared11persistence6schema13focus_session7columnss1n_0pENtB5_15actual_durationINtNtNtCsl8K0bEFm1U0_4core3ops5arith3AddpE3addBf_
FN:76,_RNvXININtNtNtNtNtCsi6y5LRNeeCE_8adapters6shared11persistence6schema13focus_session7columnss1o_0pENtB5_15actual_durationINtNtNtCsl8K0bEFm1U0_4core3ops5arith3SubpE3subBf_
FN:76,_RNvXININtNtNtNtNtCsi6y5LRNeeCE_8adapters6shared11persistence6schema13focus_session7columnss1p_0pENtB5_15actual_durationINtNtNtCsl8K0bEFm1U0_4core3ops5arith3DivpE3divBf_
FN:76,_RNvXININtNtNtNtNtCsi6y5LRNeeCE_8adapters6shared11persistence6schema13focus_session7columnss1q_0pENtB5_15actual_durationINtNtNtCsl8K0bEFm1U0_4core3ops5arith3MulpE3mulBf_
FN:76,_RNvXININtNtNtNtNtCsi6y5LRNeeCE_8adapters6shared11persistence6schema13focus_session7columnss2D_0pENtB5_8ended_atINtNtNtCsl8K0bEFm1U0_4core3ops5arith3AddpE3addBf_
FN:76,_RNvXININtNtNtNtNtCsi6y5LRNeeCE_8adapters6shared11persistence6schema13focus_session7columnss2E_0pENtB5_8ended_atINtNtNtCsl8K0bEFm1U0_4core3ops5arith3SubpE3subBf_
FN:76,_RNvXININtNtNtNtNtCsi6y5LRNeeCE_8adapters6shared11persistence6schema13focus_session7columnss2W_0pENtB5_10created_atINtNtNtCsl8K0bEFm1U0_4core3ops5arith3AddpE3addBf_
FN:76,_RNvXININtNtNtNtNtCsi6y5LRNeeCE_8adapters6shared11persistence6schema13focus_session7columnss2X_0pENtB5_10created_atINtNtNtCsl8K0bEFm1U0_4core3ops5arith3SubpE3subBf_
FN:76,_RNvXININtNtNtNtNtCsi6y5LRNeeCE_8adapters6shared11persistence6schema13focus_session7columnss2k_0pENtB5_10started_atINtNtNtCsl8K0bEFm1U0_4core3ops5arith3AddpE3addBf_
FN:76,_RNvXININtNtNtNtNtCsi6y5LRNeeCE_8adapters6shared11persistence6schema13focus_session7columnss2l_0pENtB5_10started_atINtNtNtCsl8K0bEFm1U0_4core3ops5arith3SubpE3subBf_
FN:150,_RNvXININtNtNtNtNtCsi6y5LRNeeCE_8adapters6shared11persistence6schema13user_settings7columnss0_0pENtB5_4starINtNtCs4ZchdTtfQ7h_6diesel13query_builder13QueryFragmentpE8walk_astBf_
FN:150,_RNvXININtNtNtNtNtCsi6y5LRNeeCE_8adapters6shared11persistence6schema13user_settings7columnss1G_0pENtB5_10updated_atINtNtNtCsl8K0bEFm1U0_4core3ops5arith3AddpE3addBf_
FN:150,_RNvXININtNtNtNtNtCsi6y5LRNeeCE_8adapters6shared11persistence6schema13user_settings7columnss1H_0pENtB5_10updated_atINtNtNtCsl8K0bEFm1U0_4core3ops5arith3SubpE3subBf_
FN:150,_RNvXININtNtNtNtNtCsi6y5LRNeeCE_8adapters6shared11persistence6schema13user_settings7columnss1n_0pENtB5_10created_atINtNtNtCsl8K0bEFm1U0_4core3ops5arith3AddpE3addBf_
FN:150,_RNvXININtNtNtNtNtCsi6y5LRNeeCE_8adapters6shared11persistence6schema13user_settings7columnss1o_0pENtB5_10created_atINtNtNtCsl8K0bEFm1U0_4core3ops5arith3SubpE3subBf_
FN:46,_RNvXININtNtNtNtNtCsi6y5LRNeeCE_8adapters6shared11persistence6schema16__sqlx_migrations7columnss0_0pENtB5_4starINtNtCs4ZchdTtfQ7h_6diesel13query_builder13QueryFragmentpE8walk_astBf_
FN:46,_RNvXININtNtNtNtNtCsi6y5LRNeeCE_8adapters6shared11persistence6schema16__sqlx_migrations7columnss1J_0pENtB5_14execution_timeINtNtNtCsl8K0bEFm1U0_4core3ops5arith3AddpE3addBf_
FN:46,_RNvXININtNtNtNtNtCsi6y5LRNeeCE_8adapters6shared11persistence6schema16__sqlx_migrations7columnss1K_0pENtB5_14execution_timeINtNtNtCsl8K0bEFm1U0_4core3ops5arith3SubpE3subBf_
FN:46,_RNvXININtNtNtNtNtCsi6y5LRNeeCE_8adapters6shared11persistence6schema16__sqlx_migrations7columnss1L_0pENtB5_14execution_timeINtNtNtCsl8K0bEFm1U0_4core3ops5arith3DivpE3divBf_
FN:46,_RNvXININtNtNtNtNtCsi6y5LRNeeCE_8adapters6shared11persistence6schema16__sqlx_migrations7columnss1M_0pENtB5_14execution_timeINtNtNtCsl8K0bEFm1U0_4core3ops5arith3MulpE3mulBf_
FN:46,_RNvXININtNtNtNtNtCsi6y5LRNeeCE_8adapters6shared11persistence6schema16__sqlx_migrations7columnssS_0pENtB5_12installed_onINtNtNtCsl8K0bEFm1U0_4core3ops5arith3AddpE3addBf_
FN:46,_RNvXININtNtNtNtNtCsi6y5LRNeeCE_8adapters6shared11persistence6schema16__sqlx_migrations7columnssT_0pENtB5_12installed_onINtNtNtCsl8K0bEFm1U0_4core3ops5arith3SubpE3subBf_
FN:46,_RNvXININtNtNtNtNtCsi6y5LRNeeCE_8adapters6shared11persistence6schema16__sqlx_migrations7columnssg_0pENtB5_7versionINtNtNtCsl8K0bEFm1U0_4core3ops5arith3AddpE3addBf_
FN:46,_RNvXININtNtNtNtNtCsi6y5LRNeeCE_8adapters6shared11persistence6schema16__sqlx_migrations7columnssh_0pENtB5_7versionINtNtNtCsl8K0bEFm1U0_4core3ops5arith3SubpE3subBf_
FN:46,_RNvXININtNtNtNtNtCsi6y5LRNeeCE_8adapters6shared11persistence6schema16__sqlx_migrations7columnssi_0pENtB5_7versionINtNtNtCsl8K0bEFm1U0_4core3ops5arith3DivpE3divBf_
FN:46,_RNvXININtNtNtNtNtCsi6y5LRNeeCE_8adapters6shared11persistence6schema16__sqlx_migrations7columnssj_0pENtB5_7versionINtNtNtCsl8K0bEFm1U0_4core3ops5arith3MulpE3mulBf_
FN:21,_RNvXININtNtNtNtNtCsi6y5LRNeeCE_8adapters6shared11persistence6schema17flashcard_folders7columnss0_0pENtB5_4starINtNtCs4ZchdTtfQ7h_6diesel13query_builder13QueryFragmentpE8walk_astBf_
FN:21,_RNvXININtNtNtNtNtCsi6y5LRNeeCE_8adapters6shared11persistence6schema17flashcard_folders7columnss1E_0pENtB5_10created_atINtNtNtCsl8K0bEFm1U0_4core3ops5arith3AddpE3addBf_
FN:21,_RNvXININtNtNtNtNtCsi6y5LRNeeCE_8adapters6shared11persistence6schema17flashcard_folders7columnss1F_0pENtB5_10created_atINtNtNtCsl8K0bEFm1U0_4core3ops5arith3SubpE3subBf_
FN:21,_RNvXININtNtNtNtNtCsi6y5LRNeeCE_8adapters6shared11persistence6schema17flashcard_folders7columnss1X_0pENtB5_10updated_atINtNtNtCsl8K0bEFm1U0_4core3ops5arith3AddpE3addBf_
FN:21,_RNvXININtNtNtNtNtCsi6y5LRNeeCE_8adapters6shared11persistence6schema17flashcard_folders7columnss1Y_0pENtB5_10updated_atINtNtNtCsl8K0bEFm1U0_4core3ops5arith3SubpE3subBf_
FN:87,_RNvXININtNtNtNtNtCsi6y5LRNeeCE_8adapters6shared11persistence6schema18push_subscriptions7columnss0_0pENtB5_4starINtNtCs4ZchdTtfQ7h_6diesel13query_builder13QueryFragmentpE8walk_astBf_
FN:87,_RNvXININtNtNtNtNtCsi6y5LRNeeCE_8adapters6shared11persistence6schema18push_subscriptions7columnss1D_0pENtB5_10created_atINtNtNtCsl8K0bEFm1U0_4core3ops5arith3AddpE3addBf_
FN:87,_RNvXININtNtNtNtNtCsi6y5LRNeeCE_8adapters6shared11persistence6schema18push_subscriptions7columnss1E_0pENtB5_10created_atINtNtNtCsl8K0bEFm1U0_4core3ops5arith3SubpE3subBf_
FN:8,_RNvXININtNtNtNtNtCsi6y5LRNeeCE_8adapters6shared11persistence6schema22flashcard_folder_items7columnss0_0pENtB5_4starINtNtCs4ZchdTtfQ7h_6diesel13query_builder13QueryFragmentpE8walk_astBf_
FN:138,_RNvXININtNtNtNtNtCsi6y5LRNeeCE_8adapters6shared11persistence6schema5tasks7columnss0_0pENtB5_4starINtNtCs4ZchdTtfQ7h_6diesel13query_builder13QueryFragmentpE8walk_astBf_
FN:138,_RNvXININtNtNtNtNtCsi6y5LRNeeCE_8adapters6shared11persistence6schema5tasks7columnss1V_0pENtB5_14scheduled_dateINtNtNtCsl8K0bEFm1U0_4core3ops5arith3AddpE3addBf_
FN:138,_RNvXININtNtNtNtNtCsi6y5LRNeeCE_8adapters6shared11persistence6schema5tasks7columnss1W_0pENtB5_14scheduled_dateINtNtNtCsl8K0bEFm1U0_4core3ops5arith3SubpE3subBf_
FN:138,_RNvXININtNtNtNtNtCsi6y5LRNeeCE_8adapters6shared11persistence6schema5tasks7columnss2e_0pENtB5_10created_atINtNtNtCsl8K0bEFm1U0_4core3ops5arith3AddpE3addBf_
FN:138,_RNvXININtNtNtNtNtCsi6y5LRNeeCE_8adapters6shared11persistence6schema5tasks7columnss2f_0pENtB5_10created_atINtNtNtCsl8K0bEFm1U0_4core3ops5arith3SubpE3subBf_
FN:138,_RNvXININtNtNtNtNtCsi6y5LRNeeCE_8adapters6shared11persistence6schema5tasks7columnss2x_0pENtB5_12completed_atINtNtNtCsl8K0bEFm1U0_4core3ops5arith3AddpE3addBf_
FN:138,_RNvXININtNtNtNtNtCsi6y5LRNeeCE_8adapters6shared11persistence6schema5tasks7columnss2y_0pENtB5_12completed_atINtNtNtCsl8K0bEFm1U0_4core3ops5arith3SubpE3subBf_
FN:138,_RNvXININtNtNtNtNtCsi6y5LRNeeCE_8adapters6shared11persistence6schema5tasks7columnss38_0pENtB5_10deleted_atINtNtNtCsl8K0bEFm1U0_4core3ops5arith3AddpE3addBf_
FN:138,_RNvXININtNtNtNtNtCsi6y5LRNeeCE_8adapters6shared11persistence6schema5tasks7columnss39_0pENtB5_10deleted_atINtNtNtCsl8K0bEFm1U0_4core3ops5arith3SubpE3subBf_
FN:138,_RNvXININtNtNtNtNtCsi6y5LRNeeCE_8adapters6shared11persistence6schema5tasks7columnss3J_0pENtB5_21schedule_all_day_dateINtNtNtCsl8K0bEFm1U0_4core3ops5arith3AddpE3addBf_
FN:138,_RNvXININtNtNtNtNtCsi6y5LRNeeCE_8adapters6shared11persistence6schema5tasks7columnss3K_0pENtB5_21schedule_all_day_dateINtNtNtCsl8K0bEFm1U0_4core3ops5arith3SubpE3subBf_
FN:138,_RNvXININtNtNtNtNtCsi6y5LRNeeCE_8adapters6shared11persistence6schema5tasks7columnss42_0pENtB5_22schedule_duration_secsINtNtNtCsl8K0bEFm1U0_4core3ops5arith3AddpE3addBf_
FN:138,_RNvXININtNtNtNtNtCsi6y5LRNeeCE_8adapters6shared11persistence6schema5tasks7columnss43_0pENtB5_22schedule_duration_secsINtNtNtCsl8K0bEFm1U0_4core3ops5arith3SubpE3subBf_
FN:138,_RNvXININtNtNtNtNtCsi6y5LRNeeCE_8adapters6shared11persistence6schema5tasks7columnss44_0pENtB5_22schedule_duration_secsINtNtNtCsl8K0bEFm1U0_4core3ops5arith3DivpE3divBf_
FN:138,_RNvXININtNtNtNtNtCsi6y5LRNeeCE_8adapters6shared11persistence6schema5tasks7columnss45_0pENtB5_22schedule_duration_secsINtNtNtCsl8K0bEFm1U0_4core3ops5arith3MulpE3mulBf_
FN:165,_RNvXININtNtNtNtNtCsi6y5LRNeeCE_8adapters6shared11persistence6schema5users7columnss0_0pENtB5_4starINtNtCs4ZchdTtfQ7h_6diesel13query_builder13QueryFragmentpE8walk_astBf_
FN:165,_RNvXININtNtNtNtNtCsi6y5LRNeeCE_8adapters6shared11persistence6schema5users7columnss1I_0pENtB5_10updated_atINtNtNtCsl8K0bEFm1U0_4core3ops5arith3AddpE3addBf_
FN:165,_RNvXININtNtNtNtNtCsi6y5LRNeeCE_8adapters6shared11persistence6schema5users7columnss1J_0pENtB5_10updated_atINtNtNtCsl8K0bEFm1U0_4core3ops5arith3SubpE3subBf_
FN:165,_RNvXININtNtNtNtNtCsi6y5LRNeeCE_8adapters6shared11persistence6schema5users7columnss1p_0pENtB5_10created_atINtNtNtCsl8K0bEFm1U0_4core3ops5arith3AddpE3addBf_
FN:165,_RNvXININtNtNtNtNtCsi6y5LRNeeCE_8adapters6shared11persistence6schema5users7columnss1q_0pENtB5_10created_atINtNtNtCsl8K0bEFm1U0_4core3ops5arith3SubpE3subBf_
FN:165,_RNvXININtNtNtNtNtCsi6y5LRNeeCE_8adapters6shared11persistence6schema5users7columnss21_0pENtB5_10deleted_atINtNtNtCsl8K0bEFm1U0_4core3ops5arith3AddpE3addBf_
FN:165,_RNvXININtNtNtNtNtCsi6y5LRNeeCE_8adapters6shared11persistence6schema5users7columnss22_0pENtB5_10deleted_atINtNtNtCsl8K0bEFm1U0_4core3ops5arith3SubpE3subBf_
FN:116,_RNvXININtNtNtNtNtCsi6y5LRNeeCE_8adapters6shared11persistence6schema8subtasks7columnss0_0pENtB5_4starINtNtCs4ZchdTtfQ7h_6diesel13query_builder13QueryFragmentpE8walk_astBf_
FN:116,_RNvXININtNtNtNtNtCsi6y5LRNeeCE_8adapters6shared11persistence6schema8subtasks7columnss1E_0pENtB5_12completed_atINtNtNtCsl8K0bEFm1U0_4core3ops5arith3AddpE3addBf_
FN:116,_RNvXININtNtNtNtNtCsi6y5LRNeeCE_8adapters6shared11persistence6schema8subtasks7columnss1F_0pENtB5_12completed_atINtNtNtCsl8K0bEFm1U0_4core3ops5arith3SubpE3subBf_
FN:116,_RNvXININtNtNtNtNtCsi6y5LRNeeCE_8adapters6shared11persistence6schema8subtasks7columnss1X_0pENtB5_10sort_orderINtNtNtCsl8K0bEFm1U0_4core3ops5arith3AddpE3addBf_
FN:116,_RNvXININtNtNtNtNtCsi6y5LRNeeCE_8adapters6shared11persistence6schema8subtasks7columnss1Y_0pENtB5_10sort_orderINtNtNtCsl8K0bEFm1U0_4core3ops5arith3SubpE3subBf_
FN:116,_RNvXININtNtNtNtNtCsi6y5LRNeeCE_8adapters6shared11persistence6schema8subtasks7columnss1Z_0pENtB5_10sort_orderINtNtNtCsl8K0bEFm1U0_4core3ops5arith3DivpE3divBf_
FN:116,_RNvXININtNtNtNtNtCsi6y5LRNeeCE_8adapters6shared11persistence6schema8subtasks7columnss20_0pENtB5_10sort_orderINtNtNtCsl8K0bEFm1U0_4core3ops5arith3MulpE3mulBf_
FN:116,_RNvXININtNtNtNtNtCsi6y5LRNeeCE_8adapters6shared11persistence6schema8subtasks7columnss2i_0pENtB5_10created_atINtNtNtCsl8K0bEFm1U0_4core3ops5arith3AddpE3addBf_
FN:116,_RNvXININtNtNtNtNtCsi6y5LRNeeCE_8adapters6shared11persistence6schema8subtasks7columnss2j_0pENtB5_10created_atINtNtNtCsl8K0bEFm1U0_4core3ops5arith3SubpE3subBf_
FN:102,_RNvXININtNtNtNtNtCsi6y5LRNeeCE_8adapters6shared11persistence6schema9reminders7columnss0_0pENtB5_4starINtNtCs4ZchdTtfQ7h_6diesel13query_builder13QueryFragmentpE8walk_astBf_
FN:102,_RNvXININtNtNtNtNtCsi6y5LRNeeCE_8adapters6shared11persistence6schema9reminders7columnss1X_0pENtB5_10created_atINtNtNtCsl8K0bEFm1U0_4core3ops5arith3AddpE3addBf_
FN:102,_RNvXININtNtNtNtNtCsi6y5LRNeeCE_8adapters6shared11persistence6schema9reminders7columnss1Y_0pENtB5_10created_atINtNtNtCsl8K0bEFm1U0_4core3ops5arith3SubpE3subBf_
FN:102,_RNvXININtNtNtNtNtCsi6y5LRNeeCE_8adapters6shared11persistence6schema9reminders7columnss1n_0pENtB5_4dateINtNtNtCsl8K0bEFm1U0_4core3ops5arith3AddpE3addBf_
FN:102,_RNvXININtNtNtNtNtCsi6y5LRNeeCE_8adapters6shared11persistence6schema9reminders7columnss1o_0pENtB5_4dateINtNtNtCsl8K0bEFm1U0_4core3ops5arith3SubpE3subBf_
FN:102,_RNvXININtNtNtNtNtCsi6y5LRNeeCE_8adapters6shared11persistence6schema9reminders7columnss2g_0pENtB5_10updated_atINtNtNtCsl8K0bEFm1U0_4core3ops5arith3AddpE3addBf_
FN:102,_RNvXININtNtNtNtNtCsi6y5LRNeeCE_8adapters6shared11persistence6schema9reminders7columnss2h_0pENtB5_10updated_atINtNtNtCsl8K0bEFm1U0_4core3ops5arith3SubpE3subBf_
FN:60,_RNvXs2_NtNtNtNtCsi6y5LRNeeCE_8adapters6shared11persistence6schema10categoriesNtB5_5tableNtNtCs4ZchdTtfQ7h_6diesel13query_builder7AsQuery8as_query
FN:35,_RNvXs2_NtNtNtNtCsi6y5LRNeeCE_8adapters6shared11persistence6schema10flashcardsNtB5_5tableNtNtCs4ZchdTtfQ7h_6diesel13query_builder7AsQuery8as_query
FN:76,_RNvXs2_NtNtNtNtCsi6y5LRNeeCE_8adapters6shared11persistence6schema13focus_sessionNtB5_5tableNtNtCs4ZchdTtfQ7h_6diesel13query_builder7AsQuery8as_query
FN:150,_RNvXs2_NtNtNtNtCsi6y5LRNeeCE_8adapters6shared11persistence6schema13user_settingsNtB5_5tableNtNtCs4ZchdTtfQ7h_6diesel13query_builder7AsQuery8as_query
FN:46,_RNvXs2_NtNtNtNtCsi6y5LRNeeCE_8adapters6shared11persistence6schema16__sqlx_migrationsNtB5_5tableNtNtCs4ZchdTtfQ7h_6diesel13query_builder7AsQuery8as_query
FN:21,_RNvXs2_NtNtNtNtCsi6y5LRNeeCE_8adapters6shared11persistence6schema17flashcard_foldersNtB5_5tableNtNtCs4ZchdTtfQ7h_6diesel13query_builder7AsQuery8as_query
FN:8,_RNvXs2_NtNtNtNtCsi6y5LRNeeCE_8adapters6shared11persistence6schema22flashcard_folder_itemsNtB5_5tableNtNtCs4ZchdTtfQ7h_6diesel13query_builder7AsQuery8as_query
FN:138,_RNvXs2_NtNtNtNtCsi6y5LRNeeCE_8adapters6shared11persistence6schema5tasksNtB5_5tableNtNtCs4ZchdTtfQ7h_6diesel13query_builder7AsQuery8as_query
FN:116,_RNvXs2_NtNtNtNtCsi6y5LRNeeCE_8adapters6shared11persistence6schema8subtasksNtB5_5tableNtNtCs4ZchdTtfQ7h_6diesel13query_builder7AsQuery8as_query
FN:60,_RNvXs3_NtNtNtNtCsi6y5LRNeeCE_8adapters6shared11persistence6schema10categoriesNtB5_5tableNtNtCs4ZchdTtfQ7h_6diesel12query_source5Table11all_columns
FN:60,_RNvXs3_NtNtNtNtCsi6y5LRNeeCE_8adapters6shared11persistence6schema10categoriesNtB5_5tableNtNtCs4ZchdTtfQ7h_6diesel12query_source5Table11primary_key
FN:35,_RNvXs3_NtNtNtNtCsi6y5LRNeeCE_8adapters6shared11persistence6schema10flashcardsNtB5_5tableNtNtCs4ZchdTtfQ7h_6diesel12query_source5Table11all_columns
FN:35,_RNvXs3_NtNtNtNtCsi6y5LRNeeCE_8adapters6shared11persistence6schema10flashcardsNtB5_5tableNtNtCs4ZchdTtfQ7h_6diesel12query_source5Table11primary_key
FN:76,_RNvXs3_NtNtNtNtCsi6y5LRNeeCE_8adapters6shared11persistence6schema13focus_sessionNtB5_5tableNtNtCs4ZchdTtfQ7h_6diesel12query_source5Table11all_columns
FN:76,_RNvXs3_NtNtNtNtCsi6y5LRNeeCE_8adapters6shared11persistence6schema13focus_sessionNtB5_5tableNtNtCs4ZchdTtfQ7h_6diesel12query_source5Table11primary_key
FN:150,_RNvXs3_NtNtNtNtCsi6y5LRNeeCE_8adapters6shared11persistence6schema13user_settingsNtB5_5tableNtNtCs4ZchdTtfQ7h_6diesel12query_source5Table11all_columns
FN:150,_RNvXs3_NtNtNtNtCsi6y5LRNeeCE_8adapters6shared11persistence6schema13user_settingsNtB5_5tableNtNtCs4ZchdTtfQ7h_6diesel12query_source5Table11primary_key
FN:46,_RNvXs3_NtNtNtNtCsi6y5LRNeeCE_8adapters6shared11persistence6schema16__sqlx_migrationsNtB5_5tableNtNtCs4ZchdTtfQ7h_6diesel12query_source5Table11all_columns
FN:46,_RNvXs3_NtNtNtNtCsi6y5LRNeeCE_8adapters6shared11persistence6schema16__sqlx_migrationsNtB5_5tableNtNtCs4ZchdTtfQ7h_6diesel12query_source5Table11primary_key
FN:21,_RNvXs3_NtNtNtNtCsi6y5LRNeeCE_8adapters6shared11persistence6schema17flashcard_foldersNtB5_5tableNtNtCs4ZchdTtfQ7h_6diesel12query_source5Table11all_columns
FN:21,_RNvXs3_NtNtNtNtCsi6y5LRNeeCE_8adapters6shared11persistence6schema17flashcard_foldersNtB5_5tableNtNtCs4ZchdTtfQ7h_6diesel12query_source5Table11primary_key
FN:87,_RNvXs3_NtNtNtNtCsi6y5LRNeeCE_8adapters6shared11persistence6schema18push_subscriptionsNtB5_5tableNtNtCs4ZchdTtfQ7h_6diesel12query_source5Table11primary_key
FN:8,_RNvXs3_NtNtNtNtCsi6y5LRNeeCE_8adapters6shared11persistence6schema22flashcard_folder_itemsNtB5_5tableNtNtCs4ZchdTtfQ7h_6diesel12query_source5Table11all_columns
FN:8,_RNvXs3_NtNtNtNtCsi6y5LRNeeCE_8adapters6shared11persistence6schema22flashcard_folder_itemsNtB5_5tableNtNtCs4ZchdTtfQ7h_6diesel12query_source5Table11primary_key
FN:138,_RNvXs3_NtNtNtNtCsi6y5LRNeeCE_8adapters6shared11persistence6schema5tasksNtB5_5tableNtNtCs4ZchdTtfQ7h_6diesel12query_source5Table11all_columns
FN:138,_RNvXs3_NtNtNtNtCsi6y5LRNeeCE_8adapters6shared11persistence6schema5tasksNtB5_5tableNtNtCs4ZchdTtfQ7h_6diesel12query_source5Table11primary_key
FN:116,_RNvXs3_NtNtNtNtCsi6y5LRNeeCE_8adapters6shared11persistence6schema8subtasksNtB5_5tableNtNtCs4ZchdTtfQ7h_6diesel12query_source5Table11all_columns
FN:116,_RNvXs3_NtNtNtNtCsi6y5LRNeeCE_8adapters6shared11persistence6schema8subtasksNtB5_5tableNtNtCs4ZchdTtfQ7h_6diesel12query_source5Table11primary_key
FN:102,_RNvXs3_NtNtNtNtCsi6y5LRNeeCE_8adapters6shared11persistence6schema9remindersNtB5_5tableNtNtCs4ZchdTtfQ7h_6diesel12query_source5Table11primary_key
FN:60,_RNvXs4_NtNtNtNtCsi6y5LRNeeCE_8adapters6shared11persistence6schema10categoriesNtB5_5tableNtNtCs4ZchdTtfQ7h_6diesel12associations8HasTable5table
FN:35,_RNvXs4_NtNtNtNtCsi6y5LRNeeCE_8adapters6shared11persistence6schema10flashcardsNtB5_5tableNtNtCs4ZchdTtfQ7h_6diesel12associations8HasTable5table
FN:76,_RNvXs4_NtNtNtNtCsi6y5LRNeeCE_8adapters6shared11persistence6schema13focus_sessionNtB5_5tableNtNtCs4ZchdTtfQ7h_6diesel12associations8HasTable5table
FN:150,_RNvXs4_NtNtNtNtCsi6y5LRNeeCE_8adapters6shared11persistence6schema13user_settingsNtB5_5tableNtNtCs4ZchdTtfQ7h_6diesel12associations8HasTable5table
FN:46,_RNvXs4_NtNtNtNtCsi6y5LRNeeCE_8adapters6shared11persistence6schema16__sqlx_migrationsNtB5_5tableNtNtCs4ZchdTtfQ7h_6diesel12associations8HasTable5table
FN:21,_RNvXs4_NtNtNtNtCsi6y5LRNeeCE_8adapters6shared11persistence6schema17flashcard_foldersNtB5_5tableNtNtCs4ZchdTtfQ7h_6diesel12associations8HasTable5table
FN:8,_RNvXs4_NtNtNtNtCsi6y5LRNeeCE_8adapters6shared11persistence6schema22flashcard_folder_itemsNtB5_5tableNtNtCs4ZchdTtfQ7h_6diesel12associations8HasTable5table
FN:138,_RNvXs4_NtNtNtNtCsi6y5LRNeeCE_8adapters6shared11persistence6schema5tasksNtB5_5tableNtNtCs4ZchdTtfQ7h_6diesel12associations8HasTable5table
FN:116,_RNvXs4_NtNtNtNtCsi6y5LRNeeCE_8adapters6shared11persistence6schema8subtasksNtB5_5tableNtNtCs4ZchdTtfQ7h_6diesel12associations8HasTable5table
FN:60,_RNvXs5_NtNtNtNtCsi6y5LRNeeCE_8adapters6shared11persistence6schema10categoriesNtB5_5tableNtNtNtNtCs4ZchdTtfQ7h_6diesel13query_builder16update_statement6target16IntoUpdateTarget18into_update_target
FN:35,_RNvXs5_NtNtNtNtCsi6y5LRNeeCE_8adapters6shared11persistence6schema10flashcardsNtB5_5tableNtNtNtNtCs4ZchdTtfQ7h_6diesel13query_builder16update_statement6target16IntoUpdateTarget18into_update_target
FN:76,_RNvXs5_NtNtNtNtCsi6y5LRNeeCE_8adapters6shared11persistence6schema13focus_sessionNtB5_5tableNtNtNtNtCs4ZchdTtfQ7h_6diesel13query_builder16update_statement6target16IntoUpdateTarget18into_update_target
FN:150,_RNvXs5_NtNtNtNtCsi6y5LRNeeCE_8adapters6shared11persistence6schema13user_settingsNtB5_5tableNtNtNtNtCs4ZchdTtfQ7h_6diesel13query_builder16update_statement6target16IntoUpdateTarget18into_update_target
FN:46,_RNvXs5_NtNtNtNtCsi6y5LRNeeCE_8adapters6shared11persistence6schema16__sqlx_migrationsNtB5_5tableNtNtNtNtCs4ZchdTtfQ7h_6diesel13query_builder16update_statement6target16IntoUpdateTarget18into_update_target
FN:21,_RNvXs5_NtNtNtNtCsi6y5LRNeeCE_8adapters6shared11persistence6schema17flashcard_foldersNtB5_5tableNtNtNtNtCs4ZchdTtfQ7h_6diesel13query_builder16update_statement6target16IntoUpdateTarget18into_update_target
FN:87,_RNvXs5_NtNtNtNtCsi6y5LRNeeCE_8adapters6shared11persistence6schema18push_subscriptionsNtB5_5tableNtNtNtNtCs4ZchdTtfQ7h_6diesel13query_builder16update_statement6target16IntoUpdateTarget18into_update_target
FN:8,_RNvXs5_NtNtNtNtCsi6y5LRNeeCE_8adapters6shared11persistence6schema22flashcard_folder_itemsNtB5_5tableNtNtNtNtCs4ZchdTtfQ7h_6diesel13query_builder16update_statement6target16IntoUpdateTarget18into_update_target
FN:138,_RNvXs5_NtNtNtNtCsi6y5LRNeeCE_8adapters6shared11persistence6schema5tasksNtB5_5tableNtNtNtNtCs4ZchdTtfQ7h_6diesel13query_builder16update_statement6target16IntoUpdateTarget18into_update_target
FN:116,_RNvXs5_NtNtNtNtCsi6y5LRNeeCE_8adapters6shared11persistence6schema8subtasksNtB5_5tableNtNtNtNtCs4ZchdTtfQ7h_6diesel13query_builder16update_statement6target16IntoUpdateTarget18into_update_target
FN:102,_RNvXs5_NtNtNtNtCsi6y5LRNeeCE_8adapters6shared11persistence6schema9remindersNtB5_5tableNtNtNtNtCs4ZchdTtfQ7h_6diesel13query_builder16update_statement6target16IntoUpdateTarget18into_update_target
FN:60,_RNvXs_NtNtNtNtCsi6y5LRNeeCE_8adapters6shared11persistence6schema10categoriesNtB4_5tableNtNtCs4ZchdTtfQ7h_6diesel12query_source11QuerySource11from_clause
FN:60,_RNvXs_NtNtNtNtCsi6y5LRNeeCE_8adapters6shared11persistence6schema10categoriesNtB4_5tableNtNtCs4ZchdTtfQ7h_6diesel12query_source11QuerySource17default_selection
FN:35,_RNvXs_NtNtNtNtCsi6y5LRNeeCE_8adapters6shared11persistence6schema10flashcardsNtB4_5tableNtNtCs4ZchdTtfQ7h_6diesel12query_source11QuerySource11from_clause
FN:35,_RNvXs_NtNtNtNtCsi6y5LRNeeCE_8adapters6shared11persistence6schema10flashcardsNtB4_5tableNtNtCs4ZchdTtfQ7h_6diesel12query_source11QuerySource17default_selection
FN:76,_RNvXs_NtNtNtNtCsi6y5LRNeeCE_8adapters6shared11persistence6schema13focus_sessionNtB4_5tableNtNtCs4ZchdTtfQ7h_6diesel12query_source11QuerySource11from_clause
FN:76,_RNvXs_NtNtNtNtCsi6y5LRNeeCE_8adapters6shared11persistence6schema13focus_sessionNtB4_5tableNtNtCs4ZchdTtfQ7h_6diesel12query_source11QuerySource17default_selection
FN:150,_RNvXs_NtNtNtNtCsi6y5LRNeeCE_8adapters6shared11persistence6schema13user_settingsNtB4_5tableNtNtCs4ZchdTtfQ7h_6diesel12query_source11QuerySource11from_clause
FN:150,_RNvXs_NtNtNtNtCsi6y5LRNeeCE_8adapters6shared11persistence6schema13user_settingsNtB4_5tableNtNtCs4ZchdTtfQ7h_6diesel12query_source11QuerySource17default_selection
FN:46,_RNvXs_NtNtNtNtCsi6y5LRNeeCE_8adapters6shared11persistence6schema16__sqlx_migrationsNtB4_5tableNtNtCs4ZchdTtfQ7h_6diesel12query_source11QuerySource11from_clause
FN:46,_RNvXs_NtNtNtNtCsi6y5LRNeeCE_8adapters6shared11persistence6schema16__sqlx_migrationsNtB4_5tableNtNtCs4ZchdTtfQ7h_6diesel12query_source11QuerySource17default_selection
FN:21,_RNvXs_NtNtNtNtCsi6y5LRNeeCE_8adapters6shared11persistence6schema17flashcard_foldersNtB4_5tableNtNtCs4ZchdTtfQ7h_6diesel12query_source11QuerySource11from_clause
FN:21,_RNvXs_NtNtNtNtCsi6y5LRNeeCE_8adapters6shared11persistence6schema17flashcard_foldersNtB4_5tableNtNtCs4ZchdTtfQ7h_6diesel12query_source11QuerySource17default_selection
FN:8,_RNvXs_NtNtNtNtCsi6y5LRNeeCE_8adapters6shared11persistence6schema22flashcard_folder_itemsNtB4_5tableNtNtCs4ZchdTtfQ7h_6diesel12query_source11QuerySource11from_clause
FN:8,_RNvXs_NtNtNtNtCsi6y5LRNeeCE_8adapters6shared11persistence6schema22flashcard_folder_itemsNtB4_5tableNtNtCs4ZchdTtfQ7h_6diesel12query_source11QuerySource17default_selection
FN:138,_RNvXs_NtNtNtNtCsi6y5LRNeeCE_8adapters6shared11persistence6schema5tasksNtB4_5tableNtNtCs4ZchdTtfQ7h_6diesel12query_source11QuerySource11from_clause
FN:138,_RNvXs_NtNtNtNtCsi6y5LRNeeCE_8adapters6shared11persistence6schema5tasksNtB4_5tableNtNtCs4ZchdTtfQ7h_6diesel12query_source11QuerySource17default_selection
FN:116,_RNvXs_NtNtNtNtCsi6y5LRNeeCE_8adapters6shared11persistence6schema8subtasksNtB4_5tableNtNtCs4ZchdTtfQ7h_6diesel12query_source11QuerySource11from_clause
FN:116,_RNvXs_NtNtNtNtCsi6y5LRNeeCE_8adapters6shared11persistence6schema8subtasksNtB4_5tableNtNtCs4ZchdTtfQ7h_6diesel12query_source11QuerySource17default_selection
FN:165,_RNvXs2_NtNtNtNtCsi6y5LRNeeCE_8adapters6shared11persistence6schema5usersNtB5_5tableNtNtCs4ZchdTtfQ7h_6diesel13query_builder7AsQuery8as_query
FN:165,_RNvXs3_NtNtNtNtCsi6y5LRNeeCE_8adapters6shared11persistence6schema5usersNtB5_5tableNtNtCs4ZchdTtfQ7h_6diesel12query_source5Table11all_columns
FN:165,_RNvXs3_NtNtNtNtCsi6y5LRNeeCE_8adapters6shared11persistence6schema5usersNtB5_5tableNtNtCs4ZchdTtfQ7h_6diesel12query_source5Table11primary_key
FN:165,_RNvXs4_NtNtNtNtCsi6y5LRNeeCE_8adapters6shared11persistence6schema5usersNtB5_5tableNtNtCs4ZchdTtfQ7h_6diesel12associations8HasTable5table
FN:165,_RNvXs5_NtNtNtNtCsi6y5LRNeeCE_8adapters6shared11persistence6schema5usersNtB5_5tableNtNtNtNtCs4ZchdTtfQ7h_6diesel13query_builder16update_statement6target16IntoUpdateTarget18into_update_target
FN:165,_RNvXs_NtNtNtNtCsi6y5LRNeeCE_8adapters6shared11persistence6schema5usersNtB4_5tableNtNtCs4ZchdTtfQ7h_6diesel12query_source11QuerySource11from_clause
FN:165,_RNvXs_NtNtNtNtCsi6y5LRNeeCE_8adapters6shared11persistence6schema5usersNtB4_5tableNtNtCs4ZchdTtfQ7h_6diesel12query_source11QuerySource17default_selection
FN:87,_RNvXs2_NtNtNtNtCsi6y5LRNeeCE_8adapters6shared11persistence6schema18push_subscriptionsNtB5_5tableNtNtCs4ZchdTtfQ7h_6diesel13query_builder7AsQuery8as_query
FN:87,_RNvXs3_NtNtNtNtCsi6y5LRNeeCE_8adapters6shared11persistence6schema18push_subscriptionsNtB5_5tableNtNtCs4ZchdTtfQ7h_6diesel12query_source5Table11all_columns
FN:87,_RNvXs4_NtNtNtNtCsi6y5LRNeeCE_8adapters6shared11persistence6schema18push_subscriptionsNtB5_5tableNtNtCs4ZchdTtfQ7h_6diesel12associations8HasTable5table
FN:87,_RNvXs_NtNtNtNtCsi6y5LRNeeCE_8adapters6shared11persistence6schema18push_subscriptionsNtB4_5tableNtNtCs4ZchdTtfQ7h_6diesel12query_source11QuerySource11from_clause
FN:87,_RNvXs_NtNtNtNtCsi6y5LRNeeCE_8adapters6shared11persistence6schema18push_subscriptionsNtB4_5tableNtNtCs4ZchdTtfQ7h_6diesel12query_source11QuerySource17default_selection
FN:102,_RNvXs2_NtNtNtNtCsi6y5LRNeeCE_8adapters6shared11persistence6schema9remindersNtB5_5tableNtNtCs4ZchdTtfQ7h_6diesel13query_builder7AsQuery8as_query
FN:102,_RNvXs3_NtNtNtNtCsi6y5LRNeeCE_8adapters6shared11persistence6schema9remindersNtB5_5tableNtNtCs4ZchdTtfQ7h_6diesel12query_source5Table11all_columns
FN:102,_RNvXs4_NtNtNtNtCsi6y5LRNeeCE_8adapters6shared11persistence6schema9remindersNtB5_5tableNtNtCs4ZchdTtfQ7h_6diesel12associations8HasTable5table
FN:102,_RNvXs_NtNtNtNtCsi6y5LRNeeCE_8adapters6shared11persistence6schema9remindersNtB4_5tableNtNtCs4ZchdTtfQ7h_6diesel12query_source11QuerySource11from_clause
FN:102,_RNvXs_NtNtNtNtCsi6y5LRNeeCE_8adapters6shared11persistence6schema9remindersNtB4_5tableNtNtCs4ZchdTtfQ7h_6diesel12query_source11QuerySource17default_selection
FN:8,_RNvMNtNtNtNtCsjp8PXOiLT2t_8adapters6shared11persistence6schema22flashcard_folder_itemsNtB2_5table4star
FN:8,_RNvXs2_NtNtNtNtCsjp8PXOiLT2t_8adapters6shared11persistence6schema22flashcard_folder_itemsNtB5_5tableNtNtCs4ZchdTtfQ7h_6diesel13query_builder7AsQuery8as_query
FN:8,_RNvXs3_NtNtNtNtCsjp8PXOiLT2t_8adapters6shared11persistence6schema22flashcard_folder_itemsNtB5_5tableNtNtCs4ZchdTtfQ7h_6diesel12query_source5Table11all_columns
FN:8,_RNvXs3_NtNtNtNtCsjp8PXOiLT2t_8adapters6shared11persistence6schema22flashcard_folder_itemsNtB5_5tableNtNtCs4ZchdTtfQ7h_6diesel12query_source5Table11primary_key
FN:8,_RNvXs4_NtNtNtNtCsjp8PXOiLT2t_8adapters6shared11persistence6schema22flashcard_folder_itemsNtB5_5tableNtNtCs4ZchdTtfQ7h_6diesel12associations8HasTable5table
FN:8,_RNvXs5_NtNtNtNtCsjp8PXOiLT2t_8adapters6shared11persistence6schema22flashcard_folder_itemsNtB5_5tableNtNtNtNtCs4ZchdTtfQ7h_6diesel13query_builder16update_statement6target16IntoUpdateTarget18into_update_target
FN:8,_RNvXs_NtNtNtNtCsjp8PXOiLT2t_8adapters6shared11persistence6schema22flashcard_folder_itemsNtB4_5tableNtNtCs4ZchdTtfQ7h_6diesel12query_source11QuerySource11from_clause
FN:8,_RNvXs_NtNtNtNtCsjp8PXOiLT2t_8adapters6shared11persistence6schema22flashcard_folder_itemsNtB4_5tableNtNtCs4ZchdTtfQ7h_6diesel12query_source11QuerySource17default_selection
FN:60,_RNvXININtNtNtNtCsjp8PXOiLT2t_8adapters6shared11persistence6schema10categoriess0_0pENtB5_5tableINtNtCs4ZchdTtfQ7h_6diesel13query_builder13QueryFragmentpE8walk_astBd_
FN:60,_RNvXININtNtNtNtCsjp8PXOiLT2t_8adapters6shared11persistence6schema10categoriessa_0ppENtB5_5tableINtNtNtNtCs4ZchdTtfQ7h_6diesel12query_source8aliasing18field_alias_mapper48FieldAliasMapperAssociatedTypesDisjointnessTrickB1k_ppE3mapBd_
FN:60,_RNvXININtNtNtNtCsjp8PXOiLT2t_8adapters6shared11persistence6schema10categoriessc_0pppENtB5_5tableINtNtNtCs4ZchdTtfQ7h_6diesel12query_source5joins6JoinToINtB1z_4JoinpppEE11join_targetBd_
FN:60,_RNvXININtNtNtNtCsjp8PXOiLT2t_8adapters6shared11persistence6schema10categoriessd_0ppENtB5_5tableINtNtNtCs4ZchdTtfQ7h_6diesel12query_source5joins6JoinToINtB1y_6JoinOnppEE11join_targetBd_
FN:60,_RNvXININtNtNtNtCsjp8PXOiLT2t_8adapters6shared11persistence6schema10categoriesse_0ppppppppENtB5_5tableINtNtNtCs4ZchdTtfQ7h_6diesel12query_source5joins6JoinToINtNtNtB1I_13query_builder16select_statement15SelectStatementINtNtB2z_11from_clause10FromClausepEpppppppEE11join_targetBd_
FN:60,_RNvXININtNtNtNtCsjp8PXOiLT2t_8adapters6shared11persistence6schema10categoriessf_0pppENtB5_5tableINtNtNtCs4ZchdTtfQ7h_6diesel12query_source5joins6JoinToINtNtNtNtB1D_13query_builder16select_statement5boxed20BoxedSelectStatementINtNtB2w_11from_clause10FromClausepEppEE11join_targetBd_
FN:60,_RNvXININtNtNtNtCsjp8PXOiLT2t_8adapters6shared11persistence6schema10categoriessg_0pENtB5_5tableINtNtNtCs4ZchdTtfQ7h_6diesel12query_source5joins6JoinToINtNtNtB1z_8aliasing5alias5AliaspEE11join_targetBd_
FN:60,_RNvXININtNtNtNtCsjp8PXOiLT2t_8adapters6shared11persistence6schema10categoriessh_0pENtB5_5tableINtNtCs4ZchdTtfQ7h_6diesel10insertable10InsertablepE6valuesBd_
FN:60,_RNvXININtNtNtNtCsjp8PXOiLT2t_8adapters6shared11persistence6schema10categoriessi_0pERNtB5_5tableINtNtCs4ZchdTtfQ7h_6diesel10insertable10InsertablepE6valuesBd_
FN:60,_RNvXININtNtNtNtCsjp8PXOiLT2t_8adapters6shared11persistence6schema10categoriessj_0pENtB5_5tableINtNtNtCs4ZchdTtfQ7h_6diesel12query_source5joins6JoinToINtNtNtNtB1B_2pg13query_builder4only4OnlypEE11join_targetBd_
FN:60,_RNvXININtNtNtNtCsjp8PXOiLT2t_8adapters6shared11persistence6schema10categoriessm_0ppENtB5_5tableINtNtNtCs4ZchdTtfQ7h_6diesel12query_source5joins6JoinToINtNtNtNtB1C_2pg13query_builder11tablesample11TablesampleppEE11join_targetBd_
FN:35,_RNvXININtNtNtNtCsjp8PXOiLT2t_8adapters6shared11persistence6schema10flashcardss0_0pENtB5_5tableINtNtCs4ZchdTtfQ7h_6diesel13query_builder13QueryFragmentpE8walk_astBd_
FN:35,_RNvXININtNtNtNtCsjp8PXOiLT2t_8adapters6shared11persistence6schema10flashcardssa_0ppENtB5_5tableINtNtNtNtCs4ZchdTtfQ7h_6diesel12query_source8aliasing18field_alias_mapper48FieldAliasMapperAssociatedTypesDisjointnessTrickB1k_ppE3mapBd_
FN:35,_RNvXININtNtNtNtCsjp8PXOiLT2t_8adapters6shared11persistence6schema10flashcardssc_0pppENtB5_5tableINtNtNtCs4ZchdTtfQ7h_6diesel12query_source5joins6JoinToINtB1z_4JoinpppEE11join_targetBd_
FN:35,_RNvXININtNtNtNtCsjp8PXOiLT2t_8adapters6shared11persistence6schema10flashcardssd_0ppENtB5_5tableINtNtNtCs4ZchdTtfQ7h_6diesel12query_source5joins6JoinToINtB1y_6JoinOnppEE11join_targetBd_
FN:35,_RNvXININtNtNtNtCsjp8PXOiLT2t_8adapters6shared11persistence6schema10flashcardsse_0ppppppppENtB5_5tableINtNtNtCs4ZchdTtfQ7h_6diesel12query_source5joins6JoinToINtNtNtB1I_13query_builder16select_statement15SelectStatementINtNtB2z_11from_clause10FromClausepEpppppppEE11join_targetBd_
FN:35,_RNvXININtNtNtNtCsjp8PXOiLT2t_8adapters6shared11persistence6schema10flashcardssf_0pppENtB5_5tableINtNtNtCs4ZchdTtfQ7h_6diesel12query_source5joins6JoinToINtNtNtNtB1D_13query_builder16select_statement5boxed20BoxedSelectStatementINtNtB2w_11from_clause10FromClausepEppEE11join_targetBd_
FN:35,_RNvXININtNtNtNtCsjp8PXOiLT2t_8adapters6shared11persistence6schema10flashcardssg_0pENtB5_5tableINtNtNtCs4ZchdTtfQ7h_6diesel12query_source5joins6JoinToINtNtNtB1z_8aliasing5alias5AliaspEE11join_targetBd_
FN:35,_RNvXININtNtNtNtCsjp8PXOiLT2t_8adapters6shared11persistence6schema10flashcardssh_0pENtB5_5tableINtNtCs4ZchdTtfQ7h_6diesel10insertable10InsertablepE6valuesBd_
FN:35,_RNvXININtNtNtNtCsjp8PXOiLT2t_8adapters6shared11persistence6schema10flashcardssi_0pERNtB5_5tableINtNtCs4ZchdTtfQ7h_6diesel10insertable10InsertablepE6valuesBd_
FN:35,_RNvXININtNtNtNtCsjp8PXOiLT2t_8adapters6shared11persistence6schema10flashcardssj_0pENtB5_5tableINtNtNtCs4ZchdTtfQ7h_6diesel12query_source5joins6JoinToINtNtNtNtB1B_2pg13query_builder4only4OnlypEE11join_targetBd_
FN:35,_RNvXININtNtNtNtCsjp8PXOiLT2t_8adapters6shared11persistence6schema10flashcardssm_0ppENtB5_5tableINtNtNtCs4ZchdTtfQ7h_6diesel12query_source5joins6JoinToINtNtNtNtB1C_2pg13query_builder11tablesample11TablesampleppEE11join_targetBd_
FN:76,_RNvXININtNtNtNtCsjp8PXOiLT2t_8adapters6shared11persistence6schema13focus_sessions0_0pENtB5_5tableINtNtCs4ZchdTtfQ7h_6diesel13query_builder13QueryFragmentpE8walk_astBd_
FN:76,_RNvXININtNtNtNtCsjp8PXOiLT2t_8adapters6shared11persistence6schema13focus_sessionsa_0ppENtB5_5tableINtNtNtNtCs4ZchdTtfQ7h_6diesel12query_source8aliasing18field_alias_mapper48FieldAliasMapperAssociatedTypesDisjointnessTrickB1n_ppE3mapBd_
FN:76,_RNvXININtNtNtNtCsjp8PXOiLT2t_8adapters6shared11persistence6schema13focus_sessionsc_0pppENtB5_5tableINtNtNtCs4ZchdTtfQ7h_6diesel12query_source5joins6JoinToINtB1C_4JoinpppEE11join_targetBd_
FN:76,_RNvXININtNtNtNtCsjp8PXOiLT2t_8adapters6shared11persistence6schema13focus_sessionsd_0ppENtB5_5tableINtNtNtCs4ZchdTtfQ7h_6diesel12query_source5joins6JoinToINtB1B_6JoinOnppEE11join_targetBd_
FN:76,_RNvXININtNtNtNtCsjp8PXOiLT2t_8adapters6shared11persistence6schema13focus_sessionse_0ppppppppENtB5_5tableINtNtNtCs4ZchdTtfQ7h_6diesel12query_source5joins6JoinToINtNtNtB1L_13query_builder16select_statement15SelectStatementINtNtB2C_11from_clause10FromClausepEpppppppEE11join_targetBd_
FN:76,_RNvXININtNtNtNtCsjp8PXOiLT2t_8adapters6shared11persistence6schema13focus_sessionsf_0pppENtB5_5tableINtNtNtCs4ZchdTtfQ7h_6diesel12query_source5joins6JoinToINtNtNtNtB1G_13query_builder16select_statement5boxed20BoxedSelectStatementINtNtB2z_11from_clause10FromClausepEppEE11join_targetBd_
FN:76,_RNvXININtNtNtNtCsjp8PXOiLT2t_8adapters6shared11persistence6schema13focus_sessionsg_0pENtB5_5tableINtNtNtCs4ZchdTtfQ7h_6diesel12query_source5joins6JoinToINtNtNtB1C_8aliasing5alias5AliaspEE11join_targetBd_
FN:76,_RNvXININtNtNtNtCsjp8PXOiLT2t_8adapters6shared11persistence6schema13focus_sessionsh_0pENtB5_5tableINtNtCs4ZchdTtfQ7h_6diesel10insertable10InsertablepE6valuesBd_
FN:76,_RNvXININtNtNtNtCsjp8PXOiLT2t_8adapters6shared11persistence6schema13focus_sessionsi_0pERNtB5_5tableINtNtCs4ZchdTtfQ7h_6diesel10insertable10InsertablepE6valuesBd_
FN:76,_RNvXININtNtNtNtCsjp8PXOiLT2t_8adapters6shared11persistence6schema13focus_sessionsj_0pENtB5_5tableINtNtNtCs4ZchdTtfQ7h_6diesel12query_source5joins6JoinToINtNtNtNtB1E_2pg13query_builder4only4OnlypEE11join_targetBd_
FN:76,_RNvXININtNtNtNtCsjp8PXOiLT2t_8adapters6shared11persistence6schema13focus_sessionsm_0ppENtB5_5tableINtNtNtCs4ZchdTtfQ7h_6diesel12query_source5joins6JoinToINtNtNtNtB1F_2pg13query_builder11tablesample11TablesampleppEE11join_targetBd_
FN:150,_RNvXININtNtNtNtCsjp8PXOiLT2t_8adapters6shared11persistence6schema13user_settingss0_0pENtB5_5tableINtNtCs4ZchdTtfQ7h_6diesel13query_builder13QueryFragmentpE8walk_astBd_
FN:150,_RNvXININtNtNtNtCsjp8PXOiLT2t_8adapters6shared11persistence6schema13user_settingssa_0ppENtB5_5tableINtNtNtNtCs4ZchdTtfQ7h_6diesel12query_source8aliasing18field_alias_mapper48FieldAliasMapperAssociatedTypesDisjointnessTrickB1n_ppE3mapBd_
FN:150,_RNvXININtNtNtNtCsjp8PXOiLT2t_8adapters6shared11persistence6schema13user_settingssc_0pppENtB5_5tableINtNtNtCs4ZchdTtfQ7h_6diesel12query_source5joins6JoinToINtB1C_4JoinpppEE11join_targetBd_
FN:150,_RNvXININtNtNtNtCsjp8PXOiLT2t_8adapters6shared11persistence6schema13user_settingssd_0ppENtB5_5tableINtNtNtCs4ZchdTtfQ7h_6diesel12query_source5joins6JoinToINtB1B_6JoinOnppEE11join_targetBd_
FN:150,_RNvXININtNtNtNtCsjp8PXOiLT2t_8adapters6shared11persistence6schema13user_settingsse_0ppppppppENtB5_5tableINtNtNtCs4ZchdTtfQ7h_6diesel12query_source5joins6JoinToINtNtNtB1L_13query_builder16select_statement15SelectStatementINtNtB2C_11from_clause10FromClausepEpppppppEE11join_targetBd_
FN:150,_RNvXININtNtNtNtCsjp8PXOiLT2t_8adapters6shared11persistence6schema13user_settingssf_0pppENtB5_5tableINtNtNtCs4ZchdTtfQ7h_6diesel12query_source5joins6JoinToINtNtNtNtB1G_13query_builder16select_statement5boxed20BoxedSelectStatementINtNtB2z_11from_clause10FromClausepEppEE11join_targetBd_
FN:150,_RNvXININtNtNtNtCsjp8PXOiLT2t_8adapters6shared11persistence6schema13user_settingssg_0pENtB5_5tableINtNtNtCs4ZchdTtfQ7h_6diesel12query_source5joins6JoinToINtNtNtB1C_8aliasing5alias5AliaspEE11join_targetBd_
FN:150,_RNvXININtNtNtNtCsjp8PXOiLT2t_8adapters6shared11persistence6schema13user_settingssh_0pENtB5_5tableINtNtCs4ZchdTtfQ7h_6diesel10insertable10InsertablepE6valuesBd_
FN:150,_RNvXININtNtNtNtCsjp8PXOiLT2t_8adapters6shared11persistence6schema13user_settingssi_0pERNtB5_5tableINtNtCs4ZchdTtfQ7h_6diesel10insertable10InsertablepE6valuesBd_
FN:150,_RNvXININtNtNtNtCsjp8PXOiLT2t_8adapters6shared11persistence6schema13user_settingssj_0pENtB5_5tableINtNtNtCs4ZchdTtfQ7h_6diesel12query_source5joins6JoinToINtNtNtNtB1E_2pg13query_builder4only4OnlypEE11join_targetBd_
FN:150,_RNvXININtNtNtNtCsjp8PXOiLT2t_8adapters6shared11persistence6schema13user_settingssm_0ppENtB5_5tableINtNtNtCs4ZchdTtfQ7h_6diesel12query_source5joins6JoinToINtNtNtNtB1F_2pg13query_builder11tablesample11TablesampleppEE11join_targetBd_
FN:46,_RNvXININtNtNtNtCsjp8PXOiLT2t_8adapters6shared11persistence6schema16__sqlx_migrationss0_0pENtB5_5tableINtNtCs4ZchdTtfQ7h_6diesel13query_builder13QueryFragmentpE8walk_astBd_
FN:46,_RNvXININtNtNtNtCsjp8PXOiLT2t_8adapters6shared11persistence6schema16__sqlx_migrationssa_0ppENtB5_5tableINtNtNtNtCs4ZchdTtfQ7h_6diesel12query_source8aliasing18field_alias_mapper48FieldAliasMapperAssociatedTypesDisjointnessTrickB1r_ppE3mapBd_
FN:46,_RNvXININtNtNtNtCsjp8PXOiLT2t_8adapters6shared11persistence6schema16__sqlx_migrationssc_0pppENtB5_5tableINtNtNtCs4ZchdTtfQ7h_6diesel12query_source5joins6JoinToINtB1G_4JoinpppEE11join_targetBd_
FN:46,_RNvXININtNtNtNtCsjp8PXOiLT2t_8adapters6shared11persistence6schema16__sqlx_migrationssd_0ppENtB5_5tableINtNtNtCs4ZchdTtfQ7h_6diesel12query_source5joins6JoinToINtB1F_6JoinOnppEE11join_targetBd_
FN:46,_RNvXININtNtNtNtCsjp8PXOiLT2t_8adapters6shared11persistence6schema16__sqlx_migrationsse_0ppppppppENtB5_5tableINtNtNtCs4ZchdTtfQ7h_6diesel12query_source5joins6JoinToINtNtNtB1P_13query_builder16select_statement15SelectStatementINtNtB2G_11from_clause10FromClausepEpppppppEE11join_targetBd_
FN:46,_RNvXININtNtNtNtCsjp8PXOiLT2t_8adapters6shared11persistence6schema16__sqlx_migrationssf_0pppENtB5_5tableINtNtNtCs4ZchdTtfQ7h_6diesel12query_source5joins6JoinToINtNtNtNtB1K_13query_builder16select_statement5boxed20BoxedSelectStatementINtNtB2D_11from_clause10FromClausepEppEE11join_targetBd_
FN:46,_RNvXININtNtNtNtCsjp8PXOiLT2t_8adapters6shared11persistence6schema16__sqlx_migrationssg_0pENtB5_5tableINtNtNtCs4ZchdTtfQ7h_6diesel12query_source5joins6JoinToINtNtNtB1G_8aliasing5alias5AliaspEE11join_targetBd_
FN:46,_RNvXININtNtNtNtCsjp8PXOiLT2t_8adapters6shared11persistence6schema16__sqlx_migrationssh_0pENtB5_5tableINtNtCs4ZchdTtfQ7h_6diesel10insertable10InsertablepE6valuesBd_
FN:46,_RNvXININtNtNtNtCsjp8PXOiLT2t_8adapters6shared11persistence6schema16__sqlx_migrationssi_0pERNtB5_5tableINtNtCs4ZchdTtfQ7h_6diesel10insertable10InsertablepE6valuesBd_
FN:46,_RNvXININtNtNtNtCsjp8PXOiLT2t_8adapters6shared11persistence6schema16__sqlx_migrationssj_0pENtB5_5tableINtNtNtCs4ZchdTtfQ7h_6diesel12query_source5joins6JoinToINtNtNtNtB1I_2pg13query_builder4only4OnlypEE11join_targetBd_
FN:46,_RNvXININtNtNtNtCsjp8PXOiLT2t_8adapters6shared11persistence6schema16__sqlx_migrationssm_0ppENtB5_5tableINtNtNtCs4ZchdTtfQ7h_6diesel12query_source5joins6JoinToINtNtNtNtB1J_2pg13query_builder11tablesample11TablesampleppEE11join_targetBd_
FN:21,_RNvXININtNtNtNtCsjp8PXOiLT2t_8adapters6shared11persistence6schema17flashcard_folderss0_0pENtB5_5tableINtNtCs4ZchdTtfQ7h_6diesel13query_builder13QueryFragmentpE8walk_astBd_
FN:21,_RNvXININtNtNtNtCsjp8PXOiLT2t_8adapters6shared11persistence6schema17flashcard_folderssa_0ppENtB5_5tableINtNtNtNtCs4ZchdTtfQ7h_6diesel12query_source8aliasing18field_alias_mapper48FieldAliasMapperAssociatedTypesDisjointnessTrickB1r_ppE3mapBd_
FN:21,_RNvXININtNtNtNtCsjp8PXOiLT2t_8adapters6shared11persistence6schema17flashcard_folderssc_0pppENtB5_5tableINtNtNtCs4ZchdTtfQ7h_6diesel12query_source5joins6JoinToINtB1G_4JoinpppEE11join_targetBd_
FN:21,_RNvXININtNtNtNtCsjp8PXOiLT2t_8adapters6shared11persistence6schema17flashcard_folderssd_0ppENtB5_5tableINtNtNtCs4ZchdTtfQ7h_6diesel12query_source5joins6JoinToINtB1F_6JoinOnppEE11join_targetBd_
FN:21,_RNvXININtNtNtNtCsjp8PXOiLT2t_8adapters6shared11persistence6schema17flashcard_foldersse_0ppppppppENtB5_5tableINtNtNtCs4ZchdTtfQ7h_6diesel12query_source5joins6JoinToINtNtNtB1P_13query_builder16select_statement15SelectStatementINtNtB2G_11from_clause10FromClausepEpppppppEE11join_targetBd_
FN:21,_RNvXININtNtNtNtCsjp8PXOiLT2t_8adapters6shared11persistence6schema17flashcard_folderssf_0pppENtB5_5tableINtNtNtCs4ZchdTtfQ7h_6diesel12query_source5joins6JoinToINtNtNtNtB1K_13query_builder16select_statement5boxed20BoxedSelectStatementINtNtB2D_11from_clause10FromClausepEppEE11join_targetBd_
FN:21,_RNvXININtNtNtNtCsjp8PXOiLT2t_8adapters6shared11persistence6schema17flashcard_folderssg_0pENtB5_5tableINtNtNtCs4ZchdTtfQ7h_6diesel12query_source5joins6JoinToINtNtNtB1G_8aliasing5alias5AliaspEE11join_targetBd_
FN:21,_RNvXININtNtNtNtCsjp8PXOiLT2t_8adapters6shared11persistence6schema17flashcard_folderssh_0pENtB5_5tableINtNtCs4ZchdTtfQ7h_6diesel10insertable10InsertablepE6valuesBd_
FN:21,_RNvXININtNtNtNtCsjp8PXOiLT2t_8adapters6shared11persistence6schema17flashcard_folderssi_0pERNtB5_5tableINtNtCs4ZchdTtfQ7h_6diesel10insertable10InsertablepE6valuesBd_
FN:21,_RNvXININtNtNtNtCsjp8PXOiLT2t_8adapters6shared11persistence6schema17flashcard_folderssj_0pENtB5_5tableINtNtNtCs4ZchdTtfQ7h_6diesel12query_source5joins6JoinToINtNtNtNtB1I_2pg13query_builder4only4OnlypEE11join_targetBd_
FN:21,_RNvXININtNtNtNtCsjp8PXOiLT2t_8adapters6shared11persistence6schema17flashcard_folderssm_0ppENtB5_5tableINtNtNtCs4ZchdTtfQ7h_6diesel12query_source5joins6JoinToINtNtNtNtB1J_2pg13query_builder11tablesample11TablesampleppEE11join_targetBd_
FN:87,_RNvXININtNtNtNtCsjp8PXOiLT2t_8adapters6shared11persistence6schema18push_subscriptionss0_0pENtB5_5tableINtNtCs4ZchdTtfQ7h_6diesel13query_builder13QueryFragmentpE8walk_astBd_
FN:87,_RNvXININtNtNtNtCsjp8PXOiLT2t_8adapters6shared11persistence6schema18push_subscriptionssa_0ppENtB5_5tableINtNtNtNtCs4ZchdTtfQ7h_6diesel12query_source8aliasing18field_alias_mapper48FieldAliasMapperAssociatedTypesDisjointnessTrickB1s_ppE3mapBd_
FN:87,_RNvXININtNtNtNtCsjp8PXOiLT2t_8adapters6shared11persistence6schema18push_subscriptionssc_0pppENtB5_5tableINtNtNtCs4ZchdTtfQ7h_6diesel12query_source5joins6JoinToINtB1H_4JoinpppEE11join_targetBd_
FN:87,_RNvXININtNtNtNtCsjp8PXOiLT2t_8adapters6shared11persistence6schema18push_subscriptionssd_0ppENtB5_5tableINtNtNtCs4ZchdTtfQ7h_6diesel12query_source5joins6JoinToINtB1G_6JoinOnppEE11join_targetBd_
FN:87,_RNvXININtNtNtNtCsjp8PXOiLT2t_8adapters6shared11persistence6schema18push_subscriptionsse_0ppppppppENtB5_5tableINtNtNtCs4ZchdTtfQ7h_6diesel12query_source5joins6JoinToINtNtNtB1Q_13query_builder16select_statement15SelectStatementINtNtB2H_11from_clause10FromClausepEpppppppEE11join_targetBd_
FN:87,_RNvXININtNtNtNtCsjp8PXOiLT2t_8adapters6shared11persistence6schema18push_subscriptionssf_0pppENtB5_5tableINtNtNtCs4ZchdTtfQ7h_6diesel12query_source5joins6JoinToINtNtNtNtB1L_13query_builder16select_statement5boxed20BoxedSelectStatementINtNtB2E_11from_clause10FromClausepEppEE11join_targetBd_
FN:87,_RNvXININtNtNtNtCsjp8PXOiLT2t_8adapters6shared11persistence6schema18push_subscriptionssg_0pENtB5_5tableINtNtNtCs4ZchdTtfQ7h_6diesel12query_source5joins6JoinToINtNtNtB1H_8aliasing5alias5AliaspEE11join_targetBd_
FN:87,_RNvXININtNtNtNtCsjp8PXOiLT2t_8adapters6shared11persistence6schema18push_subscriptionssh_0pENtB5_5tableINtNtCs4ZchdTtfQ7h_6diesel10insertable10InsertablepE6valuesBd_
FN:87,_RNvXININtNtNtNtCsjp8PXOiLT2t_8adapters6shared11persistence6schema18push_subscriptionssi_0pERNtB5_5tableINtNtCs4ZchdTtfQ7h_6diesel10insertable10InsertablepE6valuesBd_
FN:87,_RNvXININtNtNtNtCsjp8PXOiLT2t_8adapters6shared11persistence6schema18push_subscriptionssj_0pENtB5_5tableINtNtNtCs4ZchdTtfQ7h_6diesel12query_source5joins6JoinToINtNtNtNtB1J_2pg13query_builder4only4OnlypEE11join_targetBd_
FN:87,_RNvXININtNtNtNtCsjp8PXOiLT2t_8adapters6shared11persistence6schema18push_subscriptionssm_0ppENtB5_5tableINtNtNtCs4ZchdTtfQ7h_6diesel12query_source5joins6JoinToINtNtNtNtB1K_2pg13query_builder11tablesample11TablesampleppEE11join_targetBd_
FN:8,_RNvXININtNtNtNtCsjp8PXOiLT2t_8adapters6shared11persistence6schema22flashcard_folder_itemss0_0pENtB5_5tableINtNtCs4ZchdTtfQ7h_6diesel13query_builder13QueryFragmentpE8walk_astBd_
FN:8,_RNvXININtNtNtNtCsjp8PXOiLT2t_8adapters6shared11persistence6schema22flashcard_folder_itemssa_0ppENtB5_5tableINtNtNtNtCs4ZchdTtfQ7h_6diesel12query_source8aliasing18field_alias_mapper48FieldAliasMapperAssociatedTypesDisjointnessTrickB1w_ppE3mapBd_
FN:8,_RNvXININtNtNtNtCsjp8PXOiLT2t_8adapters6shared11persistence6schema22flashcard_folder_itemssc_0pppENtB5_5tableINtNtNtCs4ZchdTtfQ7h_6diesel12query_source5joins6JoinToINtB1L_4JoinpppEE11join_targetBd_
FN:8,_RNvXININtNtNtNtCsjp8PXOiLT2t_8adapters6shared11persistence6schema22flashcard_folder_itemssd_0ppENtB5_5tableINtNtNtCs4ZchdTtfQ7h_6diesel12query_source5joins6JoinToINtB1K_6JoinOnppEE11join_targetBd_
FN:8,_RNvXININtNtNtNtCsjp8PXOiLT2t_8adapters6shared11persistence6schema22flashcard_folder_itemsse_0ppppppppENtB5_5tableINtNtNtCs4ZchdTtfQ7h_6diesel12query_source5joins6JoinToINtNtNtB1U_13query_builder16select_statement15SelectStatementINtNtB2L_11from_clause10FromClausepEpppppppEE11join_targetBd_
FN:8,_RNvXININtNtNtNtCsjp8PXOiLT2t_8adapters6shared11persistence6schema22flashcard_folder_itemssf_0pppENtB5_5tableINtNtNtCs4ZchdTtfQ7h_6diesel12query_source5joins6JoinToINtNtNtNtB1P_13query_builder16select_statement5boxed20BoxedSelectStatementINtNtB2I_11from_clause10FromClausepEppEE11join_targetBd_
FN:8,_RNvXININtNtNtNtCsjp8PXOiLT2t_8adapters6shared11persistence6schema22flashcard_folder_itemssg_0pENtB5_5tableINtNtNtCs4ZchdTtfQ7h_6diesel12query_source5joins6JoinToINtNtNtB1L_8aliasing5alias5AliaspEE11join_targetBd_
FN:8,_RNvXININtNtNtNtCsjp8PXOiLT2t_8adapters6shared11persistence6schema22flashcard_folder_itemssh_0pENtB5_5tableINtNtCs4ZchdTtfQ7h_6diesel10insertable10InsertablepE6valuesBd_
FN:8,_RNvXININtNtNtNtCsjp8PXOiLT2t_8adapters6shared11persistence6schema22flashcard_folder_itemssi_0pERNtB5_5tableINtNtCs4ZchdTtfQ7h_6diesel10insertable10InsertablepE6valuesBd_
FN:8,_RNvXININtNtNtNtCsjp8PXOiLT2t_8adapters6shared11persistence6schema22flashcard_folder_itemssj_0pENtB5_5tableINtNtNtCs4ZchdTtfQ7h_6diesel12query_source5joins6JoinToINtNtNtNtB1N_2pg13query_builder4only4OnlypEE11join_targetBd_
FN:8,_RNvXININtNtNtNtCsjp8PXOiLT2t_8adapters6shared11persistence6schema22flashcard_folder_itemssm_0ppENtB5_5tableINtNtNtCs4ZchdTtfQ7h_6diesel12query_source5joins6JoinToINtNtNtNtB1O_2pg13query_builder11tablesample11TablesampleppEE11join_targetBd_
FN:138,_RNvXININtNtNtNtCsjp8PXOiLT2t_8adapters6shared11persistence6schema5taskss0_0pENtB5_5tableINtNtCs4ZchdTtfQ7h_6diesel13query_builder13QueryFragmentpE8walk_astBd_
FN:138,_RNvXININtNtNtNtCsjp8PXOiLT2t_8adapters6shared11persistence6schema5taskssa_0ppENtB5_5tableINtNtNtNtCs4ZchdTtfQ7h_6diesel12query_source8aliasing18field_alias_mapper48FieldAliasMapperAssociatedTypesDisjointnessTrickB1e_ppE3mapBd_
FN:138,_RNvXININtNtNtNtCsjp8PXOiLT2t_8adapters6shared11persistence6schema5taskssc_0pppENtB5_5tableINtNtNtCs4ZchdTtfQ7h_6diesel12query_source5joins6JoinToINtB1t_4JoinpppEE11join_targetBd_
FN:138,_RNvXININtNtNtNtCsjp8PXOiLT2t_8adapters6shared11persistence6schema5taskssd_0ppENtB5_5tableINtNtNtCs4ZchdTtfQ7h_6diesel12query_source5joins6JoinToINtB1s_6JoinOnppEE11join_targetBd_
FN:138,_RNvXININtNtNtNtCsjp8PXOiLT2t_8adapters6shared11persistence6schema5tasksse_0ppppppppENtB5_5tableINtNtNtCs4ZchdTtfQ7h_6diesel12query_source5joins6JoinToINtNtNtB1C_13query_builder16select_statement15SelectStatementINtNtB2t_11from_clause10FromClausepEpppppppEE11join_targetBd_
FN:138,_RNvXININtNtNtNtCsjp8PXOiLT2t_8adapters6shared11persistence6schema5taskssf_0pppENtB5_5tableINtNtNtCs4ZchdTtfQ7h_6diesel12query_source5joins6JoinToINtNtNtNtB1x_13query_builder16select_statement5boxed20BoxedSelectStatementINtNtB2q_11from_clause10FromClausepEppEE11join_targetBd_
FN:138,_RNvXININtNtNtNtCsjp8PXOiLT2t_8adapters6shared11persistence6schema5taskssg_0pENtB5_5tableINtNtNtCs4ZchdTtfQ7h_6diesel12query_source5joins6JoinToINtNtNtB1t_8aliasing5alias5AliaspEE11join_targetBd_
FN:138,_RNvXININtNtNtNtCsjp8PXOiLT2t_8adapters6shared11persistence6schema5taskssh_0pENtB5_5tableINtNtCs4ZchdTtfQ7h_6diesel10insertable10InsertablepE6valuesBd_
FN:138,_RNvXININtNtNtNtCsjp8PXOiLT2t_8adapters6shared11persistence6schema5taskssi_0pERNtB5_5tableINtNtCs4ZchdTtfQ7h_6diesel10insertable10InsertablepE6valuesBd_
FN:138,_RNvXININtNtNtNtCsjp8PXOiLT2t_8adapters6shared11persistence6schema5taskssj_0pENtB5_5tableINtNtNtCs4ZchdTtfQ7h_6diesel12query_source5joins6JoinToINtNtNtNtB1v_2pg13query_builder4only4OnlypEE11join_targetBd_
FN:138,_RNvXININtNtNtNtCsjp8PXOiLT2t_8adapters6shared11persistence6schema5taskssm_0ppENtB5_5tableINtNtNtCs4ZchdTtfQ7h_6diesel12query_source5joins6JoinToINtNtNtNtB1w_2pg13query_builder11tablesample11TablesampleppEE11join_targetBd_
FN:165,_RNvXININtNtNtNtCsjp8PXOiLT2t_8adapters6shared11persistence6schema5userss0_0pENtB5_5tableINtNtCs4ZchdTtfQ7h_6diesel13query_builder13QueryFragmentpE8walk_astBd_
FN:165,_RNvXININtNtNtNtCsjp8PXOiLT2t_8adapters6shared11persistence6schema5userssa_0ppENtB5_5tableINtNtNtNtCs4ZchdTtfQ7h_6diesel12query_source8aliasing18field_alias_mapper48FieldAliasMapperAssociatedTypesDisjointnessTrickB1e_ppE3mapBd_
FN:165,_RNvXININtNtNtNtCsjp8PXOiLT2t_8adapters6shared11persistence6schema5userssc_0pppENtB5_5tableINtNtNtCs4ZchdTtfQ7h_6diesel12query_source5joins6JoinToINtB1t_4JoinpppEE11join_targetBd_
FN:165,_RNvXININtNtNtNtCsjp8PXOiLT2t_8adapters6shared11persistence6schema5userssd_0ppENtB5_5tableINtNtNtCs4ZchdTtfQ7h_6diesel12query_source5joins6JoinToINtB1s_6JoinOnppEE11join_targetBd_
FN:165,_RNvXININtNtNtNtCsjp8PXOiLT2t_8adapters6shared11persistence6schema5usersse_0ppppppppENtB5_5tableINtNtNtCs4ZchdTtfQ7h_6diesel12query_source5joins6JoinToINtNtNtB1C_13query_builder16select_statement15SelectStatementINtNtB2t_11from_clause10FromClausepEpppppppEE11join_targetBd_
FN:165,_RNvXININtNtNtNtCsjp8PXOiLT2t_8adapters6shared11persistence6schema5userssf_0pppENtB5_5tableINtNtNtCs4ZchdTtfQ7h_6diesel12query_source5joins6JoinToINtNtNtNtB1x_13query_builder16select_statement5boxed20BoxedSelectStatementINtNtB2q_11from_clause10FromClausepEppEE11join_targetBd_
FN:165,_RNvXININtNtNtNtCsjp8PXOiLT2t_8adapters6shared11persistence6schema5userssg_0pENtB5_5tableINtNtNtCs4ZchdTtfQ7h_6diesel12query_source5joins6JoinToINtNtNtB1t_8aliasing5alias5AliaspEE11join_targetBd_
FN:165,_RNvXININtNtNtNtCsjp8PXOiLT2t_8adapters6shared11persistence6schema5userssh_0pENtB5_5tableINtNtCs4ZchdTtfQ7h_6diesel10insertable10InsertablepE6valuesBd_
FN:165,_RNvXININtNtNtNtCsjp8PXOiLT2t_8adapters6shared11persistence6schema5userssi_0pERNtB5_5tableINtNtCs4ZchdTtfQ7h_6diesel10insertable10InsertablepE6valuesBd_
FN:165,_RNvXININtNtNtNtCsjp8PXOiLT2t_8adapters6shared11persistence6schema5userssj_0pENtB5_5tableINtNtNtCs4ZchdTtfQ7h_6diesel12query_source5joins6JoinToINtNtNtNtB1v_2pg13query_builder4only4OnlypEE11join_targetBd_
FN:165,_RNvXININtNtNtNtCsjp8PXOiLT2t_8adapters6shared11persistence6schema5userssm_0ppENtB5_5tableINtNtNtCs4ZchdTtfQ7h_6diesel12query_source5joins6JoinToINtNtNtNtB1w_2pg13query_builder11tablesample11TablesampleppEE11join_targetBd_
FN:116,_RNvXININtNtNtNtCsjp8PXOiLT2t_8adapters6shared11persistence6schema8subtaskss0_0pENtB5_5tableINtNtCs4ZchdTtfQ7h_6diesel13query_builder13QueryFragmentpE8walk_astBd_
FN:116,_RNvXININtNtNtNtCsjp8PXOiLT2t_8adapters6shared11persistence6schema8subtaskssa_0ppENtB5_5tableINtNtNtNtCs4ZchdTtfQ7h_6diesel12query_source8aliasing18field_alias_mapper48FieldAliasMapperAssociatedTypesDisjointnessTrickB1h_ppE3mapBd_
FN:116,_RNvXININtNtNtNtCsjp8PXOiLT2t_8adapters6shared11persistence6schema8subtaskssc_0pppENtB5_5tableINtNtNtCs4ZchdTtfQ7h_6diesel12query_source5joins6JoinToINtB1w_4JoinpppEE11join_targetBd_
FN:116,_RNvXININtNtNtNtCsjp8PXOiLT2t_8adapters6shared11persistence6schema8subtaskssd_0ppENtB5_5tableINtNtNtCs4ZchdTtfQ7h_6diesel12query_source5joins6JoinToINtB1v_6JoinOnppEE11join_targetBd_
FN:116,_RNvXININtNtNtNtCsjp8PXOiLT2t_8adapters6shared11persistence6schema8subtasksse_0ppppppppENtB5_5tableINtNtNtCs4ZchdTtfQ7h_6diesel12query_source5joins6JoinToINtNtNtB1F_13query_builder16select_statement15SelectStatementINtNtB2w_11from_clause10FromClausepEpppppppEE11join_targetBd_
FN:116,_RNvXININtNtNtNtCsjp8PXOiLT2t_8adapters6shared11persistence6schema8subtaskssf_0pppENtB5_5tableINtNtNtCs4ZchdTtfQ7h_6diesel12query_source5joins6JoinToINtNtNtNtB1A_13query_builder16select_statement5boxed20BoxedSelectStatementINtNtB2t_11from_clause10FromClausepEppEE11join_targetBd_
FN:116,_RNvXININtNtNtNtCsjp8PXOiLT2t_8adapters6shared11persistence6schema8subtaskssg_0pENtB5_5tableINtNtNtCs4ZchdTtfQ7h_6diesel12query_source5joins6JoinToINtNtNtB1w_8aliasing5alias5AliaspEE11join_targetBd_
FN:116,_RNvXININtNtNtNtCsjp8PXOiLT2t_8adapters6shared11persistence6schema8subtaskssh_0pENtB5_5tableINtNtCs4ZchdTtfQ7h_6diesel10insertable10InsertablepE6valuesBd_
FN:116,_RNvXININtNtNtNtCsjp8PXOiLT2t_8adapters6shared11persistence6schema8subtaskssi_0pERNtB5_5tableINtNtCs4ZchdTtfQ7h_6diesel10insertable10InsertablepE6valuesBd_
FN:116,_RNvXININtNtNtNtCsjp8PXOiLT2t_8adapters6shared11persistence6schema8subtaskssj_0pENtB5_5tableINtNtNtCs4ZchdTtfQ7h_6diesel12query_source5joins6JoinToINtNtNtNtB1y_2pg13query_builder4only4OnlypEE11join_targetBd_
FN:116,_RNvXININtNtNtNtCsjp8PXOiLT2t_8adapters6shared11persistence6schema8subtaskssm_0ppENtB5_5tableINtNtNtCs4ZchdTtfQ7h_6diesel12query_source5joins6JoinToINtNtNtNtB1z_2pg13query_builder11tablesample11TablesampleppEE11join_targetBd_
FN:102,_RNvXININtNtNtNtCsjp8PXOiLT2t_8adapters6shared11persistence6schema9reminderss0_0pENtB5_5tableINtNtCs4ZchdTtfQ7h_6diesel13query_builder13QueryFragmentpE8walk_astBd_
FN:102,_RNvXININtNtNtNtCsjp8PXOiLT2t_8adapters6shared11persistence6schema9reminderssa_0ppENtB5_5tableINtNtNtNtCs4ZchdTtfQ7h_6diesel12query_source8aliasing18field_alias_mapper48FieldAliasMapperAssociatedTypesDisjointnessTrickB1i_ppE3mapBd_
FN:102,_RNvXININtNtNtNtCsjp8PXOiLT2t_8adapters6shared11persistence6schema9reminderssc_0pppENtB5_5tableINtNtNtCs4ZchdTtfQ7h_6diesel12query_source5joins6JoinToINtB1x_4JoinpppEE11join_targetBd_
FN:102,_RNvXININtNtNtNtCsjp8PXOiLT2t_8adapters6shared11persistence6schema9reminderssd_0ppENtB5_5tableINtNtNtCs4ZchdTtfQ7h_6diesel12query_source5joins6JoinToINtB1w_6JoinOnppEE11join_targetBd_
FN:102,_RNvXININtNtNtNtCsjp8PXOiLT2t_8adapters6shared11persistence6schema9remindersse_0ppppppppENtB5_5tableINtNtNtCs4ZchdTtfQ7h_6diesel12query_source5joins6JoinToINtNtNtB1G_13query_builder16select_statement15SelectStatementINtNtB2x_11from_clause10FromClausepEpppppppEE11join_targetBd_
FN:102,_RNvXININtNtNtNtCsjp8PXOiLT2t_8adapters6shared11persistence6schema9reminderssf_0pppENtB5_5tableINtNtNtCs4ZchdTtfQ7h_6diesel12query_source5joins6JoinToINtNtNtNtB1B_13query_builder16select_statement5boxed20BoxedSelectStatementINtNtB2u_11from_clause10FromClausepEppEE11join_targetBd_
FN:102,_RNvXININtNtNtNtCsjp8PXOiLT2t_8adapters6shared11persistence6schema9reminderssg_0pENtB5_5tableINtNtNtCs4ZchdTtfQ7h_6diesel12query_source5joins6JoinToINtNtNtB1x_8aliasing5alias5AliaspEE11join_targetBd_
FN:102,_RNvXININtNtNtNtCsjp8PXOiLT2t_8adapters6shared11persistence6schema9reminderssh_0pENtB5_5tableINtNtCs4ZchdTtfQ7h_6diesel10insertable10InsertablepE6valuesBd_
FN:102,_RNvXININtNtNtNtCsjp8PXOiLT2t_8adapters6shared11persistence6schema9reminderssi_0pERNtB5_5tableINtNtCs4ZchdTtfQ7h_6diesel10insertable10InsertablepE6valuesBd_
FN:102,_RNvXININtNtNtNtCsjp8PXOiLT2t_8adapters6shared11persistence6schema9reminderssj_0pENtB5_5tableINtNtNtCs4ZchdTtfQ7h_6diesel12query_source5joins6JoinToINtNtNtNtB1z_2pg13query_builder4only4OnlypEE11join_targetBd_
FN:102,_RNvXININtNtNtNtCsjp8PXOiLT2t_8adapters6shared11persistence6schema9reminderssm_0ppENtB5_5tableINtNtNtCs4ZchdTtfQ7h_6diesel12query_source5joins6JoinToINtNtNtNtB1A_2pg13query_builder11tablesample11TablesampleppEE11join_targetBd_
FN:60,_RNvXININtNtNtNtNtCsjp8PXOiLT2t_8adapters6shared11persistence6schema10categories7columnss0_0pENtB5_4starINtNtCs4ZchdTtfQ7h_6diesel13query_builder13QueryFragmentpE8walk_astBf_
FN:60,_RNvXININtNtNtNtNtCsjp8PXOiLT2t_8adapters6shared11persistence6schema10categories7columnss1H_0pENtB5_10updated_atINtNtNtCsl8K0bEFm1U0_4core3ops5arith3AddpE3addBf_
FN:60,_RNvXININtNtNtNtNtCsjp8PXOiLT2t_8adapters6shared11persistence6schema10categories7columnss1I_0pENtB5_10updated_atINtNtNtCsl8K0bEFm1U0_4core3ops5arith3SubpE3subBf_
FN:60,_RNvXININtNtNtNtNtCsjp8PXOiLT2t_8adapters6shared11persistence6schema10categories7columnss1o_0pENtB5_10created_atINtNtNtCsl8K0bEFm1U0_4core3ops5arith3AddpE3addBf_
FN:60,_RNvXININtNtNtNtNtCsjp8PXOiLT2t_8adapters6shared11persistence6schema10categories7columnss1p_0pENtB5_10created_atINtNtNtCsl8K0bEFm1U0_4core3ops5arith3SubpE3subBf_
FN:60,_RNvXININtNtNtNtNtCsjp8PXOiLT2t_8adapters6shared11persistence6schema10categories7columnss20_0pENtB5_10deleted_atINtNtNtCsl8K0bEFm1U0_4core3ops5arith3AddpE3addBf_
FN:60,_RNvXININtNtNtNtNtCsjp8PXOiLT2t_8adapters6shared11persistence6schema10categories7columnss21_0pENtB5_10deleted_atINtNtNtCsl8K0bEFm1U0_4core3ops5arith3SubpE3subBf_
FN:35,_RNvXININtNtNtNtNtCsjp8PXOiLT2t_8adapters6shared11persistence6schema10flashcards7columnss0_0pENtB5_4starINtNtCs4ZchdTtfQ7h_6diesel13query_builder13QueryFragmentpE8walk_astBf_
FN:35,_RNvXININtNtNtNtNtCsjp8PXOiLT2t_8adapters6shared11persistence6schema10flashcards7columnss1H_0pENtB5_10difficultyINtNtNtCsl8K0bEFm1U0_4core3ops5arith3AddpE3addBf_
FN:35,_RNvXININtNtNtNtNtCsjp8PXOiLT2t_8adapters6shared11persistence6schema10flashcards7columnss1I_0pENtB5_10difficultyINtNtNtCsl8K0bEFm1U0_4core3ops5arith3SubpE3subBf_
FN:35,_RNvXININtNtNtNtNtCsjp8PXOiLT2t_8adapters6shared11persistence6schema10flashcards7columnss1J_0pENtB5_10difficultyINtNtNtCsl8K0bEFm1U0_4core3ops5arith3DivpE3divBf_
FN:35,_RNvXININtNtNtNtNtCsjp8PXOiLT2t_8adapters6shared11persistence6schema10flashcards7columnss1K_0pENtB5_10difficultyINtNtNtCsl8K0bEFm1U0_4core3ops5arith3MulpE3mulBf_
FN:35,_RNvXININtNtNtNtNtCsjp8PXOiLT2t_8adapters6shared11persistence6schema10flashcards7columnss1m_0pENtB5_9stabilityINtNtNtCsl8K0bEFm1U0_4core3ops5arith3AddpE3addBf_
FN:35,_RNvXININtNtNtNtNtCsjp8PXOiLT2t_8adapters6shared11persistence6schema10flashcards7columnss1n_0pENtB5_9stabilityINtNtNtCsl8K0bEFm1U0_4core3ops5arith3SubpE3subBf_
FN:35,_RNvXININtNtNtNtNtCsjp8PXOiLT2t_8adapters6shared11persistence6schema10flashcards7columnss1o_0pENtB5_9stabilityINtNtNtCsl8K0bEFm1U0_4core3ops5arith3DivpE3divBf_
FN:35,_RNvXININtNtNtNtNtCsjp8PXOiLT2t_8adapters6shared11persistence6schema10flashcards7columnss1p_0pENtB5_9stabilityINtNtNtCsl8K0bEFm1U0_4core3ops5arith3MulpE3mulBf_
FN:35,_RNvXININtNtNtNtNtCsjp8PXOiLT2t_8adapters6shared11persistence6schema10flashcards7columnss22_0pENtB5_8due_dateINtNtNtCsl8K0bEFm1U0_4core3ops5arith3AddpE3addBf_
FN:35,_RNvXININtNtNtNtNtCsjp8PXOiLT2t_8adapters6shared11persistence6schema10flashcards7columnss23_0pENtB5_8due_dateINtNtNtCsl8K0bEFm1U0_4core3ops5arith3SubpE3subBf_
FN:35,_RNvXININtNtNtNtNtCsjp8PXOiLT2t_8adapters6shared11persistence6schema10flashcards7columnss2E_0pENtB5_10updated_atINtNtNtCsl8K0bEFm1U0_4core3ops5arith3AddpE3addBf_
FN:35,_RNvXININtNtNtNtNtCsjp8PXOiLT2t_8adapters6shared11persistence6schema10flashcards7columnss2F_0pENtB5_10updated_atINtNtNtCsl8K0bEFm1U0_4core3ops5arith3SubpE3subBf_
FN:35,_RNvXININtNtNtNtNtCsjp8PXOiLT2t_8adapters6shared11persistence6schema10flashcards7columnss2l_0pENtB5_10created_atINtNtNtCsl8K0bEFm1U0_4core3ops5arith3AddpE3addBf_
FN:35,_RNvXININtNtNtNtNtCsjp8PXOiLT2t_8adapters6shared11persistence6schema10flashcards7columnss2m_0pENtB5_10created_atINtNtNtCsl8K0bEFm1U0_4core3ops5arith3SubpE3subBf_
FN:76,_RNvXININtNtNtNtNtCsjp8PXOiLT2t_8adapters6shared11persistence6schema13focus_session7columnss0_0pENtB5_4starINtNtCs4ZchdTtfQ7h_6diesel13query_builder13QueryFragmentpE8walk_astBf_
FN:76,_RNvXININtNtNtNtNtCsjp8PXOiLT2t_8adapters6shared11persistence6schema13focus_session7columnss1I_0pENtB5_19concentration_scoreINtNtNtCsl8K0bEFm1U0_4core3ops5arith3AddpE3addBf_
FN:76,_RNvXININtNtNtNtNtCsjp8PXOiLT2t_8adapters6shared11persistence6schema13focus_session7columnss1J_0pENtB5_19concentration_scoreINtNtNtCsl8K0bEFm1U0_4core3ops5arith3SubpE3subBf_
FN:76,_RNvXININtNtNtNtNtCsjp8PXOiLT2t_8adapters6shared11persistence6schema13focus_session7columnss1K_0pENtB5_19concentration_scoreINtNtNtCsl8K0bEFm1U0_4core3ops5arith3DivpE3divBf_
FN:76,_RNvXININtNtNtNtNtCsjp8PXOiLT2t_8adapters6shared11persistence6schema13focus_session7columnss1L_0pENtB5_19concentration_scoreINtNtNtCsl8K0bEFm1U0_4core3ops5arith3MulpE3mulBf_
FN:76,_RNvXININtNtNtNtNtCsjp8PXOiLT2t_8adapters6shared11persistence6schema13focus_session7columnss1n_0pENtB5_15actual_durationINtNtNtCsl8K0bEFm1U0_4core3ops5arith3AddpE3addBf_
FN:76,_RNvXININtNtNtNtNtCsjp8PXOiLT2t_8adapters6shared11persistence6schema13focus_session7columnss1o_0pENtB5_15actual_durationINtNtNtCsl8K0bEFm1U0_4core3ops5arith3SubpE3subBf_
FN:76,_RNvXININtNtNtNtNtCsjp8PXOiLT2t_8adapters6shared11persistence6schema13focus_session7columnss1p_0pENtB5_15actual_durationINtNtNtCsl8K0bEFm1U0_4core3ops5arith3DivpE3divBf_
FN:76,_RNvXININtNtNtNtNtCsjp8PXOiLT2t_8adapters6shared11persistence6schema13focus_session7columnss1q_0pENtB5_15actual_durationINtNtNtCsl8K0bEFm1U0_4core3ops5arith3MulpE3mulBf_
FN:76,_RNvXININtNtNtNtNtCsjp8PXOiLT2t_8adapters6shared11persistence6schema13focus_session7columnss2D_0pENtB5_8ended_atINtNtNtCsl8K0bEFm1U0_4core3ops5arith3AddpE3addBf_
FN:76,_RNvXININtNtNtNtNtCsjp8PXOiLT2t_8adapters6shared11persistence6schema13focus_session7columnss2E_0pENtB5_8ended_atINtNtNtCsl8K0bEFm1U0_4core3ops5arith3SubpE3subBf_
FN:76,_RNvXININtNtNtNtNtCsjp8PXOiLT2t_8adapters6shared11persistence6schema13focus_session7columnss2W_0pENtB5_10created_atINtNtNtCsl8K0bEFm1U0_4core3ops5arith3AddpE3addBf_
FN:76,_RNvXININtNtNtNtNtCsjp8PXOiLT2t_8adapters6shared11persistence6schema13focus_session7columnss2X_0pENtB5_10created_atINtNtNtCsl8K0bEFm1U0_4core3ops5arith3SubpE3subBf_
FN:76,_RNvXININtNtNtNtNtCsjp8PXOiLT2t_8adapters6shared11persistence6schema13focus_session7columnss2k_0pENtB5_10started_atINtNtNtCsl8K0bEFm1U0_4core3ops5arith3AddpE3addBf_
FN:76,_RNvXININtNtNtNtNtCsjp8PXOiLT2t_8adapters6shared11persistence6schema13focus_session7columnss2l_0pENtB5_10started_atINtNtNtCsl8K0bEFm1U0_4core3ops5arith3SubpE3subBf_
FN:150,_RNvXININtNtNtNtNtCsjp8PXOiLT2t_8adapters6shared11persistence6schema13user_settings7columnss0_0pENtB5_4starINtNtCs4ZchdTtfQ7h_6diesel13query_builder13QueryFragmentpE8walk_astBf_
FN:150,_RNvXININtNtNtNtNtCsjp8PXOiLT2t_8adapters6shared11persistence6schema13user_settings7columnss1G_0pENtB5_10updated_atINtNtNtCsl8K0bEFm1U0_4core3ops5arith3AddpE3addBf_
FN:150,_RNvXININtNtNtNtNtCsjp8PXOiLT2t_8adapters6shared11persistence6schema13user_settings7columnss1H_0pENtB5_10updated_atINtNtNtCsl8K0bEFm1U0_4core3ops5arith3SubpE3subBf_
FN:150,_RNvXININtNtNtNtNtCsjp8PXOiLT2t_8adapters6shared11persistence6schema13user_settings7columnss1n_0pENtB5_10created_atINtNtNtCsl8K0bEFm1U0_4core3ops5arith3AddpE3addBf_
FN:150,_RNvXININtNtNtNtNtCsjp8PXOiLT2t_8adapters6shared11persistence6schema13user_settings7columnss1o_0pENtB5_10created_atINtNtNtCsl8K0bEFm1U0_4core3ops5arith3SubpE3subBf_
FN:46,_RNvXININtNtNtNtNtCsjp8PXOiLT2t_8adapters6shared11persistence6schema16__sqlx_migrations7columnss0_0pENtB5_4starINtNtCs4ZchdTtfQ7h_6diesel13query_builder13QueryFragmentpE8walk_astBf_
FN:46,_RNvXININtNtNtNtNtCsjp8PXOiLT2t_8adapters6shared11persistence6schema16__sqlx_migrations7columnss1J_0pENtB5_14execution_timeINtNtNtCsl8K0bEFm1U0_4core3ops5arith3AddpE3addBf_
FN:46,_RNvXININtNtNtNtNtCsjp8PXOiLT2t_8adapters6shared11persistence6schema16__sqlx_migrations7columnss1K_0pENtB5_14execution_timeINtNtNtCsl8K0bEFm1U0_4core3ops5arith3SubpE3subBf_
FN:46,_RNvXININtNtNtNtNtCsjp8PXOiLT2t_8adapters6shared11persistence6schema16__sqlx_migrations7columnss1L_0pENtB5_14execution_timeINtNtNtCsl8K0bEFm1U0_4core3ops5arith3DivpE3divBf_
FN:46,_RNvXININtNtNtNtNtCsjp8PXOiLT2t_8adapters6shared11persistence6schema16__sqlx_migrations7columnss1M_0pENtB5_14execution_timeINtNtNtCsl8K0bEFm1U0_4core3ops5arith3MulpE3mulBf_
FN:46,_RNvXININtNtNtNtNtCsjp8PXOiLT2t_8adapters6shared11persistence6schema16__sqlx_migrations7columnssS_0pENtB5_12installed_onINtNtNtCsl8K0bEFm1U0_4core3ops5arith3AddpE3addBf_
FN:46,_RNvXININtNtNtNtNtCsjp8PXOiLT2t_8adapters6shared11persistence6schema16__sqlx_migrations7columnssT_0pENtB5_12installed_onINtNtNtCsl8K0bEFm1U0_4core3ops5arith3SubpE3subBf_
FN:46,_RNvXININtNtNtNtNtCsjp8PXOiLT2t_8adapters6shared11persistence6schema16__sqlx_migrations7columnssg_0pENtB5_7versionINtNtNtCsl8K0bEFm1U0_4core3ops5arith3AddpE3addBf_
FN:46,_RNvXININtNtNtNtNtCsjp8PXOiLT2t_8adapters6shared11persistence6schema16__sqlx_migrations7columnssh_0pENtB5_7versionINtNtNtCsl8K0bEFm1U0_4core3ops5arith3SubpE3subBf_
FN:46,_RNvXININtNtNtNtNtCsjp8PXOiLT2t_8adapters6shared11persistence6schema16__sqlx_migrations7columnssi_0pENtB5_7versionINtNtNtCsl8K0bEFm1U0_4core3ops5arith3DivpE3divBf_
FN:46,_RNvXININtNtNtNtNtCsjp8PXOiLT2t_8adapters6shared11persistence6schema16__sqlx_migrations7columnssj_0pENtB5_7versionINtNtNtCsl8K0bEFm1U0_4core3ops5arith3MulpE3mulBf_
FN:21,_RNvXININtNtNtNtNtCsjp8PXOiLT2t_8adapters6shared11persistence6schema17flashcard_folders7columnss0_0pENtB5_4starINtNtCs4ZchdTtfQ7h_6diesel13query_builder13QueryFragmentpE8walk_astBf_
FN:21,_RNvXININtNtNtNtNtCsjp8PXOiLT2t_8adapters6shared11persistence6schema17flashcard_folders7columnss1E_0pENtB5_10created_atINtNtNtCsl8K0bEFm1U0_4core3ops5arith3AddpE3addBf_
FN:21,_RNvXININtNtNtNtNtCsjp8PXOiLT2t_8adapters6shared11persistence6schema17flashcard_folders7columnss1F_0pENtB5_10created_atINtNtNtCsl8K0bEFm1U0_4core3ops5arith3SubpE3subBf_
FN:21,_RNvXININtNtNtNtNtCsjp8PXOiLT2t_8adapters6shared11persistence6schema17flashcard_folders7columnss1X_0pENtB5_10updated_atINtNtNtCsl8K0bEFm1U0_4core3ops5arith3AddpE3addBf_
FN:21,_RNvXININtNtNtNtNtCsjp8PXOiLT2t_8adapters6shared11persistence6schema17flashcard_folders7columnss1Y_0pENtB5_10updated_atINtNtNtCsl8K0bEFm1U0_4core3ops5arith3SubpE3subBf_
FN:87,_RNvXININtNtNtNtNtCsjp8PXOiLT2t_8adapters6shared11persistence6schema18push_subscriptions7columnss0_0pENtB5_4starINtNtCs4ZchdTtfQ7h_6diesel13query_builder13QueryFragmentpE8walk_astBf_
FN:87,_RNvXININtNtNtNtNtCsjp8PXOiLT2t_8adapters6shared11persistence6schema18push_subscriptions7columnss1D_0pENtB5_10created_atINtNtNtCsl8K0bEFm1U0_4core3ops5arith3AddpE3addBf_
FN:87,_RNvXININtNtNtNtNtCsjp8PXOiLT2t_8adapters6shared11persistence6schema18push_subscriptions7columnss1E_0pENtB5_10created_atINtNtNtCsl8K0bEFm1U0_4core3ops5arith3SubpE3subBf_
FN:8,_RNvXININtNtNtNtNtCsjp8PXOiLT2t_8adapters6shared11persistence6schema22flashcard_folder_items7columnss0_0pENtB5_4starINtNtCs4ZchdTtfQ7h_6diesel13query_builder13QueryFragmentpE8walk_astBf_
FN:138,_RNvXININtNtNtNtNtCsjp8PXOiLT2t_8adapters6shared11persistence6schema5tasks7columnss0_0pENtB5_4starINtNtCs4ZchdTtfQ7h_6diesel13query_builder13QueryFragmentpE8walk_astBf_
FN:138,_RNvXININtNtNtNtNtCsjp8PXOiLT2t_8adapters6shared11persistence6schema5tasks7columnss1V_0pENtB5_14scheduled_dateINtNtNtCsl8K0bEFm1U0_4core3ops5arith3AddpE3addBf_
FN:138,_RNvXININtNtNtNtNtCsjp8PXOiLT2t_8adapters6shared11persistence6schema5tasks7columnss1W_0pENtB5_14scheduled_dateINtNtNtCsl8K0bEFm1U0_4core3ops5arith3SubpE3subBf_
FN:138,_RNvXININtNtNtNtNtCsjp8PXOiLT2t_8adapters6shared11persistence6schema5tasks7columnss2e_0pENtB5_10created_atINtNtNtCsl8K0bEFm1U0_4core3ops5arith3AddpE3addBf_
FN:138,_RNvXININtNtNtNtNtCsjp8PXOiLT2t_8adapters6shared11persistence6schema5tasks7columnss2f_0pENtB5_10created_atINtNtNtCsl8K0bEFm1U0_4core3ops5arith3SubpE3subBf_
FN:138,_RNvXININtNtNtNtNtCsjp8PXOiLT2t_8adapters6shared11persistence6schema5tasks7columnss2x_0pENtB5_12completed_atINtNtNtCsl8K0bEFm1U0_4core3ops5arith3AddpE3addBf_
FN:138,_RNvXININtNtNtNtNtCsjp8PXOiLT2t_8adapters6shared11persistence6schema5tasks7columnss2y_0pENtB5_12completed_atINtNtNtCsl8K0bEFm1U0_4core3ops5arith3SubpE3subBf_
FN:138,_RNvXININtNtNtNtNtCsjp8PXOiLT2t_8adapters6shared11persistence6schema5tasks7columnss38_0pENtB5_10deleted_atINtNtNtCsl8K0bEFm1U0_4core3ops5arith3AddpE3addBf_
FN:138,_RNvXININtNtNtNtNtCsjp8PXOiLT2t_8adapters6shared11persistence6schema5tasks7columnss39_0pENtB5_10deleted_atINtNtNtCsl8K0bEFm1U0_4core3ops5arith3SubpE3subBf_
FN:138,_RNvXININtNtNtNtNtCsjp8PXOiLT2t_8adapters6shared11persistence6schema5tasks7columnss3J_0pENtB5_21schedule_all_day_dateINtNtNtCsl8K0bEFm1U0_4core3ops5arith3AddpE3addBf_
FN:138,_RNvXININtNtNtNtNtCsjp8PXOiLT2t_8adapters6shared11persistence6schema5tasks7columnss3K_0pENtB5_21schedule_all_day_dateINtNtNtCsl8K0bEFm1U0_4core3ops5arith3SubpE3subBf_
FN:138,_RNvXININtNtNtNtNtCsjp8PXOiLT2t_8adapters6shared11persistence6schema5tasks7columnss42_0pENtB5_22schedule_duration_secsINtNtNtCsl8K0bEFm1U0_4core3ops5arith3AddpE3addBf_
FN:138,_RNvXININtNtNtNtNtCsjp8PXOiLT2t_8adapters6shared11persistence6schema5tasks7columnss43_0pENtB5_22schedule_duration_secsINtNtNtCsl8K0bEFm1U0_4core3ops5arith3SubpE3subBf_
FN:138,_RNvXININtNtNtNtNtCsjp8PXOiLT2t_8adapters6shared11persistence6schema5tasks7columnss44_0pENtB5_22schedule_duration_secsINtNtNtCsl8K0bEFm1U0_4core3ops5arith3DivpE3divBf_
FN:138,_RNvXININtNtNtNtNtCsjp8PXOiLT2t_8adapters6shared11persistence6schema5tasks7columnss45_0pENtB5_22schedule_duration_secsINtNtNtCsl8K0bEFm1U0_4core3ops5arith3MulpE3mulBf_
FN:165,_RNvXININtNtNtNtNtCsjp8PXOiLT2t_8adapters6shared11persistence6schema5users7columnss0_0pENtB5_4starINtNtCs4ZchdTtfQ7h_6diesel13query_builder13QueryFragmentpE8walk_astBf_
FN:165,_RNvXININtNtNtNtNtCsjp8PXOiLT2t_8adapters6shared11persistence6schema5users7columnss1I_0pENtB5_10updated_atINtNtNtCsl8K0bEFm1U0_4core3ops5arith3AddpE3addBf_
FN:165,_RNvXININtNtNtNtNtCsjp8PXOiLT2t_8adapters6shared11persistence6schema5users7columnss1J_0pENtB5_10updated_atINtNtNtCsl8K0bEFm1U0_4core3ops5arith3SubpE3subBf_
FN:165,_RNvXININtNtNtNtNtCsjp8PXOiLT2t_8adapters6shared11persistence6schema5users7columnss1p_0pENtB5_10created_atINtNtNtCsl8K0bEFm1U0_4core3ops5arith3AddpE3addBf_
FN:165,_RNvXININtNtNtNtNtCsjp8PXOiLT2t_8adapters6shared11persistence6schema5users7columnss1q_0pENtB5_10created_atINtNtNtCsl8K0bEFm1U0_4core3ops5arith3SubpE3subBf_
FN:165,_RNvXININtNtNtNtNtCsjp8PXOiLT2t_8adapters6shared11persistence6schema5users7columnss21_0pENtB5_10deleted_atINtNtNtCsl8K0bEFm1U0_4core3ops5arith3AddpE3addBf_
FN:165,_RNvXININtNtNtNtNtCsjp8PXOiLT2t_8adapters6shared11persistence6schema5users7columnss22_0pENtB5_10deleted_atINtNtNtCsl8K0bEFm1U0_4core3ops5arith3SubpE3subBf_
FN:116,_RNvXININtNtNtNtNtCsjp8PXOiLT2t_8adapters6shared11persistence6schema8subtasks7columnss0_0pENtB5_4starINtNtCs4ZchdTtfQ7h_6diesel13query_builder13QueryFragmentpE8walk_astBf_
FN:116,_RNvXININtNtNtNtNtCsjp8PXOiLT2t_8adapters6shared11persistence6schema8subtasks7columnss1E_0pENtB5_12completed_atINtNtNtCsl8K0bEFm1U0_4core3ops5arith3AddpE3addBf_
FN:116,_RNvXININtNtNtNtNtCsjp8PXOiLT2t_8adapters6shared11persistence6schema8subtasks7columnss1F_0pENtB5_12completed_atINtNtNtCsl8K0bEFm1U0_4core3ops5arith3SubpE3subBf_
FN:116,_RNvXININtNtNtNtNtCsjp8PXOiLT2t_8adapters6shared11persistence6schema8subtasks7columnss1X_0pENtB5_10sort_orderINtNtNtCsl8K0bEFm1U0_4core3ops5arith3AddpE3addBf_
FN:116,_RNvXININtNtNtNtNtCsjp8PXOiLT2t_8adapters6shared11persistence6schema8subtasks7columnss1Y_0pENtB5_10sort_orderINtNtNtCsl8K0bEFm1U0_4core3ops5arith3SubpE3subBf_
FN:116,_RNvXININtNtNtNtNtCsjp8PXOiLT2t_8adapters6shared11persistence6schema8subtasks7columnss1Z_0pENtB5_10sort_orderINtNtNtCsl8K0bEFm1U0_4core3ops5arith3DivpE3divBf_
FN:116,_RNvXININtNtNtNtNtCsjp8PXOiLT2t_8adapters6shared11persistence6schema8subtasks7columnss20_0pENtB5_10sort_orderINtNtNtCsl8K0bEFm1U0_4core3ops5arith3MulpE3mulBf_
FN:116,_RNvXININtNtNtNtNtCsjp8PXOiLT2t_8adapters6shared11persistence6schema8subtasks7columnss2i_0pENtB5_10created_atINtNtNtCsl8K0bEFm1U0_4core3ops5arith3AddpE3addBf_
FN:116,_RNvXININtNtNtNtNtCsjp8PXOiLT2t_8adapters6shared11persistence6schema8subtasks7columnss2j_0pENtB5_10created_atINtNtNtCsl8K0bEFm1U0_4core3ops5arith3SubpE3subBf_
FN:102,_RNvXININtNtNtNtNtCsjp8PXOiLT2t_8adapters6shared11persistence6schema9reminders7columnss0_0pENtB5_4starINtNtCs4ZchdTtfQ7h_6diesel13query_builder13QueryFragmentpE8walk_astBf_
FN:102,_RNvXININtNtNtNtNtCsjp8PXOiLT2t_8adapters6shared11persistence6schema9reminders7columnss1X_0pENtB5_10created_atINtNtNtCsl8K0bEFm1U0_4core3ops5arith3AddpE3addBf_
FN:102,_RNvXININtNtNtNtNtCsjp8PXOiLT2t_8adapters6shared11persistence6schema9reminders7columnss1Y_0pENtB5_10created_atINtNtNtCsl8K0bEFm1U0_4core3ops5arith3SubpE3subBf_
FN:102,_RNvXININtNtNtNtNtCsjp8PXOiLT2t_8adapters6shared11persistence6schema9reminders7columnss1n_0pENtB5_4dateINtNtNtCsl8K0bEFm1U0_4core3ops5arith3AddpE3addBf_
FN:102,_RNvXININtNtNtNtNtCsjp8PXOiLT2t_8adapters6shared11persistence6schema9reminders7columnss1o_0pENtB5_4dateINtNtNtCsl8K0bEFm1U0_4core3ops5arith3SubpE3subBf_
FN:102,_RNvXININtNtNtNtNtCsjp8PXOiLT2t_8adapters6shared11persistence6schema9reminders7columnss2g_0pENtB5_10updated_atINtNtNtCsl8K0bEFm1U0_4core3ops5arith3AddpE3addBf_
FN:102,_RNvXININtNtNtNtNtCsjp8PXOiLT2t_8adapters6shared11persistence6schema9reminders7columnss2h_0pENtB5_10updated_atINtNtNtCsl8K0bEFm1U0_4core3ops5arith3SubpE3subBf_
FN:35,_RNvMNtNtNtNtCsjp8PXOiLT2t_8adapters6shared11persistence6schema10flashcardsNtB2_5table4star
FN:35,_RNvXs2_NtNtNtNtCsjp8PXOiLT2t_8adapters6shared11persistence6schema10flashcardsNtB5_5tableNtNtCs4ZchdTtfQ7h_6diesel13query_builder7AsQuery8as_query
FN:35,_RNvXs3_NtNtNtNtCsjp8PXOiLT2t_8adapters6shared11persistence6schema10flashcardsNtB5_5tableNtNtCs4ZchdTtfQ7h_6diesel12query_source5Table11all_columns
FN:35,_RNvXs3_NtNtNtNtCsjp8PXOiLT2t_8adapters6shared11persistence6schema10flashcardsNtB5_5tableNtNtCs4ZchdTtfQ7h_6diesel12query_source5Table11primary_key
FN:35,_RNvXs4_NtNtNtNtCsjp8PXOiLT2t_8adapters6shared11persistence6schema10flashcardsNtB5_5tableNtNtCs4ZchdTtfQ7h_6diesel12associations8HasTable5table
FN:35,_RNvXs5_NtNtNtNtCsjp8PXOiLT2t_8adapters6shared11persistence6schema10flashcardsNtB5_5tableNtNtNtNtCs4ZchdTtfQ7h_6diesel13query_builder16update_statement6target16IntoUpdateTarget18into_update_target
FN:35,_RNvXs_NtNtNtNtCsjp8PXOiLT2t_8adapters6shared11persistence6schema10flashcardsNtB4_5tableNtNtCs4ZchdTtfQ7h_6diesel12query_source11QuerySource11from_clause
FN:35,_RNvXs_NtNtNtNtCsjp8PXOiLT2t_8adapters6shared11persistence6schema10flashcardsNtB4_5tableNtNtCs4ZchdTtfQ7h_6diesel12query_source11QuerySource17default_selection
FN:60,_RNvMNtNtNtNtCsjp8PXOiLT2t_8adapters6shared11persistence6schema10categoriesNtB2_5table4star
FN:60,_RNvXs2_NtNtNtNtCsjp8PXOiLT2t_8adapters6shared11persistence6schema10categoriesNtB5_5tableNtNtCs4ZchdTtfQ7h_6diesel13query_builder7AsQuery8as_query
FN:60,_RNvXs3_NtNtNtNtCsjp8PXOiLT2t_8adapters6shared11persistence6schema10categoriesNtB5_5tableNtNtCs4ZchdTtfQ7h_6diesel12query_source5Table11all_columns
FN:60,_RNvXs3_NtNtNtNtCsjp8PXOiLT2t_8adapters6shared11persistence6schema10categoriesNtB5_5tableNtNtCs4ZchdTtfQ7h_6diesel12query_source5Table11primary_key
FN:60,_RNvXs4_NtNtNtNtCsjp8PXOiLT2t_8adapters6shared11persistence6schema10categoriesNtB5_5tableNtNtCs4ZchdTtfQ7h_6diesel12associations8HasTable5table
FN:60,_RNvXs5_NtNtNtNtCsjp8PXOiLT2t_8adapters6shared11persistence6schema10categoriesNtB5_5tableNtNtNtNtCs4ZchdTtfQ7h_6diesel13query_builder16update_statement6target16IntoUpdateTarget18into_update_target
FN:60,_RNvXs_NtNtNtNtCsjp8PXOiLT2t_8adapters6shared11persistence6schema10categoriesNtB4_5tableNtNtCs4ZchdTtfQ7h_6diesel12query_source11QuerySource11from_clause
FN:60,_RNvXs_NtNtNtNtCsjp8PXOiLT2t_8adapters6shared11persistence6schema10categoriesNtB4_5tableNtNtCs4ZchdTtfQ7h_6diesel12query_source11QuerySource17default_selection
FN:87,_RNvMNtNtNtNtCsjp8PXOiLT2t_8adapters6shared11persistence6schema18push_subscriptionsNtB2_5table4star
FN:87,_RNvXs2_NtNtNtNtCsjp8PXOiLT2t_8adapters6shared11persistence6schema18push_subscriptionsNtB5_5tableNtNtCs4ZchdTtfQ7h_6diesel13query_builder7AsQuery8as_query
FN:87,_RNvXs3_NtNtNtNtCsjp8PXOiLT2t_8adapters6shared11persistence6schema18push_subscriptionsNtB5_5tableNtNtCs4ZchdTtfQ7h_6diesel12query_source5Table11all_columns
FN:87,_RNvXs3_NtNtNtNtCsjp8PXOiLT2t_8adapters6shared11persistence6schema18push_subscriptionsNtB5_5tableNtNtCs4ZchdTtfQ7h_6diesel12query_source5Table11primary_key
FN:87,_RNvXs4_NtNtNtNtCsjp8PXOiLT2t_8adapters6shared11persistence6schema18push_subscriptionsNtB5_5tableNtNtCs4ZchdTtfQ7h_6diesel12associations8HasTable5table
FN:87,_RNvXs5_NtNtNtNtCsjp8PXOiLT2t_8adapters6shared11persistence6schema18push_subscriptionsNtB5_5tableNtNtNtNtCs4ZchdTtfQ7h_6diesel13query_builder16update_statement6target16IntoUpdateTarget18into_update_target
FN:87,_RNvXs_NtNtNtNtCsjp8PXOiLT2t_8adapters6shared11persistence6schema18push_subscriptionsNtB4_5tableNtNtCs4ZchdTtfQ7h_6diesel12query_source11QuerySource11from_clause
FN:87,_RNvXs_NtNtNtNtCsjp8PXOiLT2t_8adapters6shared11persistence6schema18push_subscriptionsNtB4_5tableNtNtCs4ZchdTtfQ7h_6diesel12query_source11QuerySource17default_selection
FN:46,_RNvMNtNtNtNtCsjp8PXOiLT2t_8adapters6shared11persistence6schema16__sqlx_migrationsNtB2_5table4star
FN:46,_RNvXs2_NtNtNtNtCsjp8PXOiLT2t_8adapters6shared11persistence6schema16__sqlx_migrationsNtB5_5tableNtNtCs4ZchdTtfQ7h_6diesel13query_builder7AsQuery8as_query
FN:46,_RNvXs3_NtNtNtNtCsjp8PXOiLT2t_8adapters6shared11persistence6schema16__sqlx_migrationsNtB5_5tableNtNtCs4ZchdTtfQ7h_6diesel12query_source5Table11all_columns
FN:46,_RNvXs3_NtNtNtNtCsjp8PXOiLT2t_8adapters6shared11persistence6schema16__sqlx_migrationsNtB5_5tableNtNtCs4ZchdTtfQ7h_6diesel12query_source5Table11primary_key
FN:46,_RNvXs4_NtNtNtNtCsjp8PXOiLT2t_8adapters6shared11persistence6schema16__sqlx_migrationsNtB5_5tableNtNtCs4ZchdTtfQ7h_6diesel12associations8HasTable5table
FN:46,_RNvXs5_NtNtNtNtCsjp8PXOiLT2t_8adapters6shared11persistence6schema16__sqlx_migrationsNtB5_5tableNtNtNtNtCs4ZchdTtfQ7h_6diesel13query_builder16update_statement6target16IntoUpdateTarget18into_update_target
FN:46,_RNvXs_NtNtNtNtCsjp8PXOiLT2t_8adapters6shared11persistence6schema16__sqlx_migrationsNtB4_5tableNtNtCs4ZchdTtfQ7h_6diesel12query_source11QuerySource11from_clause
FN:46,_RNvXs_NtNtNtNtCsjp8PXOiLT2t_8adapters6shared11persistence6schema16__sqlx_migrationsNtB4_5tableNtNtCs4ZchdTtfQ7h_6diesel12query_source11QuerySource17default_selection
FN:21,_RNvMNtNtNtNtCsjp8PXOiLT2t_8adapters6shared11persistence6schema17flashcard_foldersNtB2_5table4star
FN:21,_RNvXs2_NtNtNtNtCsjp8PXOiLT2t_8adapters6shared11persistence6schema17flashcard_foldersNtB5_5tableNtNtCs4ZchdTtfQ7h_6diesel13query_builder7AsQuery8as_query
FN:21,_RNvXs3_NtNtNtNtCsjp8PXOiLT2t_8adapters6shared11persistence6schema17flashcard_foldersNtB5_5tableNtNtCs4ZchdTtfQ7h_6diesel12query_source5Table11all_columns
FN:21,_RNvXs3_NtNtNtNtCsjp8PXOiLT2t_8adapters6shared11persistence6schema17flashcard_foldersNtB5_5tableNtNtCs4ZchdTtfQ7h_6diesel12query_source5Table11primary_key
FN:21,_RNvXs4_NtNtNtNtCsjp8PXOiLT2t_8adapters6shared11persistence6schema17flashcard_foldersNtB5_5tableNtNtCs4ZchdTtfQ7h_6diesel12associations8HasTable5table
FN:21,_RNvXs5_NtNtNtNtCsjp8PXOiLT2t_8adapters6shared11persistence6schema17flashcard_foldersNtB5_5tableNtNtNtNtCs4ZchdTtfQ7h_6diesel13query_builder16update_statement6target16IntoUpdateTarget18into_update_target
FN:21,_RNvXs_NtNtNtNtCsjp8PXOiLT2t_8adapters6shared11persistence6schema17flashcard_foldersNtB4_5tableNtNtCs4ZchdTtfQ7h_6diesel12query_source11QuerySource11from_clause
FN:21,_RNvXs_NtNtNtNtCsjp8PXOiLT2t_8adapters6shared11persistence6schema17flashcard_foldersNtB4_5tableNtNtCs4ZchdTtfQ7h_6diesel12query_source11QuerySource17default_selection
FN:116,_RNvMNtNtNtNtCsjp8PXOiLT2t_8adapters6shared11persistence6schema8subtasksNtB2_5table4star
FN:116,_RNvXs2_NtNtNtNtCsjp8PXOiLT2t_8adapters6shared11persistence6schema8subtasksNtB5_5tableNtNtCs4ZchdTtfQ7h_6diesel13query_builder7AsQuery8as_query
FN:116,_RNvXs3_NtNtNtNtCsjp8PXOiLT2t_8adapters6shared11persistence6schema8subtasksNtB5_5tableNtNtCs4ZchdTtfQ7h_6diesel12query_source5Table11all_columns
FN:116,_RNvXs3_NtNtNtNtCsjp8PXOiLT2t_8adapters6shared11persistence6schema8subtasksNtB5_5tableNtNtCs4ZchdTtfQ7h_6diesel12query_source5Table11primary_key
FN:116,_RNvXs4_NtNtNtNtCsjp8PXOiLT2t_8adapters6shared11persistence6schema8subtasksNtB5_5tableNtNtCs4ZchdTtfQ7h_6diesel12associations8HasTable5table
FN:116,_RNvXs5_NtNtNtNtCsjp8PXOiLT2t_8adapters6shared11persistence6schema8subtasksNtB5_5tableNtNtNtNtCs4ZchdTtfQ7h_6diesel13query_builder16update_statement6target16IntoUpdateTarget18into_update_target
FN:116,_RNvXs_NtNtNtNtCsjp8PXOiLT2t_8adapters6shared11persistence6schema8subtasksNtB4_5tableNtNtCs4ZchdTtfQ7h_6diesel12query_source11QuerySource11from_clause
FN:116,_RNvXs_NtNtNtNtCsjp8PXOiLT2t_8adapters6shared11persistence6schema8subtasksNtB4_5tableNtNtCs4ZchdTtfQ7h_6diesel12query_source11QuerySource17default_selection
FN:102,_RNvMNtNtNtNtCsjp8PXOiLT2t_8adapters6shared11persistence6schema9remindersNtB2_5table4star
FN:102,_RNvXs2_NtNtNtNtCsjp8PXOiLT2t_8adapters6shared11persistence6schema9remindersNtB5_5tableNtNtCs4ZchdTtfQ7h_6diesel13query_builder7AsQuery8as_query
FN:102,_RNvXs3_NtNtNtNtCsjp8PXOiLT2t_8adapters6shared11persistence6schema9remindersNtB5_5tableNtNtCs4ZchdTtfQ7h_6diesel12query_source5Table11all_columns
FN:102,_RNvXs3_NtNtNtNtCsjp8PXOiLT2t_8adapters6shared11persistence6schema9remindersNtB5_5tableNtNtCs4ZchdTtfQ7h_6diesel12query_source5Table11primary_key
FN:102,_RNvXs4_NtNtNtNtCsjp8PXOiLT2t_8adapters6shared11persistence6schema9remindersNtB5_5tableNtNtCs4ZchdTtfQ7h_6diesel12associations8HasTable5table
FN:102,_RNvXs5_NtNtNtNtCsjp8PXOiLT2t_8adapters6shared11persistence6schema9remindersNtB5_5tableNtNtNtNtCs4ZchdTtfQ7h_6diesel13query_builder16update_statement6target16IntoUpdateTarget18into_update_target
FN:102,_RNvXs_NtNtNtNtCsjp8PXOiLT2t_8adapters6shared11persistence6schema9remindersNtB4_5tableNtNtCs4ZchdTtfQ7h_6diesel12query_source11QuerySource11from_clause
FN:102,_RNvXs_NtNtNtNtCsjp8PXOiLT2t_8adapters6shared11persistence6schema9remindersNtB4_5tableNtNtCs4ZchdTtfQ7h_6diesel12query_source11QuerySource17default_selection
FN:138,_RNvMNtNtNtNtCsjp8PXOiLT2t_8adapters6shared11persistence6schema5tasksNtB2_5table4star
FN:138,_RNvXs2_NtNtNtNtCsjp8PXOiLT2t_8adapters6shared11persistence6schema5tasksNtB5_5tableNtNtCs4ZchdTtfQ7h_6diesel13query_builder7AsQuery8as_query
FN:138,_RNvXs3_NtNtNtNtCsjp8PXOiLT2t_8adapters6shared11persistence6schema5tasksNtB5_5tableNtNtCs4ZchdTtfQ7h_6diesel12query_source5Table11all_columns
FN:138,_RNvXs3_NtNtNtNtCsjp8PXOiLT2t_8adapters6shared11persistence6schema5tasksNtB5_5tableNtNtCs4ZchdTtfQ7h_6diesel12query_source5Table11primary_key
FN:138,_RNvXs4_NtNtNtNtCsjp8PXOiLT2t_8adapters6shared11persistence6schema5tasksNtB5_5tableNtNtCs4ZchdTtfQ7h_6diesel12associations8HasTable5table
FN:138,_RNvXs5_NtNtNtNtCsjp8PXOiLT2t_8adapters6shared11persistence6schema5tasksNtB5_5tableNtNtNtNtCs4ZchdTtfQ7h_6diesel13query_builder16update_statement6target16IntoUpdateTarget18into_update_target
FN:138,_RNvXs_NtNtNtNtCsjp8PXOiLT2t_8adapters6shared11persistence6schema5tasksNtB4_5tableNtNtCs4ZchdTtfQ7h_6diesel12query_source11QuerySource11from_clause
FN:138,_RNvXs_NtNtNtNtCsjp8PXOiLT2t_8adapters6shared11persistence6schema5tasksNtB4_5tableNtNtCs4ZchdTtfQ7h_6diesel12query_source11QuerySource17default_selection
FN:165,_RNvMNtNtNtNtCsjp8PXOiLT2t_8adapters6shared11persistence6schema5usersNtB2_5table4star
FN:165,_RNvXs2_NtNtNtNtCsjp8PXOiLT2t_8adapters6shared11persistence6schema5usersNtB5_5tableNtNtCs4ZchdTtfQ7h_6diesel13query_builder7AsQuery8as_query
FN:165,_RNvXs3_NtNtNtNtCsjp8PXOiLT2t_8adapters6shared11persistence6schema5usersNtB5_5tableNtNtCs4ZchdTtfQ7h_6diesel12query_source5Table11all_columns
FN:165,_RNvXs3_NtNtNtNtCsjp8PXOiLT2t_8adapters6shared11persistence6schema5usersNtB5_5tableNtNtCs4ZchdTtfQ7h_6diesel12query_source5Table11primary_key
FN:165,_RNvXs4_NtNtNtNtCsjp8PXOiLT2t_8adapters6shared11persistence6schema5usersNtB5_5tableNtNtCs4ZchdTtfQ7h_6diesel12associations8HasTable5table
FN:165,_RNvXs5_NtNtNtNtCsjp8PXOiLT2t_8adapters6shared11persistence6schema5usersNtB5_5tableNtNtNtNtCs4ZchdTtfQ7h_6diesel13query_builder16update_statement6target16IntoUpdateTarget18into_update_target
FN:165,_RNvXs_NtNtNtNtCsjp8PXOiLT2t_8adapters6shared11persistence6schema5usersNtB4_5tableNtNtCs4ZchdTtfQ7h_6diesel12query_source11QuerySource11from_clause
FN:165,_RNvXs_NtNtNtNtCsjp8PXOiLT2t_8adapters6shared11persistence6schema5usersNtB4_5tableNtNtCs4ZchdTtfQ7h_6diesel12query_source11QuerySource17default_selection
FN:76,_RNvMNtNtNtNtCsjp8PXOiLT2t_8adapters6shared11persistence6schema13focus_sessionNtB2_5table4star
FN:76,_RNvXs2_NtNtNtNtCsjp8PXOiLT2t_8adapters6shared11persistence6schema13focus_sessionNtB5_5tableNtNtCs4ZchdTtfQ7h_6diesel13query_builder7AsQuery8as_query
FN:76,_RNvXs3_NtNtNtNtCsjp8PXOiLT2t_8adapters6shared11persistence6schema13focus_sessionNtB5_5tableNtNtCs4ZchdTtfQ7h_6diesel12query_source5Table11all_columns
FN:76,_RNvXs3_NtNtNtNtCsjp8PXOiLT2t_8adapters6shared11persistence6schema13focus_sessionNtB5_5tableNtNtCs4ZchdTtfQ7h_6diesel12query_source5Table11primary_key
FN:76,_RNvXs4_NtNtNtNtCsjp8PXOiLT2t_8adapters6shared11persistence6schema13focus_sessionNtB5_5tableNtNtCs4ZchdTtfQ7h_6diesel12associations8HasTable5table
FN:76,_RNvXs5_NtNtNtNtCsjp8PXOiLT2t_8adapters6shared11persistence6schema13focus_sessionNtB5_5tableNtNtNtNtCs4ZchdTtfQ7h_6diesel13query_builder16update_statement6target16IntoUpdateTarget18into_update_target
FN:76,_RNvXs_NtNtNtNtCsjp8PXOiLT2t_8adapters6shared11persistence6schema13focus_sessionNtB4_5tableNtNtCs4ZchdTtfQ7h_6diesel12query_source11QuerySource11from_clause
FN:76,_RNvXs_NtNtNtNtCsjp8PXOiLT2t_8adapters6shared11persistence6schema13focus_sessionNtB4_5tableNtNtCs4ZchdTtfQ7h_6diesel12query_source11QuerySource17default_selection
FN:150,_RNvMNtNtNtNtCsjp8PXOiLT2t_8adapters6shared11persistence6schema13user_settingsNtB2_5table4star
FN:150,_RNvXs2_NtNtNtNtCsjp8PXOiLT2t_8adapters6shared11persistence6schema13user_settingsNtB5_5tableNtNtCs4ZchdTtfQ7h_6diesel13query_builder7AsQuery8as_query
FN:150,_RNvXs3_NtNtNtNtCsjp8PXOiLT2t_8adapters6shared11persistence6schema13user_settingsNtB5_5tableNtNtCs4ZchdTtfQ7h_6diesel12query_source5Table11all_columns
FN:150,_RNvXs3_NtNtNtNtCsjp8PXOiLT2t_8adapters6shared11persistence6schema13user_settingsNtB5_5tableNtNtCs4ZchdTtfQ7h_6diesel12query_source5Table11primary_key
FN:150,_RNvXs4_NtNtNtNtCsjp8PXOiLT2t_8adapters6shared11persistence6schema13user_settingsNtB5_5tableNtNtCs4ZchdTtfQ7h_6diesel12associations8HasTable5table
FN:150,_RNvXs5_NtNtNtNtCsjp8PXOiLT2t_8adapters6shared11persistence6schema13user_settingsNtB5_5tableNtNtNtNtCs4ZchdTtfQ7h_6diesel13query_builder16update_statement6target16IntoUpdateTarget18into_update_target
FN:150,_RNvXs_NtNtNtNtCsjp8PXOiLT2t_8adapters6shared11persistence6schema13user_settingsNtB4_5tableNtNtCs4ZchdTtfQ7h_6diesel12query_source11QuerySource11from_clause
FN:150,_RNvXs_NtNtNtNtCsjp8PXOiLT2t_8adapters6shared11persistence6schema13user_settingsNtB4_5tableNtNtCs4ZchdTtfQ7h_6diesel12query_source11QuerySource17default_selection
FNDA:0,_RNvMNtNtNtNtCsi6y5LRNeeCE_8adapters6shared11persistence6schema10categoriesNtB2_5table4star
FNDA:0,_RNvMNtNtNtNtCsi6y5LRNeeCE_8adapters6shared11persistence6schema10flashcardsNtB2_5table4star
FNDA:0,_RNvMNtNtNtNtCsi6y5LRNeeCE_8adapters6shared11persistence6schema13focus_sessionNtB2_5table4star
FNDA:0,_RNvMNtNtNtNtCsi6y5LRNeeCE_8adapters6shared11persistence6schema13user_settingsNtB2_5table4star
FNDA:0,_RNvMNtNtNtNtCsi6y5LRNeeCE_8adapters6shared11persistence6schema16__sqlx_migrationsNtB2_5table4star
FNDA:0,_RNvMNtNtNtNtCsi6y5LRNeeCE_8adapters6shared11persistence6schema17flashcard_foldersNtB2_5table4star
FNDA:0,_RNvMNtNtNtNtCsi6y5LRNeeCE_8adapters6shared11persistence6schema18push_subscriptionsNtB2_5table4star
FNDA:0,_RNvMNtNtNtNtCsi6y5LRNeeCE_8adapters6shared11persistence6schema22flashcard_folder_itemsNtB2_5table4star
FNDA:0,_RNvMNtNtNtNtCsi6y5LRNeeCE_8adapters6shared11persistence6schema5tasksNtB2_5table4star
FNDA:0,_RNvMNtNtNtNtCsi6y5LRNeeCE_8adapters6shared11persistence6schema5usersNtB2_5table4star
FNDA:0,_RNvMNtNtNtNtCsi6y5LRNeeCE_8adapters6shared11persistence6schema8subtasksNtB2_5table4star
FNDA:0,_RNvMNtNtNtNtCsi6y5LRNeeCE_8adapters6shared11persistence6schema9remindersNtB2_5table4star
FNDA:0,_RNvXININtNtNtNtCsi6y5LRNeeCE_8adapters6shared11persistence6schema10categoriess0_0pENtB5_5tableINtNtCs4ZchdTtfQ7h_6diesel13query_builder13QueryFragmentpE8walk_astBd_
FNDA:0,_RNvXININtNtNtNtCsi6y5LRNeeCE_8adapters6shared11persistence6schema10categoriessa_0ppENtB5_5tableINtNtNtNtCs4ZchdTtfQ7h_6diesel12query_source8aliasing18field_alias_mapper48FieldAliasMapperAssociatedTypesDisjointnessTrickB1k_ppE3mapBd_
FNDA:0,_RNvXININtNtNtNtCsi6y5LRNeeCE_8adapters6shared11persistence6schema10categoriessc_0pppENtB5_5tableINtNtNtCs4ZchdTtfQ7h_6diesel12query_source5joins6JoinToINtB1z_4JoinpppEE11join_targetBd_
FNDA:0,_RNvXININtNtNtNtCsi6y5LRNeeCE_8adapters6shared11persistence6schema10categoriessd_0ppENtB5_5tableINtNtNtCs4ZchdTtfQ7h_6diesel12query_source5joins6JoinToINtB1y_6JoinOnppEE11join_targetBd_
FNDA:0,_RNvXININtNtNtNtCsi6y5LRNeeCE_8adapters6shared11persistence6schema10categoriesse_0ppppppppENtB5_5tableINtNtNtCs4ZchdTtfQ7h_6diesel12query_source5joins6JoinToINtNtNtB1I_13query_builder16select_statement15SelectStatementINtNtB2z_11from_clause10FromClausepEpppppppEE11join_targetBd_
FNDA:0,_RNvXININtNtNtNtCsi6y5LRNeeCE_8adapters6shared11persistence6schema10categoriessf_0pppENtB5_5tableINtNtNtCs4ZchdTtfQ7h_6diesel12query_source5joins6JoinToINtNtNtNtB1D_13query_builder16select_statement5boxed20BoxedSelectStatementINtNtB2w_11from_clause10FromClausepEppEE11join_targetBd_
FNDA:0,_RNvXININtNtNtNtCsi6y5LRNeeCE_8adapters6shared11persistence6schema10categoriessg_0pENtB5_5tableINtNtNtCs4ZchdTtfQ7h_6diesel12query_source5joins6JoinToINtNtNtB1z_8aliasing5alias5AliaspEE11join_targetBd_
FNDA:0,_RNvXININtNtNtNtCsi6y5LRNeeCE_8adapters6shared11persistence6schema10categoriessh_0pENtB5_5tableINtNtCs4ZchdTtfQ7h_6diesel10insertable10InsertablepE6valuesBd_
FNDA:0,_RNvXININtNtNtNtCsi6y5LRNeeCE_8adapters6shared11persistence6schema10categoriessi_0pERNtB5_5tableINtNtCs4ZchdTtfQ7h_6diesel10insertable10InsertablepE6valuesBd_
FNDA:0,_RNvXININtNtNtNtCsi6y5LRNeeCE_8adapters6shared11persistence6schema10categoriessj_0pENtB5_5tableINtNtNtCs4ZchdTtfQ7h_6diesel12query_source5joins6JoinToINtNtNtNtB1B_2pg13query_builder4only4OnlypEE11join_targetBd_
FNDA:0,_RNvXININtNtNtNtCsi6y5LRNeeCE_8adapters6shared11persistence6schema10categoriessm_0ppENtB5_5tableINtNtNtCs4ZchdTtfQ7h_6diesel12query_source5joins6JoinToINtNtNtNtB1C_2pg13query_builder11tablesample11TablesampleppEE11join_targetBd_
FNDA:0,_RNvXININtNtNtNtCsi6y5LRNeeCE_8adapters6shared11persistence6schema10flashcardss0_0pENtB5_5tableINtNtCs4ZchdTtfQ7h_6diesel13query_builder13QueryFragmentpE8walk_astBd_
FNDA:0,_RNvXININtNtNtNtCsi6y5LRNeeCE_8adapters6shared11persistence6schema10flashcardssa_0ppENtB5_5tableINtNtNtNtCs4ZchdTtfQ7h_6diesel12query_source8aliasing18field_alias_mapper48FieldAliasMapperAssociatedTypesDisjointnessTrickB1k_ppE3mapBd_
FNDA:0,_RNvXININtNtNtNtCsi6y5LRNeeCE_8adapters6shared11persistence6schema10flashcardssc_0pppENtB5_5tableINtNtNtCs4ZchdTtfQ7h_6diesel12query_source5joins6JoinToINtB1z_4JoinpppEE11join_targetBd_
FNDA:0,_RNvXININtNtNtNtCsi6y5LRNeeCE_8adapters6shared11persistence6schema10flashcardssd_0ppENtB5_5tableINtNtNtCs4ZchdTtfQ7h_6diesel12query_source5joins6JoinToINtB1y_6JoinOnppEE11join_targetBd_
FNDA:0,_RNvXININtNtNtNtCsi6y5LRNeeCE_8adapters6shared11persistence6schema10flashcardsse_0ppppppppENtB5_5tableINtNtNtCs4ZchdTtfQ7h_6diesel12query_source5joins6JoinToINtNtNtB1I_13query_builder16select_statement15SelectStatementINtNtB2z_11from_clause10FromClausepEpppppppEE11join_targetBd_
FNDA:0,_RNvXININtNtNtNtCsi6y5LRNeeCE_8adapters6shared11persistence6schema10flashcardssf_0pppENtB5_5tableINtNtNtCs4ZchdTtfQ7h_6diesel12query_source5joins6JoinToINtNtNtNtB1D_13query_builder16select_statement5boxed20BoxedSelectStatementINtNtB2w_11from_clause10FromClausepEppEE11join_targetBd_
FNDA:0,_RNvXININtNtNtNtCsi6y5LRNeeCE_8adapters6shared11persistence6schema10flashcardssg_0pENtB5_5tableINtNtNtCs4ZchdTtfQ7h_6diesel12query_source5joins6JoinToINtNtNtB1z_8aliasing5alias5AliaspEE11join_targetBd_
FNDA:0,_RNvXININtNtNtNtCsi6y5LRNeeCE_8adapters6shared11persistence6schema10flashcardssh_0pENtB5_5tableINtNtCs4ZchdTtfQ7h_6diesel10insertable10InsertablepE6valuesBd_
FNDA:0,_RNvXININtNtNtNtCsi6y5LRNeeCE_8adapters6shared11persistence6schema10flashcardssi_0pERNtB5_5tableINtNtCs4ZchdTtfQ7h_6diesel10insertable10InsertablepE6valuesBd_
FNDA:0,_RNvXININtNtNtNtCsi6y5LRNeeCE_8adapters6shared11persistence6schema10flashcardssj_0pENtB5_5tableINtNtNtCs4ZchdTtfQ7h_6diesel12query_source5joins6JoinToINtNtNtNtB1B_2pg13query_builder4only4OnlypEE11join_targetBd_
FNDA:0,_RNvXININtNtNtNtCsi6y5LRNeeCE_8adapters6shared11persistence6schema10flashcardssm_0ppENtB5_5tableINtNtNtCs4ZchdTtfQ7h_6diesel12query_source5joins6JoinToINtNtNtNtB1C_2pg13query_builder11tablesample11TablesampleppEE11join_targetBd_
FNDA:0,_RNvXININtNtNtNtCsi6y5LRNeeCE_8adapters6shared11persistence6schema13focus_sessions0_0pENtB5_5tableINtNtCs4ZchdTtfQ7h_6diesel13query_builder13QueryFragmentpE8walk_astBd_
FNDA:0,_RNvXININtNtNtNtCsi6y5LRNeeCE_8adapters6shared11persistence6schema13focus_sessionsa_0ppENtB5_5tableINtNtNtNtCs4ZchdTtfQ7h_6diesel12query_source8aliasing18field_alias_mapper48FieldAliasMapperAssociatedTypesDisjointnessTrickB1n_ppE3mapBd_
FNDA:0,_RNvXININtNtNtNtCsi6y5LRNeeCE_8adapters6shared11persistence6schema13focus_sessionsc_0pppENtB5_5tableINtNtNtCs4ZchdTtfQ7h_6diesel12query_source5joins6JoinToINtB1C_4JoinpppEE11join_targetBd_
FNDA:0,_RNvXININtNtNtNtCsi6y5LRNeeCE_8adapters6shared11persistence6schema13focus_sessionsd_0ppENtB5_5tableINtNtNtCs4ZchdTtfQ7h_6diesel12query_source5joins6JoinToINtB1B_6JoinOnppEE11join_targetBd_
FNDA:0,_RNvXININtNtNtNtCsi6y5LRNeeCE_8adapters6shared11persistence6schema13focus_sessionse_0ppppppppENtB5_5tableINtNtNtCs4ZchdTtfQ7h_6diesel12query_source5joins6JoinToINtNtNtB1L_13query_builder16select_statement15SelectStatementINtNtB2C_11from_clause10FromClausepEpppppppEE11join_targetBd_
FNDA:0,_RNvXININtNtNtNtCsi6y5LRNeeCE_8adapters6shared11persistence6schema13focus_sessionsf_0pppENtB5_5tableINtNtNtCs4ZchdTtfQ7h_6diesel12query_source5joins6JoinToINtNtNtNtB1G_13query_builder16select_statement5boxed20BoxedSelectStatementINtNtB2z_11from_clause10FromClausepEppEE11join_targetBd_
FNDA:0,_RNvXININtNtNtNtCsi6y5LRNeeCE_8adapters6shared11persistence6schema13focus_sessionsg_0pENtB5_5tableINtNtNtCs4ZchdTtfQ7h_6diesel12query_source5joins6JoinToINtNtNtB1C_8aliasing5alias5AliaspEE11join_targetBd_
FNDA:0,_RNvXININtNtNtNtCsi6y5LRNeeCE_8adapters6shared11persistence6schema13focus_sessionsh_0pENtB5_5tableINtNtCs4ZchdTtfQ7h_6diesel10insertable10InsertablepE6valuesBd_
FNDA:0,_RNvXININtNtNtNtCsi6y5LRNeeCE_8adapters6shared11persistence6schema13focus_sessionsi_0pERNtB5_5tableINtNtCs4ZchdTtfQ7h_6diesel10insertable10InsertablepE6valuesBd_
FNDA:0,_RNvXININtNtNtNtCsi6y5LRNeeCE_8adapters6shared11persistence6schema13focus_sessionsj_0pENtB5_5tableINtNtNtCs4ZchdTtfQ7h_6diesel12query_source5joins6JoinToINtNtNtNtB1E_2pg13query_builder4only4OnlypEE11join_targetBd_
FNDA:0,_RNvXININtNtNtNtCsi6y5LRNeeCE_8adapters6shared11persistence6schema13focus_sessionsm_0ppENtB5_5tableINtNtNtCs4ZchdTtfQ7h_6diesel12query_source5joins6JoinToINtNtNtNtB1F_2pg13query_builder11tablesample11TablesampleppEE11join_targetBd_
FNDA:0,_RNvXININtNtNtNtCsi6y5LRNeeCE_8adapters6shared11persistence6schema13user_settingss0_0pENtB5_5tableINtNtCs4ZchdTtfQ7h_6diesel13query_builder13QueryFragmentpE8walk_astBd_
FNDA:0,_RNvXININtNtNtNtCsi6y5LRNeeCE_8adapters6shared11persistence6schema13user_settingssa_0ppENtB5_5tableINtNtNtNtCs4ZchdTtfQ7h_6diesel12query_source8aliasing18field_alias_mapper48FieldAliasMapperAssociatedTypesDisjointnessTrickB1n_ppE3mapBd_
FNDA:0,_RNvXININtNtNtNtCsi6y5LRNeeCE_8adapters6shared11persistence6schema13user_settingssc_0pppENtB5_5tableINtNtNtCs4ZchdTtfQ7h_6diesel12query_source5joins6JoinToINtB1C_4JoinpppEE11join_targetBd_
FNDA:0,_RNvXININtNtNtNtCsi6y5LRNeeCE_8adapters6shared11persistence6schema13user_settingssd_0ppENtB5_5tableINtNtNtCs4ZchdTtfQ7h_6diesel12query_source5joins6JoinToINtB1B_6JoinOnppEE11join_targetBd_
FNDA:0,_RNvXININtNtNtNtCsi6y5LRNeeCE_8adapters6shared11persistence6schema13user_settingsse_0ppppppppENtB5_5tableINtNtNtCs4ZchdTtfQ7h_6diesel12query_source5joins6JoinToINtNtNtB1L_13query_builder16select_statement15SelectStatementINtNtB2C_11from_clause10FromClausepEpppppppEE11join_targetBd_
FNDA:0,_RNvXININtNtNtNtCsi6y5LRNeeCE_8adapters6shared11persistence6schema13user_settingssf_0pppENtB5_5tableINtNtNtCs4ZchdTtfQ7h_6diesel12query_source5joins6JoinToINtNtNtNtB1G_13query_builder16select_statement5boxed20BoxedSelectStatementINtNtB2z_11from_clause10FromClausepEppEE11join_targetBd_
FNDA:0,_RNvXININtNtNtNtCsi6y5LRNeeCE_8adapters6shared11persistence6schema13user_settingssg_0pENtB5_5tableINtNtNtCs4ZchdTtfQ7h_6diesel12query_source5joins6JoinToINtNtNtB1C_8aliasing5alias5AliaspEE11join_targetBd_
FNDA:0,_RNvXININtNtNtNtCsi6y5LRNeeCE_8adapters6shared11persistence6schema13user_settingssh_0pENtB5_5tableINtNtCs4ZchdTtfQ7h_6diesel10insertable10InsertablepE6valuesBd_
FNDA:0,_RNvXININtNtNtNtCsi6y5LRNeeCE_8adapters6shared11persistence6schema13user_settingssi_0pERNtB5_5tableINtNtCs4ZchdTtfQ7h_6diesel10insertable10InsertablepE6valuesBd_
FNDA:0,_RNvXININtNtNtNtCsi6y5LRNeeCE_8adapters6shared11persistence6schema13user_settingssj_0pENtB5_5tableINtNtNtCs4ZchdTtfQ7h_6diesel12query_source5joins6JoinToINtNtNtNtB1E_2pg13query_builder4only4OnlypEE11join_targetBd_
FNDA:0,_RNvXININtNtNtNtCsi6y5LRNeeCE_8adapters6shared11persistence6schema13user_settingssm_0ppENtB5_5tableINtNtNtCs4ZchdTtfQ7h_6diesel12query_source5joins6JoinToINtNtNtNtB1F_2pg13query_builder11tablesample11TablesampleppEE11join_targetBd_
FNDA:0,_RNvXININtNtNtNtCsi6y5LRNeeCE_8adapters6shared11persistence6schema16__sqlx_migrationss0_0pENtB5_5tableINtNtCs4ZchdTtfQ7h_6diesel13query_builder13QueryFragmentpE8walk_astBd_
FNDA:0,_RNvXININtNtNtNtCsi6y5LRNeeCE_8adapters6shared11persistence6schema16__sqlx_migrationssa_0ppENtB5_5tableINtNtNtNtCs4ZchdTtfQ7h_6diesel12query_source8aliasing18field_alias_mapper48FieldAliasMapperAssociatedTypesDisjointnessTrickB1r_ppE3mapBd_
FNDA:0,_RNvXININtNtNtNtCsi6y5LRNeeCE_8adapters6shared11persistence6schema16__sqlx_migrationssc_0pppENtB5_5tableINtNtNtCs4ZchdTtfQ7h_6diesel12query_source5joins6JoinToINtB1G_4JoinpppEE11join_targetBd_
FNDA:0,_RNvXININtNtNtNtCsi6y5LRNeeCE_8adapters6shared11persistence6schema16__sqlx_migrationssd_0ppENtB5_5tableINtNtNtCs4ZchdTtfQ7h_6diesel12query_source5joins6JoinToINtB1F_6JoinOnppEE11join_targetBd_
FNDA:0,_RNvXININtNtNtNtCsi6y5LRNeeCE_8adapters6shared11persistence6schema16__sqlx_migrationsse_0ppppppppENtB5_5tableINtNtNtCs4ZchdTtfQ7h_6diesel12query_source5joins6JoinToINtNtNtB1P_13query_builder16select_statement15SelectStatementINtNtB2G_11from_clause10FromClausepEpppppppEE11join_targetBd_
FNDA:0,_RNvXININtNtNtNtCsi6y5LRNeeCE_8adapters6shared11persistence6schema16__sqlx_migrationssf_0pppENtB5_5tableINtNtNtCs4ZchdTtfQ7h_6diesel12query_source5joins6JoinToINtNtNtNtB1K_13query_builder16select_statement5boxed20BoxedSelectStatementINtNtB2D_11from_clause10FromClausepEppEE11join_targetBd_
FNDA:0,_RNvXININtNtNtNtCsi6y5LRNeeCE_8adapters6shared11persistence6schema16__sqlx_migrationssg_0pENtB5_5tableINtNtNtCs4ZchdTtfQ7h_6diesel12query_source5joins6JoinToINtNtNtB1G_8aliasing5alias5AliaspEE11join_targetBd_
FNDA:0,_RNvXININtNtNtNtCsi6y5LRNeeCE_8adapters6shared11persistence6schema16__sqlx_migrationssh_0pENtB5_5tableINtNtCs4ZchdTtfQ7h_6diesel10insertable10InsertablepE6valuesBd_
FNDA:0,_RNvXININtNtNtNtCsi6y5LRNeeCE_8adapters6shared11persistence6schema16__sqlx_migrationssi_0pERNtB5_5tableINtNtCs4ZchdTtfQ7h_6diesel10insertable10InsertablepE6valuesBd_
FNDA:0,_RNvXININtNtNtNtCsi6y5LRNeeCE_8adapters6shared11persistence6schema16__sqlx_migrationssj_0pENtB5_5tableINtNtNtCs4ZchdTtfQ7h_6diesel12query_source5joins6JoinToINtNtNtNtB1I_2pg13query_builder4only4OnlypEE11join_targetBd_
FNDA:0,_RNvXININtNtNtNtCsi6y5LRNeeCE_8adapters6shared11persistence6schema16__sqlx_migrationssm_0ppENtB5_5tableINtNtNtCs4ZchdTtfQ7h_6diesel12query_source5joins6JoinToINtNtNtNtB1J_2pg13query_builder11tablesample11TablesampleppEE11join_targetBd_
FNDA:0,_RNvXININtNtNtNtCsi6y5LRNeeCE_8adapters6shared11persistence6schema17flashcard_folderss0_0pENtB5_5tableINtNtCs4ZchdTtfQ7h_6diesel13query_builder13QueryFragmentpE8walk_astBd_
FNDA:0,_RNvXININtNtNtNtCsi6y5LRNeeCE_8adapters6shared11persistence6schema17flashcard_folderssa_0ppENtB5_5tableINtNtNtNtCs4ZchdTtfQ7h_6diesel12query_source8aliasing18field_alias_mapper48FieldAliasMapperAssociatedTypesDisjointnessTrickB1r_ppE3mapBd_
FNDA:0,_RNvXININtNtNtNtCsi6y5LRNeeCE_8adapters6shared11persistence6schema17flashcard_folderssc_0pppENtB5_5tableINtNtNtCs4ZchdTtfQ7h_6diesel12query_source5joins6JoinToINtB1G_4JoinpppEE11join_targetBd_
FNDA:0,_RNvXININtNtNtNtCsi6y5LRNeeCE_8adapters6shared11persistence6schema17flashcard_folderssd_0ppENtB5_5tableINtNtNtCs4ZchdTtfQ7h_6diesel12query_source5joins6JoinToINtB1F_6JoinOnppEE11join_targetBd_
FNDA:0,_RNvXININtNtNtNtCsi6y5LRNeeCE_8adapters6shared11persistence6schema17flashcard_foldersse_0ppppppppENtB5_5tableINtNtNtCs4ZchdTtfQ7h_6diesel12query_source5joins6JoinToINtNtNtB1P_13query_builder16select_statement15SelectStatementINtNtB2G_11from_clause10FromClausepEpppppppEE11join_targetBd_
FNDA:0,_RNvXININtNtNtNtCsi6y5LRNeeCE_8adapters6shared11persistence6schema17flashcard_folderssf_0pppENtB5_5tableINtNtNtCs4ZchdTtfQ7h_6diesel12query_source5joins6JoinToINtNtNtNtB1K_13query_builder16select_statement5boxed20BoxedSelectStatementINtNtB2D_11from_clause10FromClausepEppEE11join_targetBd_
FNDA:0,_RNvXININtNtNtNtCsi6y5LRNeeCE_8adapters6shared11persistence6schema17flashcard_folderssg_0pENtB5_5tableINtNtNtCs4ZchdTtfQ7h_6diesel12query_source5joins6JoinToINtNtNtB1G_8aliasing5alias5AliaspEE11join_targetBd_
FNDA:0,_RNvXININtNtNtNtCsi6y5LRNeeCE_8adapters6shared11persistence6schema17flashcard_folderssh_0pENtB5_5tableINtNtCs4ZchdTtfQ7h_6diesel10insertable10InsertablepE6valuesBd_
FNDA:0,_RNvXININtNtNtNtCsi6y5LRNeeCE_8adapters6shared11persistence6schema17flashcard_folderssi_0pERNtB5_5tableINtNtCs4ZchdTtfQ7h_6diesel10insertable10InsertablepE6valuesBd_
FNDA:0,_RNvXININtNtNtNtCsi6y5LRNeeCE_8adapters6shared11persistence6schema17flashcard_folderssj_0pENtB5_5tableINtNtNtCs4ZchdTtfQ7h_6diesel12query_source5joins6JoinToINtNtNtNtB1I_2pg13query_builder4only4OnlypEE11join_targetBd_
FNDA:0,_RNvXININtNtNtNtCsi6y5LRNeeCE_8adapters6shared11persistence6schema17flashcard_folderssm_0ppENtB5_5tableINtNtNtCs4ZchdTtfQ7h_6diesel12query_source5joins6JoinToINtNtNtNtB1J_2pg13query_builder11tablesample11TablesampleppEE11join_targetBd_
FNDA:0,_RNvXININtNtNtNtCsi6y5LRNeeCE_8adapters6shared11persistence6schema18push_subscriptionss0_0pENtB5_5tableINtNtCs4ZchdTtfQ7h_6diesel13query_builder13QueryFragmentpE8walk_astBd_
FNDA:0,_RNvXININtNtNtNtCsi6y5LRNeeCE_8adapters6shared11persistence6schema18push_subscriptionssa_0ppENtB5_5tableINtNtNtNtCs4ZchdTtfQ7h_6diesel12query_source8aliasing18field_alias_mapper48FieldAliasMapperAssociatedTypesDisjointnessTrickB1s_ppE3mapBd_
FNDA:0,_RNvXININtNtNtNtCsi6y5LRNeeCE_8adapters6shared11persistence6schema18push_subscriptionssc_0pppENtB5_5tableINtNtNtCs4ZchdTtfQ7h_6diesel12query_source5joins6JoinToINtB1H_4JoinpppEE11join_targetBd_
FNDA:0,_RNvXININtNtNtNtCsi6y5LRNeeCE_8adapters6shared11persistence6schema18push_subscriptionssd_0ppENtB5_5tableINtNtNtCs4ZchdTtfQ7h_6diesel12query_source5joins6JoinToINtB1G_6JoinOnppEE11join_targetBd_
FNDA:0,_RNvXININtNtNtNtCsi6y5LRNeeCE_8adapters6shared11persistence6schema18push_subscriptionsse_0ppppppppENtB5_5tableINtNtNtCs4ZchdTtfQ7h_6diesel12query_source5joins6JoinToINtNtNtB1Q_13query_builder16select_statement15SelectStatementINtNtB2H_11from_clause10FromClausepEpppppppEE11join_targetBd_
FNDA:0,_RNvXININtNtNtNtCsi6y5LRNeeCE_8adapters6shared11persistence6schema18push_subscriptionssf_0pppENtB5_5tableINtNtNtCs4ZchdTtfQ7h_6diesel12query_source5joins6JoinToINtNtNtNtB1L_13query_builder16select_statement5boxed20BoxedSelectStatementINtNtB2E_11from_clause10FromClausepEppEE11join_targetBd_
FNDA:0,_RNvXININtNtNtNtCsi6y5LRNeeCE_8adapters6shared11persistence6schema18push_subscriptionssg_0pENtB5_5tableINtNtNtCs4ZchdTtfQ7h_6diesel12query_source5joins6JoinToINtNtNtB1H_8aliasing5alias5AliaspEE11join_targetBd_
FNDA:0,_RNvXININtNtNtNtCsi6y5LRNeeCE_8adapters6shared11persistence6schema18push_subscriptionssh_0pENtB5_5tableINtNtCs4ZchdTtfQ7h_6diesel10insertable10InsertablepE6valuesBd_
FNDA:0,_RNvXININtNtNtNtCsi6y5LRNeeCE_8adapters6shared11persistence6schema18push_subscriptionssi_0pERNtB5_5tableINtNtCs4ZchdTtfQ7h_6diesel10insertable10InsertablepE6valuesBd_
FNDA:0,_RNvXININtNtNtNtCsi6y5LRNeeCE_8adapters6shared11persistence6schema18push_subscriptionssj_0pENtB5_5tableINtNtNtCs4ZchdTtfQ7h_6diesel12query_source5joins6JoinToINtNtNtNtB1J_2pg13query_builder4only4OnlypEE11join_targetBd_
FNDA:0,_RNvXININtNtNtNtCsi6y5LRNeeCE_8adapters6shared11persistence6schema18push_subscriptionssm_0ppENtB5_5tableINtNtNtCs4ZchdTtfQ7h_6diesel12query_source5joins6JoinToINtNtNtNtB1K_2pg13query_builder11tablesample11TablesampleppEE11join_targetBd_
FNDA:0,_RNvXININtNtNtNtCsi6y5LRNeeCE_8adapters6shared11persistence6schema22flashcard_folder_itemss0_0pENtB5_5tableINtNtCs4ZchdTtfQ7h_6diesel13query_builder13QueryFragmentpE8walk_astBd_
FNDA:0,_RNvXININtNtNtNtCsi6y5LRNeeCE_8adapters6shared11persistence6schema22flashcard_folder_itemssa_0ppENtB5_5tableINtNtNtNtCs4ZchdTtfQ7h_6diesel12query_source8aliasing18field_alias_mapper48FieldAliasMapperAssociatedTypesDisjointnessTrickB1w_ppE3mapBd_
FNDA:0,_RNvXININtNtNtNtCsi6y5LRNeeCE_8adapters6shared11persistence6schema22flashcard_folder_itemssc_0pppENtB5_5tableINtNtNtCs4ZchdTtfQ7h_6diesel12query_source5joins6JoinToINtB1L_4JoinpppEE11join_targetBd_
FNDA:0,_RNvXININtNtNtNtCsi6y5LRNeeCE_8adapters6shared11persistence6schema22flashcard_folder_itemssd_0ppENtB5_5tableINtNtNtCs4ZchdTtfQ7h_6diesel12query_source5joins6JoinToINtB1K_6JoinOnppEE11join_targetBd_
FNDA:0,_RNvXININtNtNtNtCsi6y5LRNeeCE_8adapters6shared11persistence6schema22flashcard_folder_itemsse_0ppppppppENtB5_5tableINtNtNtCs4ZchdTtfQ7h_6diesel12query_source5joins6JoinToINtNtNtB1U_13query_builder16select_statement15SelectStatementINtNtB2L_11from_clause10FromClausepEpppppppEE11join_targetBd_
FNDA:0,_RNvXININtNtNtNtCsi6y5LRNeeCE_8adapters6shared11persistence6schema22flashcard_folder_itemssf_0pppENtB5_5tableINtNtNtCs4ZchdTtfQ7h_6diesel12query_source5joins6JoinToINtNtNtNtB1P_13query_builder16select_statement5boxed20BoxedSelectStatementINtNtB2I_11from_clause10FromClausepEppEE11join_targetBd_
FNDA:0,_RNvXININtNtNtNtCsi6y5LRNeeCE_8adapters6shared11persistence6schema22flashcard_folder_itemssg_0pENtB5_5tableINtNtNtCs4ZchdTtfQ7h_6diesel12query_source5joins6JoinToINtNtNtB1L_8aliasing5alias5AliaspEE11join_targetBd_
FNDA:0,_RNvXININtNtNtNtCsi6y5LRNeeCE_8adapters6shared11persistence6schema22flashcard_folder_itemssh_0pENtB5_5tableINtNtCs4ZchdTtfQ7h_6diesel10insertable10InsertablepE6valuesBd_
FNDA:0,_RNvXININtNtNtNtCsi6y5LRNeeCE_8adapters6shared11persistence6schema22flashcard_folder_itemssi_0pERNtB5_5tableINtNtCs4ZchdTtfQ7h_6diesel10insertable10InsertablepE6valuesBd_
FNDA:0,_RNvXININtNtNtNtCsi6y5LRNeeCE_8adapters6shared11persistence6schema22flashcard_folder_itemssj_0pENtB5_5tableINtNtNtCs4ZchdTtfQ7h_6diesel12query_source5joins6JoinToINtNtNtNtB1N_2pg13query_builder4only4OnlypEE11join_targetBd_
FNDA:0,_RNvXININtNtNtNtCsi6y5LRNeeCE_8adapters6shared11persistence6schema22flashcard_folder_itemssm_0ppENtB5_5tableINtNtNtCs4ZchdTtfQ7h_6diesel12query_source5joins6JoinToINtNtNtNtB1O_2pg13query_builder11tablesample11TablesampleppEE11join_targetBd_
FNDA:0,_RNvXININtNtNtNtCsi6y5LRNeeCE_8adapters6shared11persistence6schema5taskss0_0pENtB5_5tableINtNtCs4ZchdTtfQ7h_6diesel13query_builder13QueryFragmentpE8walk_astBd_
FNDA:0,_RNvXININtNtNtNtCsi6y5LRNeeCE_8adapters6shared11persistence6schema5taskssa_0ppENtB5_5tableINtNtNtNtCs4ZchdTtfQ7h_6diesel12query_source8aliasing18field_alias_mapper48FieldAliasMapperAssociatedTypesDisjointnessTrickB1e_ppE3mapBd_
FNDA:0,_RNvXININtNtNtNtCsi6y5LRNeeCE_8adapters6shared11persistence6schema5taskssc_0pppENtB5_5tableINtNtNtCs4ZchdTtfQ7h_6diesel12query_source5joins6JoinToINtB1t_4JoinpppEE11join_targetBd_
FNDA:0,_RNvXININtNtNtNtCsi6y5LRNeeCE_8adapters6shared11persistence6schema5taskssd_0ppENtB5_5tableINtNtNtCs4ZchdTtfQ7h_6diesel12query_source5joins6JoinToINtB1s_6JoinOnppEE11join_targetBd_
FNDA:0,_RNvXININtNtNtNtCsi6y5LRNeeCE_8adapters6shared11persistence6schema5tasksse_0ppppppppENtB5_5tableINtNtNtCs4ZchdTtfQ7h_6diesel12query_source5joins6JoinToINtNtNtB1C_13query_builder16select_statement15SelectStatementINtNtB2t_11from_clause10FromClausepEpppppppEE11join_targetBd_
FNDA:0,_RNvXININtNtNtNtCsi6y5LRNeeCE_8adapters6shared11persistence6schema5taskssf_0pppENtB5_5tableINtNtNtCs4ZchdTtfQ7h_6diesel12query_source5joins6JoinToINtNtNtNtB1x_13query_builder16select_statement5boxed20BoxedSelectStatementINtNtB2q_11from_clause10FromClausepEppEE11join_targetBd_
FNDA:0,_RNvXININtNtNtNtCsi6y5LRNeeCE_8adapters6shared11persistence6schema5taskssg_0pENtB5_5tableINtNtNtCs4ZchdTtfQ7h_6diesel12query_source5joins6JoinToINtNtNtB1t_8aliasing5alias5AliaspEE11join_targetBd_
FNDA:0,_RNvXININtNtNtNtCsi6y5LRNeeCE_8adapters6shared11persistence6schema5taskssh_0pENtB5_5tableINtNtCs4ZchdTtfQ7h_6diesel10insertable10InsertablepE6valuesBd_
FNDA:0,_RNvXININtNtNtNtCsi6y5LRNeeCE_8adapters6shared11persistence6schema5taskssi_0pERNtB5_5tableINtNtCs4ZchdTtfQ7h_6diesel10insertable10InsertablepE6valuesBd_
FNDA:0,_RNvXININtNtNtNtCsi6y5LRNeeCE_8adapters6shared11persistence6schema5taskssj_0pENtB5_5tableINtNtNtCs4ZchdTtfQ7h_6diesel12query_source5joins6JoinToINtNtNtNtB1v_2pg13query_builder4only4OnlypEE11join_targetBd_
FNDA:0,_RNvXININtNtNtNtCsi6y5LRNeeCE_8adapters6shared11persistence6schema5taskssm_0ppENtB5_5tableINtNtNtCs4ZchdTtfQ7h_6diesel12query_source5joins6JoinToINtNtNtNtB1w_2pg13query_builder11tablesample11TablesampleppEE11join_targetBd_
FNDA:0,_RNvXININtNtNtNtCsi6y5LRNeeCE_8adapters6shared11persistence6schema5userss0_0pENtB5_5tableINtNtCs4ZchdTtfQ7h_6diesel13query_builder13QueryFragmentpE8walk_astBd_
FNDA:0,_RNvXININtNtNtNtCsi6y5LRNeeCE_8adapters6shared11persistence6schema5userssa_0ppENtB5_5tableINtNtNtNtCs4ZchdTtfQ7h_6diesel12query_source8aliasing18field_alias_mapper48FieldAliasMapperAssociatedTypesDisjointnessTrickB1e_ppE3mapBd_
FNDA:0,_RNvXININtNtNtNtCsi6y5LRNeeCE_8adapters6shared11persistence6schema5userssc_0pppENtB5_5tableINtNtNtCs4ZchdTtfQ7h_6diesel12query_source5joins6JoinToINtB1t_4JoinpppEE11join_targetBd_
FNDA:0,_RNvXININtNtNtNtCsi6y5LRNeeCE_8adapters6shared11persistence6schema5userssd_0ppENtB5_5tableINtNtNtCs4ZchdTtfQ7h_6diesel12query_source5joins6JoinToINtB1s_6JoinOnppEE11join_targetBd_
FNDA:0,_RNvXININtNtNtNtCsi6y5LRNeeCE_8adapters6shared11persistence6schema5usersse_0ppppppppENtB5_5tableINtNtNtCs4ZchdTtfQ7h_6diesel12query_source5joins6JoinToINtNtNtB1C_13query_builder16select_statement15SelectStatementINtNtB2t_11from_clause10FromClausepEpppppppEE11join_targetBd_
FNDA:0,_RNvXININtNtNtNtCsi6y5LRNeeCE_8adapters6shared11persistence6schema5userssf_0pppENtB5_5tableINtNtNtCs4ZchdTtfQ7h_6diesel12query_source5joins6JoinToINtNtNtNtB1x_13query_builder16select_statement5boxed20BoxedSelectStatementINtNtB2q_11from_clause10FromClausepEppEE11join_targetBd_
FNDA:0,_RNvXININtNtNtNtCsi6y5LRNeeCE_8adapters6shared11persistence6schema5userssg_0pENtB5_5tableINtNtNtCs4ZchdTtfQ7h_6diesel12query_source5joins6JoinToINtNtNtB1t_8aliasing5alias5AliaspEE11join_targetBd_
FNDA:0,_RNvXININtNtNtNtCsi6y5LRNeeCE_8adapters6shared11persistence6schema5userssh_0pENtB5_5tableINtNtCs4ZchdTtfQ7h_6diesel10insertable10InsertablepE6valuesBd_
FNDA:0,_RNvXININtNtNtNtCsi6y5LRNeeCE_8adapters6shared11persistence6schema5userssi_0pERNtB5_5tableINtNtCs4ZchdTtfQ7h_6diesel10insertable10InsertablepE6valuesBd_
FNDA:0,_RNvXININtNtNtNtCsi6y5LRNeeCE_8adapters6shared11persistence6schema5userssj_0pENtB5_5tableINtNtNtCs4ZchdTtfQ7h_6diesel12query_source5joins6JoinToINtNtNtNtB1v_2pg13query_builder4only4OnlypEE11join_targetBd_
FNDA:0,_RNvXININtNtNtNtCsi6y5LRNeeCE_8adapters6shared11persistence6schema5userssm_0ppENtB5_5tableINtNtNtCs4ZchdTtfQ7h_6diesel12query_source5joins6JoinToINtNtNtNtB1w_2pg13query_builder11tablesample11TablesampleppEE11join_targetBd_
FNDA:0,_RNvXININtNtNtNtCsi6y5LRNeeCE_8adapters6shared11persistence6schema8subtaskss0_0pENtB5_5tableINtNtCs4ZchdTtfQ7h_6diesel13query_builder13QueryFragmentpE8walk_astBd_
FNDA:0,_RNvXININtNtNtNtCsi6y5LRNeeCE_8adapters6shared11persistence6schema8subtaskssa_0ppENtB5_5tableINtNtNtNtCs4ZchdTtfQ7h_6diesel12query_source8aliasing18field_alias_mapper48FieldAliasMapperAssociatedTypesDisjointnessTrickB1h_ppE3mapBd_
FNDA:0,_RNvXININtNtNtNtCsi6y5LRNeeCE_8adapters6shared11persistence6schema8subtaskssc_0pppENtB5_5tableINtNtNtCs4ZchdTtfQ7h_6diesel12query_source5joins6JoinToINtB1w_4JoinpppEE11join_targetBd_
FNDA:0,_RNvXININtNtNtNtCsi6y5LRNeeCE_8adapters6shared11persistence6schema8subtaskssd_0ppENtB5_5tableINtNtNtCs4ZchdTtfQ7h_6diesel12query_source5joins6JoinToINtB1v_6JoinOnppEE11join_targetBd_
FNDA:0,_RNvXININtNtNtNtCsi6y5LRNeeCE_8adapters6shared11persistence6schema8subtasksse_0ppppppppENtB5_5tableINtNtNtCs4ZchdTtfQ7h_6diesel12query_source5joins6JoinToINtNtNtB1F_13query_builder16select_statement15SelectStatementINtNtB2w_11from_clause10FromClausepEpppppppEE11join_targetBd_
FNDA:0,_RNvXININtNtNtNtCsi6y5LRNeeCE_8adapters6shared11persistence6schema8subtaskssf_0pppENtB5_5tableINtNtNtCs4ZchdTtfQ7h_6diesel12query_source5joins6JoinToINtNtNtNtB1A_13query_builder16select_statement5boxed20BoxedSelectStatementINtNtB2t_11from_clause10FromClausepEppEE11join_targetBd_
FNDA:0,_RNvXININtNtNtNtCsi6y5LRNeeCE_8adapters6shared11persistence6schema8subtaskssg_0pENtB5_5tableINtNtNtCs4ZchdTtfQ7h_6diesel12query_source5joins6JoinToINtNtNtB1w_8aliasing5alias5AliaspEE11join_targetBd_
FNDA:0,_RNvXININtNtNtNtCsi6y5LRNeeCE_8adapters6shared11persistence6schema8subtaskssh_0pENtB5_5tableINtNtCs4ZchdTtfQ7h_6diesel10insertable10InsertablepE6valuesBd_
FNDA:0,_RNvXININtNtNtNtCsi6y5LRNeeCE_8adapters6shared11persistence6schema8subtaskssi_0pERNtB5_5tableINtNtCs4ZchdTtfQ7h_6diesel10insertable10InsertablepE6valuesBd_
FNDA:0,_RNvXININtNtNtNtCsi6y5LRNeeCE_8adapters6shared11persistence6schema8subtaskssj_0pENtB5_5tableINtNtNtCs4ZchdTtfQ7h_6diesel12query_source5joins6JoinToINtNtNtNtB1y_2pg13query_builder4only4OnlypEE11join_targetBd_
FNDA:0,_RNvXININtNtNtNtCsi6y5LRNeeCE_8adapters6shared11persistence6schema8subtaskssm_0ppENtB5_5tableINtNtNtCs4ZchdTtfQ7h_6diesel12query_source5joins6JoinToINtNtNtNtB1z_2pg13query_builder11tablesample11TablesampleppEE11join_targetBd_
FNDA:0,_RNvXININtNtNtNtCsi6y5LRNeeCE_8adapters6shared11persistence6schema9reminderss0_0pENtB5_5tableINtNtCs4ZchdTtfQ7h_6diesel13query_builder13QueryFragmentpE8walk_astBd_
FNDA:0,_RNvXININtNtNtNtCsi6y5LRNeeCE_8adapters6shared11persistence6schema9reminderssa_0ppENtB5_5tableINtNtNtNtCs4ZchdTtfQ7h_6diesel12query_source8aliasing18field_alias_mapper48FieldAliasMapperAssociatedTypesDisjointnessTrickB1i_ppE3mapBd_
FNDA:0,_RNvXININtNtNtNtCsi6y5LRNeeCE_8adapters6shared11persistence6schema9reminderssc_0pppENtB5_5tableINtNtNtCs4ZchdTtfQ7h_6diesel12query_source5joins6JoinToINtB1x_4JoinpppEE11join_targetBd_
FNDA:0,_RNvXININtNtNtNtCsi6y5LRNeeCE_8adapters6shared11persistence6schema9reminderssd_0ppENtB5_5tableINtNtNtCs4ZchdTtfQ7h_6diesel12query_source5joins6JoinToINtB1w_6JoinOnppEE11join_targetBd_
FNDA:0,_RNvXININtNtNtNtCsi6y5LRNeeCE_8adapters6shared11persistence6schema9remindersse_0ppppppppENtB5_5tableINtNtNtCs4ZchdTtfQ7h_6diesel12query_source5joins6JoinToINtNtNtB1G_13query_builder16select_statement15SelectStatementINtNtB2x_11from_clause10FromClausepEpppppppEE11join_targetBd_
FNDA:0,_RNvXININtNtNtNtCsi6y5LRNeeCE_8adapters6shared11persistence6schema9reminderssf_0pppENtB5_5tableINtNtNtCs4ZchdTtfQ7h_6diesel12query_source5joins6JoinToINtNtNtNtB1B_13query_builder16select_statement5boxed20BoxedSelectStatementINtNtB2u_11from_clause10FromClausepEppEE11join_targetBd_
FNDA:0,_RNvXININtNtNtNtCsi6y5LRNeeCE_8adapters6shared11persistence6schema9reminderssg_0pENtB5_5tableINtNtNtCs4ZchdTtfQ7h_6diesel12query_source5joins6JoinToINtNtNtB1x_8aliasing5alias5AliaspEE11join_targetBd_
FNDA:0,_RNvXININtNtNtNtCsi6y5LRNeeCE_8adapters6shared11persistence6schema9reminderssh_0pENtB5_5tableINtNtCs4ZchdTtfQ7h_6diesel10insertable10InsertablepE6valuesBd_
FNDA:0,_RNvXININtNtNtNtCsi6y5LRNeeCE_8adapters6shared11persistence6schema9reminderssi_0pERNtB5_5tableINtNtCs4ZchdTtfQ7h_6diesel10insertable10InsertablepE6valuesBd_
FNDA:0,_RNvXININtNtNtNtCsi6y5LRNeeCE_8adapters6shared11persistence6schema9reminderssj_0pENtB5_5tableINtNtNtCs4ZchdTtfQ7h_6diesel12query_source5joins6JoinToINtNtNtNtB1z_2pg13query_builder4only4OnlypEE11join_targetBd_
FNDA:0,_RNvXININtNtNtNtCsi6y5LRNeeCE_8adapters6shared11persistence6schema9reminderssm_0ppENtB5_5tableINtNtNtCs4ZchdTtfQ7h_6diesel12query_source5joins6JoinToINtNtNtNtB1A_2pg13query_builder11tablesample11TablesampleppEE11join_targetBd_
FNDA:0,_RNvXININtNtNtNtNtCsi6y5LRNeeCE_8adapters6shared11persistence6schema10categories7columnss0_0pENtB5_4starINtNtCs4ZchdTtfQ7h_6diesel13query_builder13QueryFragmentpE8walk_astBf_
FNDA:0,_RNvXININtNtNtNtNtCsi6y5LRNeeCE_8adapters6shared11persistence6schema10categories7columnss1H_0pENtB5_10updated_atINtNtNtCsl8K0bEFm1U0_4core3ops5arith3AddpE3addBf_
FNDA:0,_RNvXININtNtNtNtNtCsi6y5LRNeeCE_8adapters6shared11persistence6schema10categories7columnss1I_0pENtB5_10updated_atINtNtNtCsl8K0bEFm1U0_4core3ops5arith3SubpE3subBf_
FNDA:0,_RNvXININtNtNtNtNtCsi6y5LRNeeCE_8adapters6shared11persistence6schema10categories7columnss1o_0pENtB5_10created_atINtNtNtCsl8K0bEFm1U0_4core3ops5arith3AddpE3addBf_
FNDA:0,_RNvXININtNtNtNtNtCsi6y5LRNeeCE_8adapters6shared11persistence6schema10categories7columnss1p_0pENtB5_10created_atINtNtNtCsl8K0bEFm1U0_4core3ops5arith3SubpE3subBf_
FNDA:0,_RNvXININtNtNtNtNtCsi6y5LRNeeCE_8adapters6shared11persistence6schema10categories7columnss20_0pENtB5_10deleted_atINtNtNtCsl8K0bEFm1U0_4core3ops5arith3AddpE3addBf_
FNDA:0,_RNvXININtNtNtNtNtCsi6y5LRNeeCE_8adapters6shared11persistence6schema10categories7columnss21_0pENtB5_10deleted_atINtNtNtCsl8K0bEFm1U0_4core3ops5arith3SubpE3subBf_
FNDA:0,_RNvXININtNtNtNtNtCsi6y5LRNeeCE_8adapters6shared11persistence6schema10flashcards7columnss0_0pENtB5_4starINtNtCs4ZchdTtfQ7h_6diesel13query_builder13QueryFragmentpE8walk_astBf_
FNDA:0,_RNvXININtNtNtNtNtCsi6y5LRNeeCE_8adapters6shared11persistence6schema10flashcards7columnss1H_0pENtB5_10difficultyINtNtNtCsl8K0bEFm1U0_4core3ops5arith3AddpE3addBf_
FNDA:0,_RNvXININtNtNtNtNtCsi6y5LRNeeCE_8adapters6shared11persistence6schema10flashcards7columnss1I_0pENtB5_10difficultyINtNtNtCsl8K0bEFm1U0_4core3ops5arith3SubpE3subBf_
FNDA:0,_RNvXININtNtNtNtNtCsi6y5LRNeeCE_8adapters6shared11persistence6schema10flashcards7columnss1J_0pENtB5_10difficultyINtNtNtCsl8K0bEFm1U0_4core3ops5arith3DivpE3divBf_
FNDA:0,_RNvXININtNtNtNtNtCsi6y5LRNeeCE_8adapters6shared11persistence6schema10flashcards7columnss1K_0pENtB5_10difficultyINtNtNtCsl8K0bEFm1U0_4core3ops5arith3MulpE3mulBf_
FNDA:0,_RNvXININtNtNtNtNtCsi6y5LRNeeCE_8adapters6shared11persistence6schema10flashcards7columnss1m_0pENtB5_9stabilityINtNtNtCsl8K0bEFm1U0_4core3ops5arith3AddpE3addBf_
FNDA:0,_RNvXININtNtNtNtNtCsi6y5LRNeeCE_8adapters6shared11persistence6schema10flashcards7columnss1n_0pENtB5_9stabilityINtNtNtCsl8K0bEFm1U0_4core3ops5arith3SubpE3subBf_
FNDA:0,_RNvXININtNtNtNtNtCsi6y5LRNeeCE_8adapters6shared11persistence6schema10flashcards7columnss1o_0pENtB5_9stabilityINtNtNtCsl8K0bEFm1U0_4core3ops5arith3DivpE3divBf_
FNDA:0,_RNvXININtNtNtNtNtCsi6y5LRNeeCE_8adapters6shared11persistence6schema10flashcards7columnss1p_0pENtB5_9stabilityINtNtNtCsl8K0bEFm1U0_4core3ops5arith3MulpE3mulBf_
FNDA:0,_RNvXININtNtNtNtNtCsi6y5LRNeeCE_8adapters6shared11persistence6schema10flashcards7columnss22_0pENtB5_8due_dateINtNtNtCsl8K0bEFm1U0_4core3ops5arith3AddpE3addBf_
FNDA:0,_RNvXININtNtNtNtNtCsi6y5LRNeeCE_8adapters6shared11persistence6schema10flashcards7columnss23_0pENtB5_8due_dateINtNtNtCsl8K0bEFm1U0_4core3ops5arith3SubpE3subBf_
FNDA:0,_RNvXININtNtNtNtNtCsi6y5LRNeeCE_8adapters6shared11persistence6schema10flashcards7columnss2E_0pENtB5_10updated_atINtNtNtCsl8K0bEFm1U0_4core3ops5arith3AddpE3addBf_
FNDA:0,_RNvXININtNtNtNtNtCsi6y5LRNeeCE_8adapters6shared11persistence6schema10flashcards7columnss2F_0pENtB5_10updated_atINtNtNtCsl8K0bEFm1U0_4core3ops5arith3SubpE3subBf_
FNDA:0,_RNvXININtNtNtNtNtCsi6y5LRNeeCE_8adapters6shared11persistence6schema10flashcards7columnss2l_0pENtB5_10created_atINtNtNtCsl8K0bEFm1U0_4core3ops5arith3AddpE3addBf_
FNDA:0,_RNvXININtNtNtNtNtCsi6y5LRNeeCE_8adapters6shared11persistence6schema10flashcards7columnss2m_0pENtB5_10created_atINtNtNtCsl8K0bEFm1U0_4core3ops5arith3SubpE3subBf_
FNDA:0,_RNvXININtNtNtNtNtCsi6y5LRNeeCE_8adapters6shared11persistence6schema13focus_session7columnss0_0pENtB5_4starINtNtCs4ZchdTtfQ7h_6diesel13query_builder13QueryFragmentpE8walk_astBf_
FNDA:0,_RNvXININtNtNtNtNtCsi6y5LRNeeCE_8adapters6shared11persistence6schema13focus_session7columnss1I_0pENtB5_19concentration_scoreINtNtNtCsl8K0bEFm1U0_4core3ops5arith3AddpE3addBf_
FNDA:0,_RNvXININtNtNtNtNtCsi6y5LRNeeCE_8adapters6shared11persistence6schema13focus_session7columnss1J_0pENtB5_19concentration_scoreINtNtNtCsl8K0bEFm1U0_4core3ops5arith3SubpE3subBf_
FNDA:0,_RNvXININtNtNtNtNtCsi6y5LRNeeCE_8adapters6shared11persistence6schema13focus_session7columnss1K_0pENtB5_19concentration_scoreINtNtNtCsl8K0bEFm1U0_4core3ops5arith3DivpE3divBf_
FNDA:0,_RNvXININtNtNtNtNtCsi6y5LRNeeCE_8adapters6shared11persistence6schema13focus_session7columnss1L_0pENtB5_19concentration_scoreINtNtNtCsl8K0bEFm1U0_4core3ops5arith3MulpE3mulBf_
FNDA:0,_RNvXININtNtNtNtNtCsi6y5LRNeeCE_8adapters6shared11persistence6schema13focus_session7columnss1n_0pENtB5_15actual_durationINtNtNtCsl8K0bEFm1U0_4core3ops5arith3AddpE3addBf_
FNDA:0,_RNvXININtNtNtNtNtCsi6y5LRNeeCE_8adapters6shared11persistence6schema13focus_session7columnss1o_0pENtB5_15actual_durationINtNtNtCsl8K0bEFm1U0_4core3ops5arith3SubpE3subBf_
FNDA:0,_RNvXININtNtNtNtNtCsi6y5LRNeeCE_8adapters6shared11persistence6schema13focus_session7columnss1p_0pENtB5_15actual_durationINtNtNtCsl8K0bEFm1U0_4core3ops5arith3DivpE3divBf_
FNDA:0,_RNvXININtNtNtNtNtCsi6y5LRNeeCE_8adapters6shared11persistence6schema13focus_session7columnss1q_0pENtB5_15actual_durationINtNtNtCsl8K0bEFm1U0_4core3ops5arith3MulpE3mulBf_
FNDA:0,_RNvXININtNtNtNtNtCsi6y5LRNeeCE_8adapters6shared11persistence6schema13focus_session7columnss2D_0pENtB5_8ended_atINtNtNtCsl8K0bEFm1U0_4core3ops5arith3AddpE3addBf_
FNDA:0,_RNvXININtNtNtNtNtCsi6y5LRNeeCE_8adapters6shared11persistence6schema13focus_session7columnss2E_0pENtB5_8ended_atINtNtNtCsl8K0bEFm1U0_4core3ops5arith3SubpE3subBf_
FNDA:0,_RNvXININtNtNtNtNtCsi6y5LRNeeCE_8adapters6shared11persistence6schema13focus_session7columnss2W_0pENtB5_10created_atINtNtNtCsl8K0bEFm1U0_4core3ops5arith3AddpE3addBf_
FNDA:0,_RNvXININtNtNtNtNtCsi6y5LRNeeCE_8adapters6shared11persistence6schema13focus_session7columnss2X_0pENtB5_10created_atINtNtNtCsl8K0bEFm1U0_4core3ops5arith3SubpE3subBf_
FNDA:0,_RNvXININtNtNtNtNtCsi6y5LRNeeCE_8adapters6shared11persistence6schema13focus_session7columnss2k_0pENtB5_10started_atINtNtNtCsl8K0bEFm1U0_4core3ops5arith3AddpE3addBf_
FNDA:0,_RNvXININtNtNtNtNtCsi6y5LRNeeCE_8adapters6shared11persistence6schema13focus_session7columnss2l_0pENtB5_10started_atINtNtNtCsl8K0bEFm1U0_4core3ops5arith3SubpE3subBf_
FNDA:0,_RNvXININtNtNtNtNtCsi6y5LRNeeCE_8adapters6shared11persistence6schema13user_settings7columnss0_0pENtB5_4starINtNtCs4ZchdTtfQ7h_6diesel13query_builder13QueryFragmentpE8walk_astBf_
FNDA:0,_RNvXININtNtNtNtNtCsi6y5LRNeeCE_8adapters6shared11persistence6schema13user_settings7columnss1G_0pENtB5_10updated_atINtNtNtCsl8K0bEFm1U0_4core3ops5arith3AddpE3addBf_
FNDA:0,_RNvXININtNtNtNtNtCsi6y5LRNeeCE_8adapters6shared11persistence6schema13user_settings7columnss1H_0pENtB5_10updated_atINtNtNtCsl8K0bEFm1U0_4core3ops5arith3SubpE3subBf_
FNDA:0,_RNvXININtNtNtNtNtCsi6y5LRNeeCE_8adapters6shared11persistence6schema13user_settings7columnss1n_0pENtB5_10created_atINtNtNtCsl8K0bEFm1U0_4core3ops5arith3AddpE3addBf_
FNDA:0,_RNvXININtNtNtNtNtCsi6y5LRNeeCE_8adapters6shared11persistence6schema13user_settings7columnss1o_0pENtB5_10created_atINtNtNtCsl8K0bEFm1U0_4core3ops5arith3SubpE3subBf_
FNDA:0,_RNvXININtNtNtNtNtCsi6y5LRNeeCE_8adapters6shared11persistence6schema16__sqlx_migrations7columnss0_0pENtB5_4starINtNtCs4ZchdTtfQ7h_6diesel13query_builder13QueryFragmentpE8walk_astBf_
FNDA:0,_RNvXININtNtNtNtNtCsi6y5LRNeeCE_8adapters6shared11persistence6schema16__sqlx_migrations7columnss1J_0pENtB5_14execution_timeINtNtNtCsl8K0bEFm1U0_4core3ops5arith3AddpE3addBf_
FNDA:0,_RNvXININtNtNtNtNtCsi6y5LRNeeCE_8adapters6shared11persistence6schema16__sqlx_migrations7columnss1K_0pENtB5_14execution_timeINtNtNtCsl8K0bEFm1U0_4core3ops5arith3SubpE3subBf_
FNDA:0,_RNvXININtNtNtNtNtCsi6y5LRNeeCE_8adapters6shared11persistence6schema16__sqlx_migrations7columnss1L_0pENtB5_14execution_timeINtNtNtCsl8K0bEFm1U0_4core3ops5arith3DivpE3divBf_
FNDA:0,_RNvXININtNtNtNtNtCsi6y5LRNeeCE_8adapters6shared11persistence6schema16__sqlx_migrations7columnss1M_0pENtB5_14execution_timeINtNtNtCsl8K0bEFm1U0_4core3ops5arith3MulpE3mulBf_
FNDA:0,_RNvXININtNtNtNtNtCsi6y5LRNeeCE_8adapters6shared11persistence6schema16__sqlx_migrations7columnssS_0pENtB5_12installed_onINtNtNtCsl8K0bEFm1U0_4core3ops5arith3AddpE3addBf_
FNDA:0,_RNvXININtNtNtNtNtCsi6y5LRNeeCE_8adapters6shared11persistence6schema16__sqlx_migrations7columnssT_0pENtB5_12installed_onINtNtNtCsl8K0bEFm1U0_4core3ops5arith3SubpE3subBf_
FNDA:0,_RNvXININtNtNtNtNtCsi6y5LRNeeCE_8adapters6shared11persistence6schema16__sqlx_migrations7columnssg_0pENtB5_7versionINtNtNtCsl8K0bEFm1U0_4core3ops5arith3AddpE3addBf_
FNDA:0,_RNvXININtNtNtNtNtCsi6y5LRNeeCE_8adapters6shared11persistence6schema16__sqlx_migrations7columnssh_0pENtB5_7versionINtNtNtCsl8K0bEFm1U0_4core3ops5arith3SubpE3subBf_
FNDA:0,_RNvXININtNtNtNtNtCsi6y5LRNeeCE_8adapters6shared11persistence6schema16__sqlx_migrations7columnssi_0pENtB5_7versionINtNtNtCsl8K0bEFm1U0_4core3ops5arith3DivpE3divBf_
FNDA:0,_RNvXININtNtNtNtNtCsi6y5LRNeeCE_8adapters6shared11persistence6schema16__sqlx_migrations7columnssj_0pENtB5_7versionINtNtNtCsl8K0bEFm1U0_4core3ops5arith3MulpE3mulBf_
FNDA:0,_RNvXININtNtNtNtNtCsi6y5LRNeeCE_8adapters6shared11persistence6schema17flashcard_folders7columnss0_0pENtB5_4starINtNtCs4ZchdTtfQ7h_6diesel13query_builder13QueryFragmentpE8walk_astBf_
FNDA:0,_RNvXININtNtNtNtNtCsi6y5LRNeeCE_8adapters6shared11persistence6schema17flashcard_folders7columnss1E_0pENtB5_10created_atINtNtNtCsl8K0bEFm1U0_4core3ops5arith3AddpE3addBf_
FNDA:0,_RNvXININtNtNtNtNtCsi6y5LRNeeCE_8adapters6shared11persistence6schema17flashcard_folders7columnss1F_0pENtB5_10created_atINtNtNtCsl8K0bEFm1U0_4core3ops5arith3SubpE3subBf_
FNDA:0,_RNvXININtNtNtNtNtCsi6y5LRNeeCE_8adapters6shared11persistence6schema17flashcard_folders7columnss1X_0pENtB5_10updated_atINtNtNtCsl8K0bEFm1U0_4core3ops5arith3AddpE3addBf_
FNDA:0,_RNvXININtNtNtNtNtCsi6y5LRNeeCE_8adapters6shared11persistence6schema17flashcard_folders7columnss1Y_0pENtB5_10updated_atINtNtNtCsl8K0bEFm1U0_4core3ops5arith3SubpE3subBf_
FNDA:0,_RNvXININtNtNtNtNtCsi6y5LRNeeCE_8adapters6shared11persistence6schema18push_subscriptions7columnss0_0pENtB5_4starINtNtCs4ZchdTtfQ7h_6diesel13query_builder13QueryFragmentpE8walk_astBf_
FNDA:0,_RNvXININtNtNtNtNtCsi6y5LRNeeCE_8adapters6shared11persistence6schema18push_subscriptions7columnss1D_0pENtB5_10created_atINtNtNtCsl8K0bEFm1U0_4core3ops5arith3AddpE3addBf_
FNDA:0,_RNvXININtNtNtNtNtCsi6y5LRNeeCE_8adapters6shared11persistence6schema18push_subscriptions7columnss1E_0pENtB5_10created_atINtNtNtCsl8K0bEFm1U0_4core3ops5arith3SubpE3subBf_
FNDA:0,_RNvXININtNtNtNtNtCsi6y5LRNeeCE_8adapters6shared11persistence6schema22flashcard_folder_items7columnss0_0pENtB5_4starINtNtCs4ZchdTtfQ7h_6diesel13query_builder13QueryFragmentpE8walk_astBf_
FNDA:0,_RNvXININtNtNtNtNtCsi6y5LRNeeCE_8adapters6shared11persistence6schema5tasks7columnss0_0pENtB5_4starINtNtCs4ZchdTtfQ7h_6diesel13query_builder13QueryFragmentpE8walk_astBf_
FNDA:0,_RNvXININtNtNtNtNtCsi6y5LRNeeCE_8adapters6shared11persistence6schema5tasks7columnss1V_0pENtB5_14scheduled_dateINtNtNtCsl8K0bEFm1U0_4core3ops5arith3AddpE3addBf_
FNDA:0,_RNvXININtNtNtNtNtCsi6y5LRNeeCE_8adapters6shared11persistence6schema5tasks7columnss1W_0pENtB5_14scheduled_dateINtNtNtCsl8K0bEFm1U0_4core3ops5arith3SubpE3subBf_
FNDA:0,_RNvXININtNtNtNtNtCsi6y5LRNeeCE_8adapters6shared11persistence6schema5tasks7columnss2e_0pENtB5_10created_atINtNtNtCsl8K0bEFm1U0_4core3ops5arith3AddpE3addBf_
FNDA:0,_RNvXININtNtNtNtNtCsi6y5LRNeeCE_8adapters6shared11persistence6schema5tasks7columnss2f_0pENtB5_10created_atINtNtNtCsl8K0bEFm1U0_4core3ops5arith3SubpE3subBf_
FNDA:0,_RNvXININtNtNtNtNtCsi6y5LRNeeCE_8adapters6shared11persistence6schema5tasks7columnss2x_0pENtB5_12completed_atINtNtNtCsl8K0bEFm1U0_4core3ops5arith3AddpE3addBf_
FNDA:0,_RNvXININtNtNtNtNtCsi6y5LRNeeCE_8adapters6shared11persistence6schema5tasks7columnss2y_0pENtB5_12completed_atINtNtNtCsl8K0bEFm1U0_4core3ops5arith3SubpE3subBf_
FNDA:0,_RNvXININtNtNtNtNtCsi6y5LRNeeCE_8adapters6shared11persistence6schema5tasks7columnss38_0pENtB5_10deleted_atINtNtNtCsl8K0bEFm1U0_4core3ops5arith3AddpE3addBf_
FNDA:0,_RNvXININtNtNtNtNtCsi6y5LRNeeCE_8adapters6shared11persistence6schema5tasks7columnss39_0pENtB5_10deleted_atINtNtNtCsl8K0bEFm1U0_4core3ops5arith3SubpE3subBf_
FNDA:0,_RNvXININtNtNtNtNtCsi6y5LRNeeCE_8adapters6shared11persistence6schema5tasks7columnss3J_0pENtB5_21schedule_all_day_dateINtNtNtCsl8K0bEFm1U0_4core3ops5arith3AddpE3addBf_
FNDA:0,_RNvXININtNtNtNtNtCsi6y5LRNeeCE_8adapters6shared11persistence6schema5tasks7columnss3K_0pENtB5_21schedule_all_day_dateINtNtNtCsl8K0bEFm1U0_4core3ops5arith3SubpE3subBf_
FNDA:0,_RNvXININtNtNtNtNtCsi6y5LRNeeCE_8adapters6shared11persistence6schema5tasks7columnss42_0pENtB5_22schedule_duration_secsINtNtNtCsl8K0bEFm1U0_4core3ops5arith3AddpE3addBf_
FNDA:0,_RNvXININtNtNtNtNtCsi6y5LRNeeCE_8adapters6shared11persistence6schema5tasks7columnss43_0pENtB5_22schedule_duration_secsINtNtNtCsl8K0bEFm1U0_4core3ops5arith3SubpE3subBf_
FNDA:0,_RNvXININtNtNtNtNtCsi6y5LRNeeCE_8adapters6shared11persistence6schema5tasks7columnss44_0pENtB5_22schedule_duration_secsINtNtNtCsl8K0bEFm1U0_4core3ops5arith3DivpE3divBf_
FNDA:0,_RNvXININtNtNtNtNtCsi6y5LRNeeCE_8adapters6shared11persistence6schema5tasks7columnss45_0pENtB5_22schedule_duration_secsINtNtNtCsl8K0bEFm1U0_4core3ops5arith3MulpE3mulBf_
FNDA:0,_RNvXININtNtNtNtNtCsi6y5LRNeeCE_8adapters6shared11persistence6schema5users7columnss0_0pENtB5_4starINtNtCs4ZchdTtfQ7h_6diesel13query_builder13QueryFragmentpE8walk_astBf_
FNDA:0,_RNvXININtNtNtNtNtCsi6y5LRNeeCE_8adapters6shared11persistence6schema5users7columnss1I_0pENtB5_10updated_atINtNtNtCsl8K0bEFm1U0_4core3ops5arith3AddpE3addBf_
FNDA:0,_RNvXININtNtNtNtNtCsi6y5LRNeeCE_8adapters6shared11persistence6schema5users7columnss1J_0pENtB5_10updated_atINtNtNtCsl8K0bEFm1U0_4core3ops5arith3SubpE3subBf_
FNDA:0,_RNvXININtNtNtNtNtCsi6y5LRNeeCE_8adapters6shared11persistence6schema5users7columnss1p_0pENtB5_10created_atINtNtNtCsl8K0bEFm1U0_4core3ops5arith3AddpE3addBf_
FNDA:0,_RNvXININtNtNtNtNtCsi6y5LRNeeCE_8adapters6shared11persistence6schema5users7columnss1q_0pENtB5_10created_atINtNtNtCsl8K0bEFm1U0_4core3ops5arith3SubpE3subBf_
FNDA:0,_RNvXININtNtNtNtNtCsi6y5LRNeeCE_8adapters6shared11persistence6schema5users7columnss21_0pENtB5_10deleted_atINtNtNtCsl8K0bEFm1U0_4core3ops5arith3AddpE3addBf_
FNDA:0,_RNvXININtNtNtNtNtCsi6y5LRNeeCE_8adapters6shared11persistence6schema5users7columnss22_0pENtB5_10deleted_atINtNtNtCsl8K0bEFm1U0_4core3ops5arith3SubpE3subBf_
FNDA:0,_RNvXININtNtNtNtNtCsi6y5LRNeeCE_8adapters6shared11persistence6schema8subtasks7columnss0_0pENtB5_4starINtNtCs4ZchdTtfQ7h_6diesel13query_builder13QueryFragmentpE8walk_astBf_
FNDA:0,_RNvXININtNtNtNtNtCsi6y5LRNeeCE_8adapters6shared11persistence6schema8subtasks7columnss1E_0pENtB5_12completed_atINtNtNtCsl8K0bEFm1U0_4core3ops5arith3AddpE3addBf_
FNDA:0,_RNvXININtNtNtNtNtCsi6y5LRNeeCE_8adapters6shared11persistence6schema8subtasks7columnss1F_0pENtB5_12completed_atINtNtNtCsl8K0bEFm1U0_4core3ops5arith3SubpE3subBf_
FNDA:0,_RNvXININtNtNtNtNtCsi6y5LRNeeCE_8adapters6shared11persistence6schema8subtasks7columnss1X_0pENtB5_10sort_orderINtNtNtCsl8K0bEFm1U0_4core3ops5arith3AddpE3addBf_
FNDA:0,_RNvXININtNtNtNtNtCsi6y5LRNeeCE_8adapters6shared11persistence6schema8subtasks7columnss1Y_0pENtB5_10sort_orderINtNtNtCsl8K0bEFm1U0_4core3ops5arith3SubpE3subBf_
FNDA:0,_RNvXININtNtNtNtNtCsi6y5LRNeeCE_8adapters6shared11persistence6schema8subtasks7columnss1Z_0pENtB5_10sort_orderINtNtNtCsl8K0bEFm1U0_4core3ops5arith3DivpE3divBf_
FNDA:0,_RNvXININtNtNtNtNtCsi6y5LRNeeCE_8adapters6shared11persistence6schema8subtasks7columnss20_0pENtB5_10sort_orderINtNtNtCsl8K0bEFm1U0_4core3ops5arith3MulpE3mulBf_
FNDA:0,_RNvXININtNtNtNtNtCsi6y5LRNeeCE_8adapters6shared11persistence6schema8subtasks7columnss2i_0pENtB5_10created_atINtNtNtCsl8K0bEFm1U0_4core3ops5arith3AddpE3addBf_
FNDA:0,_RNvXININtNtNtNtNtCsi6y5LRNeeCE_8adapters6shared11persistence6schema8subtasks7columnss2j_0pENtB5_10created_atINtNtNtCsl8K0bEFm1U0_4core3ops5arith3SubpE3subBf_
FNDA:0,_RNvXININtNtNtNtNtCsi6y5LRNeeCE_8adapters6shared11persistence6schema9reminders7columnss0_0pENtB5_4starINtNtCs4ZchdTtfQ7h_6diesel13query_builder13QueryFragmentpE8walk_astBf_
FNDA:0,_RNvXININtNtNtNtNtCsi6y5LRNeeCE_8adapters6shared11persistence6schema9reminders7columnss1X_0pENtB5_10created_atINtNtNtCsl8K0bEFm1U0_4core3ops5arith3AddpE3addBf_
FNDA:0,_RNvXININtNtNtNtNtCsi6y5LRNeeCE_8adapters6shared11persistence6schema9reminders7columnss1Y_0pENtB5_10created_atINtNtNtCsl8K0bEFm1U0_4core3ops5arith3SubpE3subBf_
FNDA:0,_RNvXININtNtNtNtNtCsi6y5LRNeeCE_8adapters6shared11persistence6schema9reminders7columnss1n_0pENtB5_4dateINtNtNtCsl8K0bEFm1U0_4core3ops5arith3AddpE3addBf_
FNDA:0,_RNvXININtNtNtNtNtCsi6y5LRNeeCE_8adapters6shared11persistence6schema9reminders7columnss1o_0pENtB5_4dateINtNtNtCsl8K0bEFm1U0_4core3ops5arith3SubpE3subBf_
FNDA:0,_RNvXININtNtNtNtNtCsi6y5LRNeeCE_8adapters6shared11persistence6schema9reminders7columnss2g_0pENtB5_10updated_atINtNtNtCsl8K0bEFm1U0_4core3ops5arith3AddpE3addBf_
FNDA:0,_RNvXININtNtNtNtNtCsi6y5LRNeeCE_8adapters6shared11persistence6schema9reminders7columnss2h_0pENtB5_10updated_atINtNtNtCsl8K0bEFm1U0_4core3ops5arith3SubpE3subBf_
FNDA:0,_RNvXs2_NtNtNtNtCsi6y5LRNeeCE_8adapters6shared11persistence6schema10categoriesNtB5_5tableNtNtCs4ZchdTtfQ7h_6diesel13query_builder7AsQuery8as_query
FNDA:0,_RNvXs2_NtNtNtNtCsi6y5LRNeeCE_8adapters6shared11persistence6schema10flashcardsNtB5_5tableNtNtCs4ZchdTtfQ7h_6diesel13query_builder7AsQuery8as_query
FNDA:0,_RNvXs2_NtNtNtNtCsi6y5LRNeeCE_8adapters6shared11persistence6schema13focus_sessionNtB5_5tableNtNtCs4ZchdTtfQ7h_6diesel13query_builder7AsQuery8as_query
FNDA:0,_RNvXs2_NtNtNtNtCsi6y5LRNeeCE_8adapters6shared11persistence6schema13user_settingsNtB5_5tableNtNtCs4ZchdTtfQ7h_6diesel13query_builder7AsQuery8as_query
FNDA:0,_RNvXs2_NtNtNtNtCsi6y5LRNeeCE_8adapters6shared11persistence6schema16__sqlx_migrationsNtB5_5tableNtNtCs4ZchdTtfQ7h_6diesel13query_builder7AsQuery8as_query
FNDA:0,_RNvXs2_NtNtNtNtCsi6y5LRNeeCE_8adapters6shared11persistence6schema17flashcard_foldersNtB5_5tableNtNtCs4ZchdTtfQ7h_6diesel13query_builder7AsQuery8as_query
FNDA:0,_RNvXs2_NtNtNtNtCsi6y5LRNeeCE_8adapters6shared11persistence6schema22flashcard_folder_itemsNtB5_5tableNtNtCs4ZchdTtfQ7h_6diesel13query_builder7AsQuery8as_query
FNDA:0,_RNvXs2_NtNtNtNtCsi6y5LRNeeCE_8adapters6shared11persistence6schema5tasksNtB5_5tableNtNtCs4ZchdTtfQ7h_6diesel13query_builder7AsQuery8as_query
FNDA:0,_RNvXs2_NtNtNtNtCsi6y5LRNeeCE_8adapters6shared11persistence6schema8subtasksNtB5_5tableNtNtCs4ZchdTtfQ7h_6diesel13query_builder7AsQuery8as_query
FNDA:0,_RNvXs3_NtNtNtNtCsi6y5LRNeeCE_8adapters6shared11persistence6schema10categoriesNtB5_5tableNtNtCs4ZchdTtfQ7h_6diesel12query_source5Table11all_columns
FNDA:0,_RNvXs3_NtNtNtNtCsi6y5LRNeeCE_8adapters6shared11persistence6schema10categoriesNtB5_5tableNtNtCs4ZchdTtfQ7h_6diesel12query_source5Table11primary_key
FNDA:0,_RNvXs3_NtNtNtNtCsi6y5LRNeeCE_8adapters6shared11persistence6schema10flashcardsNtB5_5tableNtNtCs4ZchdTtfQ7h_6diesel12query_source5Table11all_columns
FNDA:0,_RNvXs3_NtNtNtNtCsi6y5LRNeeCE_8adapters6shared11persistence6schema10flashcardsNtB5_5tableNtNtCs4ZchdTtfQ7h_6diesel12query_source5Table11primary_key
FNDA:0,_RNvXs3_NtNtNtNtCsi6y5LRNeeCE_8adapters6shared11persistence6schema13focus_sessionNtB5_5tableNtNtCs4ZchdTtfQ7h_6diesel12query_source5Table11all_columns
FNDA:0,_RNvXs3_NtNtNtNtCsi6y5LRNeeCE_8adapters6shared11persistence6schema13focus_sessionNtB5_5tableNtNtCs4ZchdTtfQ7h_6diesel12query_source5Table11primary_key
FNDA:0,_RNvXs3_NtNtNtNtCsi6y5LRNeeCE_8adapters6shared11persistence6schema13user_settingsNtB5_5tableNtNtCs4ZchdTtfQ7h_6diesel12query_source5Table11all_columns
FNDA:0,_RNvXs3_NtNtNtNtCsi6y5LRNeeCE_8adapters6shared11persistence6schema13user_settingsNtB5_5tableNtNtCs4ZchdTtfQ7h_6diesel12query_source5Table11primary_key
FNDA:0,_RNvXs3_NtNtNtNtCsi6y5LRNeeCE_8adapters6shared11persistence6schema16__sqlx_migrationsNtB5_5tableNtNtCs4ZchdTtfQ7h_6diesel12query_source5Table11all_columns
FNDA:0,_RNvXs3_NtNtNtNtCsi6y5LRNeeCE_8adapters6shared11persistence6schema16__sqlx_migrationsNtB5_5tableNtNtCs4ZchdTtfQ7h_6diesel12query_source5Table11primary_key
FNDA:0,_RNvXs3_NtNtNtNtCsi6y5LRNeeCE_8adapters6shared11persistence6schema17flashcard_foldersNtB5_5tableNtNtCs4ZchdTtfQ7h_6diesel12query_source5Table11all_columns
FNDA:0,_RNvXs3_NtNtNtNtCsi6y5LRNeeCE_8adapters6shared11persistence6schema17flashcard_foldersNtB5_5tableNtNtCs4ZchdTtfQ7h_6diesel12query_source5Table11primary_key
FNDA:0,_RNvXs3_NtNtNtNtCsi6y5LRNeeCE_8adapters6shared11persistence6schema18push_subscriptionsNtB5_5tableNtNtCs4ZchdTtfQ7h_6diesel12query_source5Table11primary_key
FNDA:0,_RNvXs3_NtNtNtNtCsi6y5LRNeeCE_8adapters6shared11persistence6schema22flashcard_folder_itemsNtB5_5tableNtNtCs4ZchdTtfQ7h_6diesel12query_source5Table11all_columns
FNDA:0,_RNvXs3_NtNtNtNtCsi6y5LRNeeCE_8adapters6shared11persistence6schema22flashcard_folder_itemsNtB5_5tableNtNtCs4ZchdTtfQ7h_6diesel12query_source5Table11primary_key
FNDA:0,_RNvXs3_NtNtNtNtCsi6y5LRNeeCE_8adapters6shared11persistence6schema5tasksNtB5_5tableNtNtCs4ZchdTtfQ7h_6diesel12query_source5Table11all_columns
FNDA:0,_RNvXs3_NtNtNtNtCsi6y5LRNeeCE_8adapters6shared11persistence6schema5tasksNtB5_5tableNtNtCs4ZchdTtfQ7h_6diesel12query_source5Table11primary_key
FNDA:0,_RNvXs3_NtNtNtNtCsi6y5LRNeeCE_8adapters6shared11persistence6schema8subtasksNtB5_5tableNtNtCs4ZchdTtfQ7h_6diesel12query_source5Table11all_columns
FNDA:0,_RNvXs3_NtNtNtNtCsi6y5LRNeeCE_8adapters6shared11persistence6schema8subtasksNtB5_5tableNtNtCs4ZchdTtfQ7h_6diesel12query_source5Table11primary_key
FNDA:0,_RNvXs3_NtNtNtNtCsi6y5LRNeeCE_8adapters6shared11persistence6schema9remindersNtB5_5tableNtNtCs4ZchdTtfQ7h_6diesel12query_source5Table11primary_key
FNDA:0,_RNvXs4_NtNtNtNtCsi6y5LRNeeCE_8adapters6shared11persistence6schema10categoriesNtB5_5tableNtNtCs4ZchdTtfQ7h_6diesel12associations8HasTable5table
FNDA:0,_RNvXs4_NtNtNtNtCsi6y5LRNeeCE_8adapters6shared11persistence6schema10flashcardsNtB5_5tableNtNtCs4ZchdTtfQ7h_6diesel12associations8HasTable5table
FNDA:0,_RNvXs4_NtNtNtNtCsi6y5LRNeeCE_8adapters6shared11persistence6schema13focus_sessionNtB5_5tableNtNtCs4ZchdTtfQ7h_6diesel12associations8HasTable5table
FNDA:0,_RNvXs4_NtNtNtNtCsi6y5LRNeeCE_8adapters6shared11persistence6schema13user_settingsNtB5_5tableNtNtCs4ZchdTtfQ7h_6diesel12associations8HasTable5table
FNDA:0,_RNvXs4_NtNtNtNtCsi6y5LRNeeCE_8adapters6shared11persistence6schema16__sqlx_migrationsNtB5_5tableNtNtCs4ZchdTtfQ7h_6diesel12associations8HasTable5table
FNDA:0,_RNvXs4_NtNtNtNtCsi6y5LRNeeCE_8adapters6shared11persistence6schema17flashcard_foldersNtB5_5tableNtNtCs4ZchdTtfQ7h_6diesel12associations8HasTable5table
FNDA:0,_RNvXs4_NtNtNtNtCsi6y5LRNeeCE_8adapters6shared11persistence6schema22flashcard_folder_itemsNtB5_5tableNtNtCs4ZchdTtfQ7h_6diesel12associations8HasTable5table
FNDA:0,_RNvXs4_NtNtNtNtCsi6y5LRNeeCE_8adapters6shared11persistence6schema5tasksNtB5_5tableNtNtCs4ZchdTtfQ7h_6diesel12associations8HasTable5table
FNDA:0,_RNvXs4_NtNtNtNtCsi6y5LRNeeCE_8adapters6shared11persistence6schema8subtasksNtB5_5tableNtNtCs4ZchdTtfQ7h_6diesel12associations8HasTable5table
FNDA:0,_RNvXs5_NtNtNtNtCsi6y5LRNeeCE_8adapters6shared11persistence6schema10categoriesNtB5_5tableNtNtNtNtCs4ZchdTtfQ7h_6diesel13query_builder16update_statement6target16IntoUpdateTarget18into_update_target
FNDA:0,_RNvXs5_NtNtNtNtCsi6y5LRNeeCE_8adapters6shared11persistence6schema10flashcardsNtB5_5tableNtNtNtNtCs4ZchdTtfQ7h_6diesel13query_builder16update_statement6target16IntoUpdateTarget18into_update_target
FNDA:0,_RNvXs5_NtNtNtNtCsi6y5LRNeeCE_8adapters6shared11persistence6schema13focus_sessionNtB5_5tableNtNtNtNtCs4ZchdTtfQ7h_6diesel13query_builder16update_statement6target16IntoUpdateTarget18into_update_target
FNDA:0,_RNvXs5_NtNtNtNtCsi6y5LRNeeCE_8adapters6shared11persistence6schema13user_settingsNtB5_5tableNtNtNtNtCs4ZchdTtfQ7h_6diesel13query_builder16update_statement6target16IntoUpdateTarget18into_update_target
FNDA:0,_RNvXs5_NtNtNtNtCsi6y5LRNeeCE_8adapters6shared11persistence6schema16__sqlx_migrationsNtB5_5tableNtNtNtNtCs4ZchdTtfQ7h_6diesel13query_builder16update_statement6target16IntoUpdateTarget18into_update_target
FNDA:0,_RNvXs5_NtNtNtNtCsi6y5LRNeeCE_8adapters6shared11persistence6schema17flashcard_foldersNtB5_5tableNtNtNtNtCs4ZchdTtfQ7h_6diesel13query_builder16update_statement6target16IntoUpdateTarget18into_update_target
FNDA:0,_RNvXs5_NtNtNtNtCsi6y5LRNeeCE_8adapters6shared11persistence6schema18push_subscriptionsNtB5_5tableNtNtNtNtCs4ZchdTtfQ7h_6diesel13query_builder16update_statement6target16IntoUpdateTarget18into_update_target
FNDA:0,_RNvXs5_NtNtNtNtCsi6y5LRNeeCE_8adapters6shared11persistence6schema22flashcard_folder_itemsNtB5_5tableNtNtNtNtCs4ZchdTtfQ7h_6diesel13query_builder16update_statement6target16IntoUpdateTarget18into_update_target
FNDA:0,_RNvXs5_NtNtNtNtCsi6y5LRNeeCE_8adapters6shared11persistence6schema5tasksNtB5_5tableNtNtNtNtCs4ZchdTtfQ7h_6diesel13query_builder16update_statement6target16IntoUpdateTarget18into_update_target
FNDA:0,_RNvXs5_NtNtNtNtCsi6y5LRNeeCE_8adapters6shared11persistence6schema8subtasksNtB5_5tableNtNtNtNtCs4ZchdTtfQ7h_6diesel13query_builder16update_statement6target16IntoUpdateTarget18into_update_target
FNDA:0,_RNvXs5_NtNtNtNtCsi6y5LRNeeCE_8adapters6shared11persistence6schema9remindersNtB5_5tableNtNtNtNtCs4ZchdTtfQ7h_6diesel13query_builder16update_statement6target16IntoUpdateTarget18into_update_target
FNDA:0,_RNvXs_NtNtNtNtCsi6y5LRNeeCE_8adapters6shared11persistence6schema10categoriesNtB4_5tableNtNtCs4ZchdTtfQ7h_6diesel12query_source11QuerySource11from_clause
FNDA:0,_RNvXs_NtNtNtNtCsi6y5LRNeeCE_8adapters6shared11persistence6schema10categoriesNtB4_5tableNtNtCs4ZchdTtfQ7h_6diesel12query_source11QuerySource17default_selection
FNDA:0,_RNvXs_NtNtNtNtCsi6y5LRNeeCE_8adapters6shared11persistence6schema10flashcardsNtB4_5tableNtNtCs4ZchdTtfQ7h_6diesel12query_source11QuerySource11from_clause
FNDA:0,_RNvXs_NtNtNtNtCsi6y5LRNeeCE_8adapters6shared11persistence6schema10flashcardsNtB4_5tableNtNtCs4ZchdTtfQ7h_6diesel12query_source11QuerySource17default_selection
FNDA:0,_RNvXs_NtNtNtNtCsi6y5LRNeeCE_8adapters6shared11persistence6schema13focus_sessionNtB4_5tableNtNtCs4ZchdTtfQ7h_6diesel12query_source11QuerySource11from_clause
FNDA:0,_RNvXs_NtNtNtNtCsi6y5LRNeeCE_8adapters6shared11persistence6schema13focus_sessionNtB4_5tableNtNtCs4ZchdTtfQ7h_6diesel12query_source11QuerySource17default_selection
FNDA:0,_RNvXs_NtNtNtNtCsi6y5LRNeeCE_8adapters6shared11persistence6schema13user_settingsNtB4_5tableNtNtCs4ZchdTtfQ7h_6diesel12query_source11QuerySource11from_clause
FNDA:0,_RNvXs_NtNtNtNtCsi6y5LRNeeCE_8adapters6shared11persistence6schema13user_settingsNtB4_5tableNtNtCs4ZchdTtfQ7h_6diesel12query_source11QuerySource17default_selection
FNDA:0,_RNvXs_NtNtNtNtCsi6y5LRNeeCE_8adapters6shared11persistence6schema16__sqlx_migrationsNtB4_5tableNtNtCs4ZchdTtfQ7h_6diesel12query_source11QuerySource11from_clause
FNDA:0,_RNvXs_NtNtNtNtCsi6y5LRNeeCE_8adapters6shared11persistence6schema16__sqlx_migrationsNtB4_5tableNtNtCs4ZchdTtfQ7h_6diesel12query_source11QuerySource17default_selection
FNDA:0,_RNvXs_NtNtNtNtCsi6y5LRNeeCE_8adapters6shared11persistence6schema17flashcard_foldersNtB4_5tableNtNtCs4ZchdTtfQ7h_6diesel12query_source11QuerySource11from_clause
FNDA:0,_RNvXs_NtNtNtNtCsi6y5LRNeeCE_8adapters6shared11persistence6schema17flashcard_foldersNtB4_5tableNtNtCs4ZchdTtfQ7h_6diesel12query_source11QuerySource17default_selection
FNDA:0,_RNvXs_NtNtNtNtCsi6y5LRNeeCE_8adapters6shared11persistence6schema22flashcard_folder_itemsNtB4_5tableNtNtCs4ZchdTtfQ7h_6diesel12query_source11QuerySource11from_clause
FNDA:0,_RNvXs_NtNtNtNtCsi6y5LRNeeCE_8adapters6shared11persistence6schema22flashcard_folder_itemsNtB4_5tableNtNtCs4ZchdTtfQ7h_6diesel12query_source11QuerySource17default_selection
FNDA:0,_RNvXs_NtNtNtNtCsi6y5LRNeeCE_8adapters6shared11persistence6schema5tasksNtB4_5tableNtNtCs4ZchdTtfQ7h_6diesel12query_source11QuerySource11from_clause
FNDA:0,_RNvXs_NtNtNtNtCsi6y5LRNeeCE_8adapters6shared11persistence6schema5tasksNtB4_5tableNtNtCs4ZchdTtfQ7h_6diesel12query_source11QuerySource17default_selection
FNDA:0,_RNvXs_NtNtNtNtCsi6y5LRNeeCE_8adapters6shared11persistence6schema8subtasksNtB4_5tableNtNtCs4ZchdTtfQ7h_6diesel12query_source11QuerySource11from_clause
FNDA:0,_RNvXs_NtNtNtNtCsi6y5LRNeeCE_8adapters6shared11persistence6schema8subtasksNtB4_5tableNtNtCs4ZchdTtfQ7h_6diesel12query_source11QuerySource17default_selection
FNDA:12,_RNvXs2_NtNtNtNtCsi6y5LRNeeCE_8adapters6shared11persistence6schema5usersNtB5_5tableNtNtCs4ZchdTtfQ7h_6diesel13query_builder7AsQuery8as_query
FNDA:12,_RNvXs3_NtNtNtNtCsi6y5LRNeeCE_8adapters6shared11persistence6schema5usersNtB5_5tableNtNtCs4ZchdTtfQ7h_6diesel12query_source5Table11all_columns
FNDA:7,_RNvXs3_NtNtNtNtCsi6y5LRNeeCE_8adapters6shared11persistence6schema5usersNtB5_5tableNtNtCs4ZchdTtfQ7h_6diesel12query_source5Table11primary_key
FNDA:3,_RNvXs4_NtNtNtNtCsi6y5LRNeeCE_8adapters6shared11persistence6schema5usersNtB5_5tableNtNtCs4ZchdTtfQ7h_6diesel12associations8HasTable5table
FNDA:3,_RNvXs5_NtNtNtNtCsi6y5LRNeeCE_8adapters6shared11persistence6schema5usersNtB5_5tableNtNtNtNtCs4ZchdTtfQ7h_6diesel13query_builder16update_statement6target16IntoUpdateTarget18into_update_target
FNDA:45,_RNvXs_NtNtNtNtCsi6y5LRNeeCE_8adapters6shared11persistence6schema5usersNtB4_5tableNtNtCs4ZchdTtfQ7h_6diesel12query_source11QuerySource11from_clause
FNDA:12,_RNvXs_NtNtNtNtCsi6y5LRNeeCE_8adapters6shared11persistence6schema5usersNtB4_5tableNtNtCs4ZchdTtfQ7h_6diesel12query_source11QuerySource17default_selection
FNDA:7,_RNvXs2_NtNtNtNtCsi6y5LRNeeCE_8adapters6shared11persistence6schema18push_subscriptionsNtB5_5tableNtNtCs4ZchdTtfQ7h_6diesel13query_builder7AsQuery8as_query
FNDA:7,_RNvXs3_NtNtNtNtCsi6y5LRNeeCE_8adapters6shared11persistence6schema18push_subscriptionsNtB5_5tableNtNtCs4ZchdTtfQ7h_6diesel12query_source5Table11all_columns
FNDA:2,_RNvXs4_NtNtNtNtCsi6y5LRNeeCE_8adapters6shared11persistence6schema18push_subscriptionsNtB5_5tableNtNtCs4ZchdTtfQ7h_6diesel12associations8HasTable5table
FNDA:37,_RNvXs_NtNtNtNtCsi6y5LRNeeCE_8adapters6shared11persistence6schema18push_subscriptionsNtB4_5tableNtNtCs4ZchdTtfQ7h_6diesel12query_source11QuerySource11from_clause
FNDA:7,_RNvXs_NtNtNtNtCsi6y5LRNeeCE_8adapters6shared11persistence6schema18push_subscriptionsNtB4_5tableNtNtCs4ZchdTtfQ7h_6diesel12query_source11QuerySource17default_selection
FNDA:8,_RNvXs2_NtNtNtNtCsi6y5LRNeeCE_8adapters6shared11persistence6schema9remindersNtB5_5tableNtNtCs4ZchdTtfQ7h_6diesel13query_builder7AsQuery8as_query
FNDA:8,_RNvXs3_NtNtNtNtCsi6y5LRNeeCE_8adapters6shared11persistence6schema9remindersNtB5_5tableNtNtCs4ZchdTtfQ7h_6diesel12query_source5Table11all_columns
FNDA:2,_RNvXs4_NtNtNtNtCsi6y5LRNeeCE_8adapters6shared11persistence6schema9remindersNtB5_5tableNtNtCs4ZchdTtfQ7h_6diesel12associations8HasTable5table
FNDA:13,_RNvXs_NtNtNtNtCsi6y5LRNeeCE_8adapters6shared11persistence6schema9remindersNtB4_5tableNtNtCs4ZchdTtfQ7h_6diesel12query_source11QuerySource11from_clause
FNDA:8,_RNvXs_NtNtNtNtCsi6y5LRNeeCE_8adapters6shared11persistence6schema9remindersNtB4_5tableNtNtCs4ZchdTtfQ7h_6diesel12query_source11QuerySource17default_selection
FNDA:0,_RNvMNtNtNtNtCsjp8PXOiLT2t_8adapters6shared11persistence6schema22flashcard_folder_itemsNtB2_5table4star
FNDA:0,_RNvXs2_NtNtNtNtCsjp8PXOiLT2t_8adapters6shared11persistence6schema22flashcard_folder_itemsNtB5_5tableNtNtCs4ZchdTtfQ7h_6diesel13query_builder7AsQuery8as_query
FNDA:0,_RNvXs3_NtNtNtNtCsjp8PXOiLT2t_8adapters6shared11persistence6schema22flashcard_folder_itemsNtB5_5tableNtNtCs4ZchdTtfQ7h_6diesel12query_source5Table11all_columns
FNDA:0,_RNvXs3_NtNtNtNtCsjp8PXOiLT2t_8adapters6shared11persistence6schema22flashcard_folder_itemsNtB5_5tableNtNtCs4ZchdTtfQ7h_6diesel12query_source5Table11primary_key
FNDA:0,_RNvXs4_NtNtNtNtCsjp8PXOiLT2t_8adapters6shared11persistence6schema22flashcard_folder_itemsNtB5_5tableNtNtCs4ZchdTtfQ7h_6diesel12associations8HasTable5table
FNDA:0,_RNvXs5_NtNtNtNtCsjp8PXOiLT2t_8adapters6shared11persistence6schema22flashcard_folder_itemsNtB5_5tableNtNtNtNtCs4ZchdTtfQ7h_6diesel13query_builder16update_statement6target16IntoUpdateTarget18into_update_target
FNDA:0,_RNvXs_NtNtNtNtCsjp8PXOiLT2t_8adapters6shared11persistence6schema22flashcard_folder_itemsNtB4_5tableNtNtCs4ZchdTtfQ7h_6diesel12query_source11QuerySource11from_clause
FNDA:0,_RNvXs_NtNtNtNtCsjp8PXOiLT2t_8adapters6shared11persistence6schema22flashcard_folder_itemsNtB4_5tableNtNtCs4ZchdTtfQ7h_6diesel12query_source11QuerySource17default_selection
FNDA:0,_RNvXININtNtNtNtCsjp8PXOiLT2t_8adapters6shared11persistence6schema10categoriess0_0pENtB5_5tableINtNtCs4ZchdTtfQ7h_6diesel13query_builder13QueryFragmentpE8walk_astBd_
FNDA:0,_RNvXININtNtNtNtCsjp8PXOiLT2t_8adapters6shared11persistence6schema10categoriessa_0ppENtB5_5tableINtNtNtNtCs4ZchdTtfQ7h_6diesel12query_source8aliasing18field_alias_mapper48FieldAliasMapperAssociatedTypesDisjointnessTrickB1k_ppE3mapBd_
FNDA:0,_RNvXININtNtNtNtCsjp8PXOiLT2t_8adapters6shared11persistence6schema10categoriessc_0pppENtB5_5tableINtNtNtCs4ZchdTtfQ7h_6diesel12query_source5joins6JoinToINtB1z_4JoinpppEE11join_targetBd_
FNDA:0,_RNvXININtNtNtNtCsjp8PXOiLT2t_8adapters6shared11persistence6schema10categoriessd_0ppENtB5_5tableINtNtNtCs4ZchdTtfQ7h_6diesel12query_source5joins6JoinToINtB1y_6JoinOnppEE11join_targetBd_
FNDA:0,_RNvXININtNtNtNtCsjp8PXOiLT2t_8adapters6shared11persistence6schema10categoriesse_0ppppppppENtB5_5tableINtNtNtCs4ZchdTtfQ7h_6diesel12query_source5joins6JoinToINtNtNtB1I_13query_builder16select_statement15SelectStatementINtNtB2z_11from_clause10FromClausepEpppppppEE11join_targetBd_
FNDA:0,_RNvXININtNtNtNtCsjp8PXOiLT2t_8adapters6shared11persistence6schema10categoriessf_0pppENtB5_5tableINtNtNtCs4ZchdTtfQ7h_6diesel12query_source5joins6JoinToINtNtNtNtB1D_13query_builder16select_statement5boxed20BoxedSelectStatementINtNtB2w_11from_clause10FromClausepEppEE11join_targetBd_
FNDA:0,_RNvXININtNtNtNtCsjp8PXOiLT2t_8adapters6shared11persistence6schema10categoriessg_0pENtB5_5tableINtNtNtCs4ZchdTtfQ7h_6diesel12query_source5joins6JoinToINtNtNtB1z_8aliasing5alias5AliaspEE11join_targetBd_
FNDA:0,_RNvXININtNtNtNtCsjp8PXOiLT2t_8adapters6shared11persistence6schema10categoriessh_0pENtB5_5tableINtNtCs4ZchdTtfQ7h_6diesel10insertable10InsertablepE6valuesBd_
FNDA:0,_RNvXININtNtNtNtCsjp8PXOiLT2t_8adapters6shared11persistence6schema10categoriessi_0pERNtB5_5tableINtNtCs4ZchdTtfQ7h_6diesel10insertable10InsertablepE6valuesBd_
FNDA:0,_RNvXININtNtNtNtCsjp8PXOiLT2t_8adapters6shared11persistence6schema10categoriessj_0pENtB5_5tableINtNtNtCs4ZchdTtfQ7h_6diesel12query_source5joins6JoinToINtNtNtNtB1B_2pg13query_builder4only4OnlypEE11join_targetBd_
FNDA:0,_RNvXININtNtNtNtCsjp8PXOiLT2t_8adapters6shared11persistence6schema10categoriessm_0ppENtB5_5tableINtNtNtCs4ZchdTtfQ7h_6diesel12query_source5joins6JoinToINtNtNtNtB1C_2pg13query_builder11tablesample11TablesampleppEE11join_targetBd_
FNDA:0,_RNvXININtNtNtNtCsjp8PXOiLT2t_8adapters6shared11persistence6schema10flashcardss0_0pENtB5_5tableINtNtCs4ZchdTtfQ7h_6diesel13query_builder13QueryFragmentpE8walk_astBd_
FNDA:0,_RNvXININtNtNtNtCsjp8PXOiLT2t_8adapters6shared11persistence6schema10flashcardssa_0ppENtB5_5tableINtNtNtNtCs4ZchdTtfQ7h_6diesel12query_source8aliasing18field_alias_mapper48FieldAliasMapperAssociatedTypesDisjointnessTrickB1k_ppE3mapBd_
FNDA:0,_RNvXININtNtNtNtCsjp8PXOiLT2t_8adapters6shared11persistence6schema10flashcardssc_0pppENtB5_5tableINtNtNtCs4ZchdTtfQ7h_6diesel12query_source5joins6JoinToINtB1z_4JoinpppEE11join_targetBd_
FNDA:0,_RNvXININtNtNtNtCsjp8PXOiLT2t_8adapters6shared11persistence6schema10flashcardssd_0ppENtB5_5tableINtNtNtCs4ZchdTtfQ7h_6diesel12query_source5joins6JoinToINtB1y_6JoinOnppEE11join_targetBd_
FNDA:0,_RNvXININtNtNtNtCsjp8PXOiLT2t_8adapters6shared11persistence6schema10flashcardsse_0ppppppppENtB5_5tableINtNtNtCs4ZchdTtfQ7h_6diesel12query_source5joins6JoinToINtNtNtB1I_13query_builder16select_statement15SelectStatementINtNtB2z_11from_clause10FromClausepEpppppppEE11join_targetBd_
FNDA:0,_RNvXININtNtNtNtCsjp8PXOiLT2t_8adapters6shared11persistence6schema10flashcardssf_0pppENtB5_5tableINtNtNtCs4ZchdTtfQ7h_6diesel12query_source5joins6JoinToINtNtNtNtB1D_13query_builder16select_statement5boxed20BoxedSelectStatementINtNtB2w_11from_clause10FromClausepEppEE11join_targetBd_
FNDA:0,_RNvXININtNtNtNtCsjp8PXOiLT2t_8adapters6shared11persistence6schema10flashcardssg_0pENtB5_5tableINtNtNtCs4ZchdTtfQ7h_6diesel12query_source5joins6JoinToINtNtNtB1z_8aliasing5alias5AliaspEE11join_targetBd_
FNDA:0,_RNvXININtNtNtNtCsjp8PXOiLT2t_8adapters6shared11persistence6schema10flashcardssh_0pENtB5_5tableINtNtCs4ZchdTtfQ7h_6diesel10insertable10InsertablepE6valuesBd_
FNDA:0,_RNvXININtNtNtNtCsjp8PXOiLT2t_8adapters6shared11persistence6schema10flashcardssi_0pERNtB5_5tableINtNtCs4ZchdTtfQ7h_6diesel10insertable10InsertablepE6valuesBd_
FNDA:0,_RNvXININtNtNtNtCsjp8PXOiLT2t_8adapters6shared11persistence6schema10flashcardssj_0pENtB5_5tableINtNtNtCs4ZchdTtfQ7h_6diesel12query_source5joins6JoinToINtNtNtNtB1B_2pg13query_builder4only4OnlypEE11join_targetBd_
FNDA:0,_RNvXININtNtNtNtCsjp8PXOiLT2t_8adapters6shared11persistence6schema10flashcardssm_0ppENtB5_5tableINtNtNtCs4ZchdTtfQ7h_6diesel12query_source5joins6JoinToINtNtNtNtB1C_2pg13query_builder11tablesample11TablesampleppEE11join_targetBd_
FNDA:0,_RNvXININtNtNtNtCsjp8PXOiLT2t_8adapters6shared11persistence6schema13focus_sessions0_0pENtB5_5tableINtNtCs4ZchdTtfQ7h_6diesel13query_builder13QueryFragmentpE8walk_astBd_
FNDA:0,_RNvXININtNtNtNtCsjp8PXOiLT2t_8adapters6shared11persistence6schema13focus_sessionsa_0ppENtB5_5tableINtNtNtNtCs4ZchdTtfQ7h_6diesel12query_source8aliasing18field_alias_mapper48FieldAliasMapperAssociatedTypesDisjointnessTrickB1n_ppE3mapBd_
FNDA:0,_RNvXININtNtNtNtCsjp8PXOiLT2t_8adapters6shared11persistence6schema13focus_sessionsc_0pppENtB5_5tableINtNtNtCs4ZchdTtfQ7h_6diesel12query_source5joins6JoinToINtB1C_4JoinpppEE11join_targetBd_
FNDA:0,_RNvXININtNtNtNtCsjp8PXOiLT2t_8adapters6shared11persistence6schema13focus_sessionsd_0ppENtB5_5tableINtNtNtCs4ZchdTtfQ7h_6diesel12query_source5joins6JoinToINtB1B_6JoinOnppEE11join_targetBd_
FNDA:0,_RNvXININtNtNtNtCsjp8PXOiLT2t_8adapters6shared11persistence6schema13focus_sessionse_0ppppppppENtB5_5tableINtNtNtCs4ZchdTtfQ7h_6diesel12query_source5joins6JoinToINtNtNtB1L_13query_builder16select_statement15SelectStatementINtNtB2C_11from_clause10FromClausepEpppppppEE11join_targetBd_
FNDA:0,_RNvXININtNtNtNtCsjp8PXOiLT2t_8adapters6shared11persistence6schema13focus_sessionsf_0pppENtB5_5tableINtNtNtCs4ZchdTtfQ7h_6diesel12query_source5joins6JoinToINtNtNtNtB1G_13query_builder16select_statement5boxed20BoxedSelectStatementINtNtB2z_11from_clause10FromClausepEppEE11join_targetBd_
FNDA:0,_RNvXININtNtNtNtCsjp8PXOiLT2t_8adapters6shared11persistence6schema13focus_sessionsg_0pENtB5_5tableINtNtNtCs4ZchdTtfQ7h_6diesel12query_source5joins6JoinToINtNtNtB1C_8aliasing5alias5AliaspEE11join_targetBd_
FNDA:0,_RNvXININtNtNtNtCsjp8PXOiLT2t_8adapters6shared11persistence6schema13focus_sessionsh_0pENtB5_5tableINtNtCs4ZchdTtfQ7h_6diesel10insertable10InsertablepE6valuesBd_
FNDA:0,_RNvXININtNtNtNtCsjp8PXOiLT2t_8adapters6shared11persistence6schema13focus_sessionsi_0pERNtB5_5tableINtNtCs4ZchdTtfQ7h_6diesel10insertable10InsertablepE6valuesBd_
FNDA:0,_RNvXININtNtNtNtCsjp8PXOiLT2t_8adapters6shared11persistence6schema13focus_sessionsj_0pENtB5_5tableINtNtNtCs4ZchdTtfQ7h_6diesel12query_source5joins6JoinToINtNtNtNtB1E_2pg13query_builder4only4OnlypEE11join_targetBd_
FNDA:0,_RNvXININtNtNtNtCsjp8PXOiLT2t_8adapters6shared11persistence6schema13focus_sessionsm_0ppENtB5_5tableINtNtNtCs4ZchdTtfQ7h_6diesel12query_source5joins6JoinToINtNtNtNtB1F_2pg13query_builder11tablesample11TablesampleppEE11join_targetBd_
FNDA:0,_RNvXININtNtNtNtCsjp8PXOiLT2t_8adapters6shared11persistence6schema13user_settingss0_0pENtB5_5tableINtNtCs4ZchdTtfQ7h_6diesel13query_builder13QueryFragmentpE8walk_astBd_
FNDA:0,_RNvXININtNtNtNtCsjp8PXOiLT2t_8adapters6shared11persistence6schema13user_settingssa_0ppENtB5_5tableINtNtNtNtCs4ZchdTtfQ7h_6diesel12query_source8aliasing18field_alias_mapper48FieldAliasMapperAssociatedTypesDisjointnessTrickB1n_ppE3mapBd_
FNDA:0,_RNvXININtNtNtNtCsjp8PXOiLT2t_8adapters6shared11persistence6schema13user_settingssc_0pppENtB5_5tableINtNtNtCs4ZchdTtfQ7h_6diesel12query_source5joins6JoinToINtB1C_4JoinpppEE11join_targetBd_
FNDA:0,_RNvXININtNtNtNtCsjp8PXOiLT2t_8adapters6shared11persistence6schema13user_settingssd_0ppENtB5_5tableINtNtNtCs4ZchdTtfQ7h_6diesel12query_source5joins6JoinToINtB1B_6JoinOnppEE11join_targetBd_
FNDA:0,_RNvXININtNtNtNtCsjp8PXOiLT2t_8adapters6shared11persistence6schema13user_settingsse_0ppppppppENtB5_5tableINtNtNtCs4ZchdTtfQ7h_6diesel12query_source5joins6JoinToINtNtNtB1L_13query_builder16select_statement15SelectStatementINtNtB2C_11from_clause10FromClausepEpppppppEE11join_targetBd_
FNDA:0,_RNvXININtNtNtNtCsjp8PXOiLT2t_8adapters6shared11persistence6schema13user_settingssf_0pppENtB5_5tableINtNtNtCs4ZchdTtfQ7h_6diesel12query_source5joins6JoinToINtNtNtNtB1G_13query_builder16select_statement5boxed20BoxedSelectStatementINtNtB2z_11from_clause10FromClausepEppEE11join_targetBd_
FNDA:0,_RNvXININtNtNtNtCsjp8PXOiLT2t_8adapters6shared11persistence6schema13user_settingssg_0pENtB5_5tableINtNtNtCs4ZchdTtfQ7h_6diesel12query_source5joins6JoinToINtNtNtB1C_8aliasing5alias5AliaspEE11join_targetBd_
FNDA:0,_RNvXININtNtNtNtCsjp8PXOiLT2t_8adapters6shared11persistence6schema13user_settingssh_0pENtB5_5tableINtNtCs4ZchdTtfQ7h_6diesel10insertable10InsertablepE6valuesBd_
FNDA:0,_RNvXININtNtNtNtCsjp8PXOiLT2t_8adapters6shared11persistence6schema13user_settingssi_0pERNtB5_5tableINtNtCs4ZchdTtfQ7h_6diesel10insertable10InsertablepE6valuesBd_
FNDA:0,_RNvXININtNtNtNtCsjp8PXOiLT2t_8adapters6shared11persistence6schema13user_settingssj_0pENtB5_5tableINtNtNtCs4ZchdTtfQ7h_6diesel12query_source5joins6JoinToINtNtNtNtB1E_2pg13query_builder4only4OnlypEE11join_targetBd_
FNDA:0,_RNvXININtNtNtNtCsjp8PXOiLT2t_8adapters6shared11persistence6schema13user_settingssm_0ppENtB5_5tableINtNtNtCs4ZchdTtfQ7h_6diesel12query_source5joins6JoinToINtNtNtNtB1F_2pg13query_builder11tablesample11TablesampleppEE11join_targetBd_
FNDA:0,_RNvXININtNtNtNtCsjp8PXOiLT2t_8adapters6shared11persistence6schema16__sqlx_migrationss0_0pENtB5_5tableINtNtCs4ZchdTtfQ7h_6diesel13query_builder13QueryFragmentpE8walk_astBd_
FNDA:0,_RNvXININtNtNtNtCsjp8PXOiLT2t_8adapters6shared11persistence6schema16__sqlx_migrationssa_0ppENtB5_5tableINtNtNtNtCs4ZchdTtfQ7h_6diesel12query_source8aliasing18field_alias_mapper48FieldAliasMapperAssociatedTypesDisjointnessTrickB1r_ppE3mapBd_
FNDA:0,_RNvXININtNtNtNtCsjp8PXOiLT2t_8adapters6shared11persistence6schema16__sqlx_migrationssc_0pppENtB5_5tableINtNtNtCs4ZchdTtfQ7h_6diesel12query_source5joins6JoinToINtB1G_4JoinpppEE11join_targetBd_
FNDA:0,_RNvXININtNtNtNtCsjp8PXOiLT2t_8adapters6shared11persistence6schema16__sqlx_migrationssd_0ppENtB5_5tableINtNtNtCs4ZchdTtfQ7h_6diesel12query_source5joins6JoinToINtB1F_6JoinOnppEE11join_targetBd_
FNDA:0,_RNvXININtNtNtNtCsjp8PXOiLT2t_8adapters6shared11persistence6schema16__sqlx_migrationsse_0ppppppppENtB5_5tableINtNtNtCs4ZchdTtfQ7h_6diesel12query_source5joins6JoinToINtNtNtB1P_13query_builder16select_statement15SelectStatementINtNtB2G_11from_clause10FromClausepEpppppppEE11join_targetBd_
FNDA:0,_RNvXININtNtNtNtCsjp8PXOiLT2t_8adapters6shared11persistence6schema16__sqlx_migrationssf_0pppENtB5_5tableINtNtNtCs4ZchdTtfQ7h_6diesel12query_source5joins6JoinToINtNtNtNtB1K_13query_builder16select_statement5boxed20BoxedSelectStatementINtNtB2D_11from_clause10FromClausepEppEE11join_targetBd_
FNDA:0,_RNvXININtNtNtNtCsjp8PXOiLT2t_8adapters6shared11persistence6schema16__sqlx_migrationssg_0pENtB5_5tableINtNtNtCs4ZchdTtfQ7h_6diesel12query_source5joins6JoinToINtNtNtB1G_8aliasing5alias5AliaspEE11join_targetBd_
FNDA:0,_RNvXININtNtNtNtCsjp8PXOiLT2t_8adapters6shared11persistence6schema16__sqlx_migrationssh_0pENtB5_5tableINtNtCs4ZchdTtfQ7h_6diesel10insertable10InsertablepE6valuesBd_
FNDA:0,_RNvXININtNtNtNtCsjp8PXOiLT2t_8adapters6shared11persistence6schema16__sqlx_migrationssi_0pERNtB5_5tableINtNtCs4ZchdTtfQ7h_6diesel10insertable10InsertablepE6valuesBd_
FNDA:0,_RNvXININtNtNtNtCsjp8PXOiLT2t_8adapters6shared11persistence6schema16__sqlx_migrationssj_0pENtB5_5tableINtNtNtCs4ZchdTtfQ7h_6diesel12query_source5joins6JoinToINtNtNtNtB1I_2pg13query_builder4only4OnlypEE11join_targetBd_
FNDA:0,_RNvXININtNtNtNtCsjp8PXOiLT2t_8adapters6shared11persistence6schema16__sqlx_migrationssm_0ppENtB5_5tableINtNtNtCs4ZchdTtfQ7h_6diesel12query_source5joins6JoinToINtNtNtNtB1J_2pg13query_builder11tablesample11TablesampleppEE11join_targetBd_
FNDA:0,_RNvXININtNtNtNtCsjp8PXOiLT2t_8adapters6shared11persistence6schema17flashcard_folderss0_0pENtB5_5tableINtNtCs4ZchdTtfQ7h_6diesel13query_builder13QueryFragmentpE8walk_astBd_
FNDA:0,_RNvXININtNtNtNtCsjp8PXOiLT2t_8adapters6shared11persistence6schema17flashcard_folderssa_0ppENtB5_5tableINtNtNtNtCs4ZchdTtfQ7h_6diesel12query_source8aliasing18field_alias_mapper48FieldAliasMapperAssociatedTypesDisjointnessTrickB1r_ppE3mapBd_
FNDA:0,_RNvXININtNtNtNtCsjp8PXOiLT2t_8adapters6shared11persistence6schema17flashcard_folderssc_0pppENtB5_5tableINtNtNtCs4ZchdTtfQ7h_6diesel12query_source5joins6JoinToINtB1G_4JoinpppEE11join_targetBd_
FNDA:0,_RNvXININtNtNtNtCsjp8PXOiLT2t_8adapters6shared11persistence6schema17flashcard_folderssd_0ppENtB5_5tableINtNtNtCs4ZchdTtfQ7h_6diesel12query_source5joins6JoinToINtB1F_6JoinOnppEE11join_targetBd_
FNDA:0,_RNvXININtNtNtNtCsjp8PXOiLT2t_8adapters6shared11persistence6schema17flashcard_foldersse_0ppppppppENtB5_5tableINtNtNtCs4ZchdTtfQ7h_6diesel12query_source5joins6JoinToINtNtNtB1P_13query_builder16select_statement15SelectStatementINtNtB2G_11from_clause10FromClausepEpppppppEE11join_targetBd_
FNDA:0,_RNvXININtNtNtNtCsjp8PXOiLT2t_8adapters6shared11persistence6schema17flashcard_folderssf_0pppENtB5_5tableINtNtNtCs4ZchdTtfQ7h_6diesel12query_source5joins6JoinToINtNtNtNtB1K_13query_builder16select_statement5boxed20BoxedSelectStatementINtNtB2D_11from_clause10FromClausepEppEE11join_targetBd_
FNDA:0,_RNvXININtNtNtNtCsjp8PXOiLT2t_8adapters6shared11persistence6schema17flashcard_folderssg_0pENtB5_5tableINtNtNtCs4ZchdTtfQ7h_6diesel12query_source5joins6JoinToINtNtNtB1G_8aliasing5alias5AliaspEE11join_targetBd_
FNDA:0,_RNvXININtNtNtNtCsjp8PXOiLT2t_8adapters6shared11persistence6schema17flashcard_folderssh_0pENtB5_5tableINtNtCs4ZchdTtfQ7h_6diesel10insertable10InsertablepE6valuesBd_
FNDA:0,_RNvXININtNtNtNtCsjp8PXOiLT2t_8adapters6shared11persistence6schema17flashcard_folderssi_0pERNtB5_5tableINtNtCs4ZchdTtfQ7h_6diesel10insertable10InsertablepE6valuesBd_
FNDA:0,_RNvXININtNtNtNtCsjp8PXOiLT2t_8adapters6shared11persistence6schema17flashcard_folderssj_0pENtB5_5tableINtNtNtCs4ZchdTtfQ7h_6diesel12query_source5joins6JoinToINtNtNtNtB1I_2pg13query_builder4only4OnlypEE11join_targetBd_
FNDA:0,_RNvXININtNtNtNtCsjp8PXOiLT2t_8adapters6shared11persistence6schema17flashcard_folderssm_0ppENtB5_5tableINtNtNtCs4ZchdTtfQ7h_6diesel12query_source5joins6JoinToINtNtNtNtB1J_2pg13query_builder11tablesample11TablesampleppEE11join_targetBd_
FNDA:0,_RNvXININtNtNtNtCsjp8PXOiLT2t_8adapters6shared11persistence6schema18push_subscriptionss0_0pENtB5_5tableINtNtCs4ZchdTtfQ7h_6diesel13query_builder13QueryFragmentpE8walk_astBd_
FNDA:0,_RNvXININtNtNtNtCsjp8PXOiLT2t_8adapters6shared11persistence6schema18push_subscriptionssa_0ppENtB5_5tableINtNtNtNtCs4ZchdTtfQ7h_6diesel12query_source8aliasing18field_alias_mapper48FieldAliasMapperAssociatedTypesDisjointnessTrickB1s_ppE3mapBd_
FNDA:0,_RNvXININtNtNtNtCsjp8PXOiLT2t_8adapters6shared11persistence6schema18push_subscriptionssc_0pppENtB5_5tableINtNtNtCs4ZchdTtfQ7h_6diesel12query_source5joins6JoinToINtB1H_4JoinpppEE11join_targetBd_
FNDA:0,_RNvXININtNtNtNtCsjp8PXOiLT2t_8adapters6shared11persistence6schema18push_subscriptionssd_0ppENtB5_5tableINtNtNtCs4ZchdTtfQ7h_6diesel12query_source5joins6JoinToINtB1G_6JoinOnppEE11join_targetBd_
FNDA:0,_RNvXININtNtNtNtCsjp8PXOiLT2t_8adapters6shared11persistence6schema18push_subscriptionsse_0ppppppppENtB5_5tableINtNtNtCs4ZchdTtfQ7h_6diesel12query_source5joins6JoinToINtNtNtB1Q_13query_builder16select_statement15SelectStatementINtNtB2H_11from_clause10FromClausepEpppppppEE11join_targetBd_
FNDA:0,_RNvXININtNtNtNtCsjp8PXOiLT2t_8adapters6shared11persistence6schema18push_subscriptionssf_0pppENtB5_5tableINtNtNtCs4ZchdTtfQ7h_6diesel12query_source5joins6JoinToINtNtNtNtB1L_13query_builder16select_statement5boxed20BoxedSelectStatementINtNtB2E_11from_clause10FromClausepEppEE11join_targetBd_
FNDA:0,_RNvXININtNtNtNtCsjp8PXOiLT2t_8adapters6shared11persistence6schema18push_subscriptionssg_0pENtB5_5tableINtNtNtCs4ZchdTtfQ7h_6diesel12query_source5joins6JoinToINtNtNtB1H_8aliasing5alias5AliaspEE11join_targetBd_
FNDA:0,_RNvXININtNtNtNtCsjp8PXOiLT2t_8adapters6shared11persistence6schema18push_subscriptionssh_0pENtB5_5tableINtNtCs4ZchdTtfQ7h_6diesel10insertable10InsertablepE6valuesBd_
FNDA:0,_RNvXININtNtNtNtCsjp8PXOiLT2t_8adapters6shared11persistence6schema18push_subscriptionssi_0pERNtB5_5tableINtNtCs4ZchdTtfQ7h_6diesel10insertable10InsertablepE6valuesBd_
FNDA:0,_RNvXININtNtNtNtCsjp8PXOiLT2t_8adapters6shared11persistence6schema18push_subscriptionssj_0pENtB5_5tableINtNtNtCs4ZchdTtfQ7h_6diesel12query_source5joins6JoinToINtNtNtNtB1J_2pg13query_builder4only4OnlypEE11join_targetBd_
FNDA:0,_RNvXININtNtNtNtCsjp8PXOiLT2t_8adapters6shared11persistence6schema18push_subscriptionssm_0ppENtB5_5tableINtNtNtCs4ZchdTtfQ7h_6diesel12query_source5joins6JoinToINtNtNtNtB1K_2pg13query_builder11tablesample11TablesampleppEE11join_targetBd_
FNDA:0,_RNvXININtNtNtNtCsjp8PXOiLT2t_8adapters6shared11persistence6schema22flashcard_folder_itemss0_0pENtB5_5tableINtNtCs4ZchdTtfQ7h_6diesel13query_builder13QueryFragmentpE8walk_astBd_
FNDA:0,_RNvXININtNtNtNtCsjp8PXOiLT2t_8adapters6shared11persistence6schema22flashcard_folder_itemssa_0ppENtB5_5tableINtNtNtNtCs4ZchdTtfQ7h_6diesel12query_source8aliasing18field_alias_mapper48FieldAliasMapperAssociatedTypesDisjointnessTrickB1w_ppE3mapBd_
FNDA:0,_RNvXININtNtNtNtCsjp8PXOiLT2t_8adapters6shared11persistence6schema22flashcard_folder_itemssc_0pppENtB5_5tableINtNtNtCs4ZchdTtfQ7h_6diesel12query_source5joins6JoinToINtB1L_4JoinpppEE11join_targetBd_
FNDA:0,_RNvXININtNtNtNtCsjp8PXOiLT2t_8adapters6shared11persistence6schema22flashcard_folder_itemssd_0ppENtB5_5tableINtNtNtCs4ZchdTtfQ7h_6diesel12query_source5joins6JoinToINtB1K_6JoinOnppEE11join_targetBd_
FNDA:0,_RNvXININtNtNtNtCsjp8PXOiLT2t_8adapters6shared11persistence6schema22flashcard_folder_itemsse_0ppppppppENtB5_5tableINtNtNtCs4ZchdTtfQ7h_6diesel12query_source5joins6JoinToINtNtNtB1U_13query_builder16select_statement15SelectStatementINtNtB2L_11from_clause10FromClausepEpppppppEE11join_targetBd_
FNDA:0,_RNvXININtNtNtNtCsjp8PXOiLT2t_8adapters6shared11persistence6schema22flashcard_folder_itemssf_0pppENtB5_5tableINtNtNtCs4ZchdTtfQ7h_6diesel12query_source5joins6JoinToINtNtNtNtB1P_13query_builder16select_statement5boxed20BoxedSelectStatementINtNtB2I_11from_clause10FromClausepEppEE11join_targetBd_
FNDA:0,_RNvXININtNtNtNtCsjp8PXOiLT2t_8adapters6shared11persistence6schema22flashcard_folder_itemssg_0pENtB5_5tableINtNtNtCs4ZchdTtfQ7h_6diesel12query_source5joins6JoinToINtNtNtB1L_8aliasing5alias5AliaspEE11join_targetBd_
FNDA:0,_RNvXININtNtNtNtCsjp8PXOiLT2t_8adapters6shared11persistence6schema22flashcard_folder_itemssh_0pENtB5_5tableINtNtCs4ZchdTtfQ7h_6diesel10insertable10InsertablepE6valuesBd_
FNDA:0,_RNvXININtNtNtNtCsjp8PXOiLT2t_8adapters6shared11persistence6schema22flashcard_folder_itemssi_0pERNtB5_5tableINtNtCs4ZchdTtfQ7h_6diesel10insertable10InsertablepE6valuesBd_
FNDA:0,_RNvXININtNtNtNtCsjp8PXOiLT2t_8adapters6shared11persistence6schema22flashcard_folder_itemssj_0pENtB5_5tableINtNtNtCs4ZchdTtfQ7h_6diesel12query_source5joins6JoinToINtNtNtNtB1N_2pg13query_builder4only4OnlypEE11join_targetBd_
FNDA:0,_RNvXININtNtNtNtCsjp8PXOiLT2t_8adapters6shared11persistence6schema22flashcard_folder_itemssm_0ppENtB5_5tableINtNtNtCs4ZchdTtfQ7h_6diesel12query_source5joins6JoinToINtNtNtNtB1O_2pg13query_builder11tablesample11TablesampleppEE11join_targetBd_
FNDA:0,_RNvXININtNtNtNtCsjp8PXOiLT2t_8adapters6shared11persistence6schema5taskss0_0pENtB5_5tableINtNtCs4ZchdTtfQ7h_6diesel13query_builder13QueryFragmentpE8walk_astBd_
FNDA:0,_RNvXININtNtNtNtCsjp8PXOiLT2t_8adapters6shared11persistence6schema5taskssa_0ppENtB5_5tableINtNtNtNtCs4ZchdTtfQ7h_6diesel12query_source8aliasing18field_alias_mapper48FieldAliasMapperAssociatedTypesDisjointnessTrickB1e_ppE3mapBd_
FNDA:0,_RNvXININtNtNtNtCsjp8PXOiLT2t_8adapters6shared11persistence6schema5taskssc_0pppENtB5_5tableINtNtNtCs4ZchdTtfQ7h_6diesel12query_source5joins6JoinToINtB1t_4JoinpppEE11join_targetBd_
FNDA:0,_RNvXININtNtNtNtCsjp8PXOiLT2t_8adapters6shared11persistence6schema5taskssd_0ppENtB5_5tableINtNtNtCs4ZchdTtfQ7h_6diesel12query_source5joins6JoinToINtB1s_6JoinOnppEE11join_targetBd_
FNDA:0,_RNvXININtNtNtNtCsjp8PXOiLT2t_8adapters6shared11persistence6schema5tasksse_0ppppppppENtB5_5tableINtNtNtCs4ZchdTtfQ7h_6diesel12query_source5joins6JoinToINtNtNtB1C_13query_builder16select_statement15SelectStatementINtNtB2t_11from_clause10FromClausepEpppppppEE11join_targetBd_
FNDA:0,_RNvXININtNtNtNtCsjp8PXOiLT2t_8adapters6shared11persistence6schema5taskssf_0pppENtB5_5tableINtNtNtCs4ZchdTtfQ7h_6diesel12query_source5joins6JoinToINtNtNtNtB1x_13query_builder16select_statement5boxed20BoxedSelectStatementINtNtB2q_11from_clause10FromClausepEppEE11join_targetBd_
FNDA:0,_RNvXININtNtNtNtCsjp8PXOiLT2t_8adapters6shared11persistence6schema5taskssg_0pENtB5_5tableINtNtNtCs4ZchdTtfQ7h_6diesel12query_source5joins6JoinToINtNtNtB1t_8aliasing5alias5AliaspEE11join_targetBd_
FNDA:0,_RNvXININtNtNtNtCsjp8PXOiLT2t_8adapters6shared11persistence6schema5taskssh_0pENtB5_5tableINtNtCs4ZchdTtfQ7h_6diesel10insertable10InsertablepE6valuesBd_
FNDA:0,_RNvXININtNtNtNtCsjp8PXOiLT2t_8adapters6shared11persistence6schema5taskssi_0pERNtB5_5tableINtNtCs4ZchdTtfQ7h_6diesel10insertable10InsertablepE6valuesBd_
FNDA:0,_RNvXININtNtNtNtCsjp8PXOiLT2t_8adapters6shared11persistence6schema5taskssj_0pENtB5_5tableINtNtNtCs4ZchdTtfQ7h_6diesel12query_source5joins6JoinToINtNtNtNtB1v_2pg13query_builder4only4OnlypEE11join_targetBd_
FNDA:0,_RNvXININtNtNtNtCsjp8PXOiLT2t_8adapters6shared11persistence6schema5taskssm_0ppENtB5_5tableINtNtNtCs4ZchdTtfQ7h_6diesel12query_source5joins6JoinToINtNtNtNtB1w_2pg13query_builder11tablesample11TablesampleppEE11join_targetBd_
FNDA:0,_RNvXININtNtNtNtCsjp8PXOiLT2t_8adapters6shared11persistence6schema5userss0_0pENtB5_5tableINtNtCs4ZchdTtfQ7h_6diesel13query_builder13QueryFragmentpE8walk_astBd_
FNDA:0,_RNvXININtNtNtNtCsjp8PXOiLT2t_8adapters6shared11persistence6schema5userssa_0ppENtB5_5tableINtNtNtNtCs4ZchdTtfQ7h_6diesel12query_source8aliasing18field_alias_mapper48FieldAliasMapperAssociatedTypesDisjointnessTrickB1e_ppE3mapBd_
FNDA:0,_RNvXININtNtNtNtCsjp8PXOiLT2t_8adapters6shared11persistence6schema5userssc_0pppENtB5_5tableINtNtNtCs4ZchdTtfQ7h_6diesel12query_source5joins6JoinToINtB1t_4JoinpppEE11join_targetBd_
FNDA:0,_RNvXININtNtNtNtCsjp8PXOiLT2t_8adapters6shared11persistence6schema5userssd_0ppENtB5_5tableINtNtNtCs4ZchdTtfQ7h_6diesel12query_source5joins6JoinToINtB1s_6JoinOnppEE11join_targetBd_
FNDA:0,_RNvXININtNtNtNtCsjp8PXOiLT2t_8adapters6shared11persistence6schema5usersse_0ppppppppENtB5_5tableINtNtNtCs4ZchdTtfQ7h_6diesel12query_source5joins6JoinToINtNtNtB1C_13query_builder16select_statement15SelectStatementINtNtB2t_11from_clause10FromClausepEpppppppEE11join_targetBd_
FNDA:0,_RNvXININtNtNtNtCsjp8PXOiLT2t_8adapters6shared11persistence6schema5userssf_0pppENtB5_5tableINtNtNtCs4ZchdTtfQ7h_6diesel12query_source5joins6JoinToINtNtNtNtB1x_13query_builder16select_statement5boxed20BoxedSelectStatementINtNtB2q_11from_clause10FromClausepEppEE11join_targetBd_
FNDA:0,_RNvXININtNtNtNtCsjp8PXOiLT2t_8adapters6shared11persistence6schema5userssg_0pENtB5_5tableINtNtNtCs4ZchdTtfQ7h_6diesel12query_source5joins6JoinToINtNtNtB1t_8aliasing5alias5AliaspEE11join_targetBd_
FNDA:0,_RNvXININtNtNtNtCsjp8PXOiLT2t_8adapters6shared11persistence6schema5userssh_0pENtB5_5tableINtNtCs4ZchdTtfQ7h_6diesel10insertable10InsertablepE6valuesBd_
FNDA:0,_RNvXININtNtNtNtCsjp8PXOiLT2t_8adapters6shared11persistence6schema5userssi_0pERNtB5_5tableINtNtCs4ZchdTtfQ7h_6diesel10insertable10InsertablepE6valuesBd_
FNDA:0,_RNvXININtNtNtNtCsjp8PXOiLT2t_8adapters6shared11persistence6schema5userssj_0pENtB5_5tableINtNtNtCs4ZchdTtfQ7h_6diesel12query_source5joins6JoinToINtNtNtNtB1v_2pg13query_builder4only4OnlypEE11join_targetBd_
FNDA:0,_RNvXININtNtNtNtCsjp8PXOiLT2t_8adapters6shared11persistence6schema5userssm_0ppENtB5_5tableINtNtNtCs4ZchdTtfQ7h_6diesel12query_source5joins6JoinToINtNtNtNtB1w_2pg13query_builder11tablesample11TablesampleppEE11join_targetBd_
FNDA:0,_RNvXININtNtNtNtCsjp8PXOiLT2t_8adapters6shared11persistence6schema8subtaskss0_0pENtB5_5tableINtNtCs4ZchdTtfQ7h_6diesel13query_builder13QueryFragmentpE8walk_astBd_
FNDA:0,_RNvXININtNtNtNtCsjp8PXOiLT2t_8adapters6shared11persistence6schema8subtaskssa_0ppENtB5_5tableINtNtNtNtCs4ZchdTtfQ7h_6diesel12query_source8aliasing18field_alias_mapper48FieldAliasMapperAssociatedTypesDisjointnessTrickB1h_ppE3mapBd_
FNDA:0,_RNvXININtNtNtNtCsjp8PXOiLT2t_8adapters6shared11persistence6schema8subtaskssc_0pppENtB5_5tableINtNtNtCs4ZchdTtfQ7h_6diesel12query_source5joins6JoinToINtB1w_4JoinpppEE11join_targetBd_
FNDA:0,_RNvXININtNtNtNtCsjp8PXOiLT2t_8adapters6shared11persistence6schema8subtaskssd_0ppENtB5_5tableINtNtNtCs4ZchdTtfQ7h_6diesel12query_source5joins6JoinToINtB1v_6JoinOnppEE11join_targetBd_
FNDA:0,_RNvXININtNtNtNtCsjp8PXOiLT2t_8adapters6shared11persistence6schema8subtasksse_0ppppppppENtB5_5tableINtNtNtCs4ZchdTtfQ7h_6diesel12query_source5joins6JoinToINtNtNtB1F_13query_builder16select_statement15SelectStatementINtNtB2w_11from_clause10FromClausepEpppppppEE11join_targetBd_
FNDA:0,_RNvXININtNtNtNtCsjp8PXOiLT2t_8adapters6shared11persistence6schema8subtaskssf_0pppENtB5_5tableINtNtNtCs4ZchdTtfQ7h_6diesel12query_source5joins6JoinToINtNtNtNtB1A_13query_builder16select_statement5boxed20BoxedSelectStatementINtNtB2t_11from_clause10FromClausepEppEE11join_targetBd_
FNDA:0,_RNvXININtNtNtNtCsjp8PXOiLT2t_8adapters6shared11persistence6schema8subtaskssg_0pENtB5_5tableINtNtNtCs4ZchdTtfQ7h_6diesel12query_source5joins6JoinToINtNtNtB1w_8aliasing5alias5AliaspEE11join_targetBd_
FNDA:0,_RNvXININtNtNtNtCsjp8PXOiLT2t_8adapters6shared11persistence6schema8subtaskssh_0pENtB5_5tableINtNtCs4ZchdTtfQ7h_6diesel10insertable10InsertablepE6valuesBd_
FNDA:0,_RNvXININtNtNtNtCsjp8PXOiLT2t_8adapters6shared11persistence6schema8subtaskssi_0pERNtB5_5tableINtNtCs4ZchdTtfQ7h_6diesel10insertable10InsertablepE6valuesBd_
FNDA:0,_RNvXININtNtNtNtCsjp8PXOiLT2t_8adapters6shared11persistence6schema8subtaskssj_0pENtB5_5tableINtNtNtCs4ZchdTtfQ7h_6diesel12query_source5joins6JoinToINtNtNtNtB1y_2pg13query_builder4only4OnlypEE11join_targetBd_
FNDA:0,_RNvXININtNtNtNtCsjp8PXOiLT2t_8adapters6shared11persistence6schema8subtaskssm_0ppENtB5_5tableINtNtNtCs4ZchdTtfQ7h_6diesel12query_source5joins6JoinToINtNtNtNtB1z_2pg13query_builder11tablesample11TablesampleppEE11join_targetBd_
FNDA:0,_RNvXININtNtNtNtCsjp8PXOiLT2t_8adapters6shared11persistence6schema9reminderss0_0pENtB5_5tableINtNtCs4ZchdTtfQ7h_6diesel13query_builder13QueryFragmentpE8walk_astBd_
FNDA:0,_RNvXININtNtNtNtCsjp8PXOiLT2t_8adapters6shared11persistence6schema9reminderssa_0ppENtB5_5tableINtNtNtNtCs4ZchdTtfQ7h_6diesel12query_source8aliasing18field_alias_mapper48FieldAliasMapperAssociatedTypesDisjointnessTrickB1i_ppE3mapBd_
FNDA:0,_RNvXININtNtNtNtCsjp8PXOiLT2t_8adapters6shared11persistence6schema9reminderssc_0pppENtB5_5tableINtNtNtCs4ZchdTtfQ7h_6diesel12query_source5joins6JoinToINtB1x_4JoinpppEE11join_targetBd_
FNDA:0,_RNvXININtNtNtNtCsjp8PXOiLT2t_8adapters6shared11persistence6schema9reminderssd_0ppENtB5_5tableINtNtNtCs4ZchdTtfQ7h_6diesel12query_source5joins6JoinToINtB1w_6JoinOnppEE11join_targetBd_
FNDA:0,_RNvXININtNtNtNtCsjp8PXOiLT2t_8adapters6shared11persistence6schema9remindersse_0ppppppppENtB5_5tableINtNtNtCs4ZchdTtfQ7h_6diesel12query_source5joins6JoinToINtNtNtB1G_13query_builder16select_statement15SelectStatementINtNtB2x_11from_clause10FromClausepEpppppppEE11join_targetBd_
FNDA:0,_RNvXININtNtNtNtCsjp8PXOiLT2t_8adapters6shared11persistence6schema9reminderssf_0pppENtB5_5tableINtNtNtCs4ZchdTtfQ7h_6diesel12query_source5joins6JoinToINtNtNtNtB1B_13query_builder16select_statement5boxed20BoxedSelectStatementINtNtB2u_11from_clause10FromClausepEppEE11join_targetBd_
FNDA:0,_RNvXININtNtNtNtCsjp8PXOiLT2t_8adapters6shared11persistence6schema9reminderssg_0pENtB5_5tableINtNtNtCs4ZchdTtfQ7h_6diesel12query_source5joins6JoinToINtNtNtB1x_8aliasing5alias5AliaspEE11join_targetBd_
FNDA:0,_RNvXININtNtNtNtCsjp8PXOiLT2t_8adapters6shared11persistence6schema9reminderssh_0pENtB5_5tableINtNtCs4ZchdTtfQ7h_6diesel10insertable10InsertablepE6valuesBd_
FNDA:0,_RNvXININtNtNtNtCsjp8PXOiLT2t_8adapters6shared11persistence6schema9reminderssi_0pERNtB5_5tableINtNtCs4ZchdTtfQ7h_6diesel10insertable10InsertablepE6valuesBd_
FNDA:0,_RNvXININtNtNtNtCsjp8PXOiLT2t_8adapters6shared11persistence6schema9reminderssj_0pENtB5_5tableINtNtNtCs4ZchdTtfQ7h_6diesel12query_source5joins6JoinToINtNtNtNtB1z_2pg13query_builder4only4OnlypEE11join_targetBd_
FNDA:0,_RNvXININtNtNtNtCsjp8PXOiLT2t_8adapters6shared11persistence6schema9reminderssm_0ppENtB5_5tableINtNtNtCs4ZchdTtfQ7h_6diesel12query_source5joins6JoinToINtNtNtNtB1A_2pg13query_builder11tablesample11TablesampleppEE11join_targetBd_
FNDA:0,_RNvXININtNtNtNtNtCsjp8PXOiLT2t_8adapters6shared11persistence6schema10categories7columnss0_0pENtB5_4starINtNtCs4ZchdTtfQ7h_6diesel13query_builder13QueryFragmentpE8walk_astBf_
FNDA:0,_RNvXININtNtNtNtNtCsjp8PXOiLT2t_8adapters6shared11persistence6schema10categories7columnss1H_0pENtB5_10updated_atINtNtNtCsl8K0bEFm1U0_4core3ops5arith3AddpE3addBf_
FNDA:0,_RNvXININtNtNtNtNtCsjp8PXOiLT2t_8adapters6shared11persistence6schema10categories7columnss1I_0pENtB5_10updated_atINtNtNtCsl8K0bEFm1U0_4core3ops5arith3SubpE3subBf_
FNDA:0,_RNvXININtNtNtNtNtCsjp8PXOiLT2t_8adapters6shared11persistence6schema10categories7columnss1o_0pENtB5_10created_atINtNtNtCsl8K0bEFm1U0_4core3ops5arith3AddpE3addBf_
FNDA:0,_RNvXININtNtNtNtNtCsjp8PXOiLT2t_8adapters6shared11persistence6schema10categories7columnss1p_0pENtB5_10created_atINtNtNtCsl8K0bEFm1U0_4core3ops5arith3SubpE3subBf_
FNDA:0,_RNvXININtNtNtNtNtCsjp8PXOiLT2t_8adapters6shared11persistence6schema10categories7columnss20_0pENtB5_10deleted_atINtNtNtCsl8K0bEFm1U0_4core3ops5arith3AddpE3addBf_
FNDA:0,_RNvXININtNtNtNtNtCsjp8PXOiLT2t_8adapters6shared11persistence6schema10categories7columnss21_0pENtB5_10deleted_atINtNtNtCsl8K0bEFm1U0_4core3ops5arith3SubpE3subBf_
FNDA:0,_RNvXININtNtNtNtNtCsjp8PXOiLT2t_8adapters6shared11persistence6schema10flashcards7columnss0_0pENtB5_4starINtNtCs4ZchdTtfQ7h_6diesel13query_builder13QueryFragmentpE8walk_astBf_
FNDA:0,_RNvXININtNtNtNtNtCsjp8PXOiLT2t_8adapters6shared11persistence6schema10flashcards7columnss1H_0pENtB5_10difficultyINtNtNtCsl8K0bEFm1U0_4core3ops5arith3AddpE3addBf_
FNDA:0,_RNvXININtNtNtNtNtCsjp8PXOiLT2t_8adapters6shared11persistence6schema10flashcards7columnss1I_0pENtB5_10difficultyINtNtNtCsl8K0bEFm1U0_4core3ops5arith3SubpE3subBf_
FNDA:0,_RNvXININtNtNtNtNtCsjp8PXOiLT2t_8adapters6shared11persistence6schema10flashcards7columnss1J_0pENtB5_10difficultyINtNtNtCsl8K0bEFm1U0_4core3ops5arith3DivpE3divBf_
FNDA:0,_RNvXININtNtNtNtNtCsjp8PXOiLT2t_8adapters6shared11persistence6schema10flashcards7columnss1K_0pENtB5_10difficultyINtNtNtCsl8K0bEFm1U0_4core3ops5arith3MulpE3mulBf_
FNDA:0,_RNvXININtNtNtNtNtCsjp8PXOiLT2t_8adapters6shared11persistence6schema10flashcards7columnss1m_0pENtB5_9stabilityINtNtNtCsl8K0bEFm1U0_4core3ops5arith3AddpE3addBf_
FNDA:0,_RNvXININtNtNtNtNtCsjp8PXOiLT2t_8adapters6shared11persistence6schema10flashcards7columnss1n_0pENtB5_9stabilityINtNtNtCsl8K0bEFm1U0_4core3ops5arith3SubpE3subBf_
FNDA:0,_RNvXININtNtNtNtNtCsjp8PXOiLT2t_8adapters6shared11persistence6schema10flashcards7columnss1o_0pENtB5_9stabilityINtNtNtCsl8K0bEFm1U0_4core3ops5arith3DivpE3divBf_
FNDA:0,_RNvXININtNtNtNtNtCsjp8PXOiLT2t_8adapters6shared11persistence6schema10flashcards7columnss1p_0pENtB5_9stabilityINtNtNtCsl8K0bEFm1U0_4core3ops5arith3MulpE3mulBf_
FNDA:0,_RNvXININtNtNtNtNtCsjp8PXOiLT2t_8adapters6shared11persistence6schema10flashcards7columnss22_0pENtB5_8due_dateINtNtNtCsl8K0bEFm1U0_4core3ops5arith3AddpE3addBf_
FNDA:0,_RNvXININtNtNtNtNtCsjp8PXOiLT2t_8adapters6shared11persistence6schema10flashcards7columnss23_0pENtB5_8due_dateINtNtNtCsl8K0bEFm1U0_4core3ops5arith3SubpE3subBf_
FNDA:0,_RNvXININtNtNtNtNtCsjp8PXOiLT2t_8adapters6shared11persistence6schema10flashcards7columnss2E_0pENtB5_10updated_atINtNtNtCsl8K0bEFm1U0_4core3ops5arith3AddpE3addBf_
FNDA:0,_RNvXININtNtNtNtNtCsjp8PXOiLT2t_8adapters6shared11persistence6schema10flashcards7columnss2F_0pENtB5_10updated_atINtNtNtCsl8K0bEFm1U0_4core3ops5arith3SubpE3subBf_
FNDA:0,_RNvXININtNtNtNtNtCsjp8PXOiLT2t_8adapters6shared11persistence6schema10flashcards7columnss2l_0pENtB5_10created_atINtNtNtCsl8K0bEFm1U0_4core3ops5arith3AddpE3addBf_
FNDA:0,_RNvXININtNtNtNtNtCsjp8PXOiLT2t_8adapters6shared11persistence6schema10flashcards7columnss2m_0pENtB5_10created_atINtNtNtCsl8K0bEFm1U0_4core3ops5arith3SubpE3subBf_
FNDA:0,_RNvXININtNtNtNtNtCsjp8PXOiLT2t_8adapters6shared11persistence6schema13focus_session7columnss0_0pENtB5_4starINtNtCs4ZchdTtfQ7h_6diesel13query_builder13QueryFragmentpE8walk_astBf_
FNDA:0,_RNvXININtNtNtNtNtCsjp8PXOiLT2t_8adapters6shared11persistence6schema13focus_session7columnss1I_0pENtB5_19concentration_scoreINtNtNtCsl8K0bEFm1U0_4core3ops5arith3AddpE3addBf_
FNDA:0,_RNvXININtNtNtNtNtCsjp8PXOiLT2t_8adapters6shared11persistence6schema13focus_session7columnss1J_0pENtB5_19concentration_scoreINtNtNtCsl8K0bEFm1U0_4core3ops5arith3SubpE3subBf_
FNDA:0,_RNvXININtNtNtNtNtCsjp8PXOiLT2t_8adapters6shared11persistence6schema13focus_session7columnss1K_0pENtB5_19concentration_scoreINtNtNtCsl8K0bEFm1U0_4core3ops5arith3DivpE3divBf_
FNDA:0,_RNvXININtNtNtNtNtCsjp8PXOiLT2t_8adapters6shared11persistence6schema13focus_session7columnss1L_0pENtB5_19concentration_scoreINtNtNtCsl8K0bEFm1U0_4core3ops5arith3MulpE3mulBf_
FNDA:0,_RNvXININtNtNtNtNtCsjp8PXOiLT2t_8adapters6shared11persistence6schema13focus_session7columnss1n_0pENtB5_15actual_durationINtNtNtCsl8K0bEFm1U0_4core3ops5arith3AddpE3addBf_
FNDA:0,_RNvXININtNtNtNtNtCsjp8PXOiLT2t_8adapters6shared11persistence6schema13focus_session7columnss1o_0pENtB5_15actual_durationINtNtNtCsl8K0bEFm1U0_4core3ops5arith3SubpE3subBf_
FNDA:0,_RNvXININtNtNtNtNtCsjp8PXOiLT2t_8adapters6shared11persistence6schema13focus_session7columnss1p_0pENtB5_15actual_durationINtNtNtCsl8K0bEFm1U0_4core3ops5arith3DivpE3divBf_
FNDA:0,_RNvXININtNtNtNtNtCsjp8PXOiLT2t_8adapters6shared11persistence6schema13focus_session7columnss1q_0pENtB5_15actual_durationINtNtNtCsl8K0bEFm1U0_4core3ops5arith3MulpE3mulBf_
FNDA:0,_RNvXININtNtNtNtNtCsjp8PXOiLT2t_8adapters6shared11persistence6schema13focus_session7columnss2D_0pENtB5_8ended_atINtNtNtCsl8K0bEFm1U0_4core3ops5arith3AddpE3addBf_
FNDA:0,_RNvXININtNtNtNtNtCsjp8PXOiLT2t_8adapters6shared11persistence6schema13focus_session7columnss2E_0pENtB5_8ended_atINtNtNtCsl8K0bEFm1U0_4core3ops5arith3SubpE3subBf_
FNDA:0,_RNvXININtNtNtNtNtCsjp8PXOiLT2t_8adapters6shared11persistence6schema13focus_session7columnss2W_0pENtB5_10created_atINtNtNtCsl8K0bEFm1U0_4core3ops5arith3AddpE3addBf_
FNDA:0,_RNvXININtNtNtNtNtCsjp8PXOiLT2t_8adapters6shared11persistence6schema13focus_session7columnss2X_0pENtB5_10created_atINtNtNtCsl8K0bEFm1U0_4core3ops5arith3SubpE3subBf_
FNDA:0,_RNvXININtNtNtNtNtCsjp8PXOiLT2t_8adapters6shared11persistence6schema13focus_session7columnss2k_0pENtB5_10started_atINtNtNtCsl8K0bEFm1U0_4core3ops5arith3AddpE3addBf_
FNDA:0,_RNvXININtNtNtNtNtCsjp8PXOiLT2t_8adapters6shared11persistence6schema13focus_session7columnss2l_0pENtB5_10started_atINtNtNtCsl8K0bEFm1U0_4core3ops5arith3SubpE3subBf_
FNDA:0,_RNvXININtNtNtNtNtCsjp8PXOiLT2t_8adapters6shared11persistence6schema13user_settings7columnss0_0pENtB5_4starINtNtCs4ZchdTtfQ7h_6diesel13query_builder13QueryFragmentpE8walk_astBf_
FNDA:0,_RNvXININtNtNtNtNtCsjp8PXOiLT2t_8adapters6shared11persistence6schema13user_settings7columnss1G_0pENtB5_10updated_atINtNtNtCsl8K0bEFm1U0_4core3ops5arith3AddpE3addBf_
FNDA:0,_RNvXININtNtNtNtNtCsjp8PXOiLT2t_8adapters6shared11persistence6schema13user_settings7columnss1H_0pENtB5_10updated_atINtNtNtCsl8K0bEFm1U0_4core3ops5arith3SubpE3subBf_
FNDA:0,_RNvXININtNtNtNtNtCsjp8PXOiLT2t_8adapters6shared11persistence6schema13user_settings7columnss1n_0pENtB5_10created_atINtNtNtCsl8K0bEFm1U0_4core3ops5arith3AddpE3addBf_
FNDA:0,_RNvXININtNtNtNtNtCsjp8PXOiLT2t_8adapters6shared11persistence6schema13user_settings7columnss1o_0pENtB5_10created_atINtNtNtCsl8K0bEFm1U0_4core3ops5arith3SubpE3subBf_
FNDA:0,_RNvXININtNtNtNtNtCsjp8PXOiLT2t_8adapters6shared11persistence6schema16__sqlx_migrations7columnss0_0pENtB5_4starINtNtCs4ZchdTtfQ7h_6diesel13query_builder13QueryFragmentpE8walk_astBf_
FNDA:0,_RNvXININtNtNtNtNtCsjp8PXOiLT2t_8adapters6shared11persistence6schema16__sqlx_migrations7columnss1J_0pENtB5_14execution_timeINtNtNtCsl8K0bEFm1U0_4core3ops5arith3AddpE3addBf_
FNDA:0,_RNvXININtNtNtNtNtCsjp8PXOiLT2t_8adapters6shared11persistence6schema16__sqlx_migrations7columnss1K_0pENtB5_14execution_timeINtNtNtCsl8K0bEFm1U0_4core3ops5arith3SubpE3subBf_
FNDA:0,_RNvXININtNtNtNtNtCsjp8PXOiLT2t_8adapters6shared11persistence6schema16__sqlx_migrations7columnss1L_0pENtB5_14execution_timeINtNtNtCsl8K0bEFm1U0_4core3ops5arith3DivpE3divBf_
FNDA:0,_RNvXININtNtNtNtNtCsjp8PXOiLT2t_8adapters6shared11persistence6schema16__sqlx_migrations7columnss1M_0pENtB5_14execution_timeINtNtNtCsl8K0bEFm1U0_4core3ops5arith3MulpE3mulBf_
FNDA:0,_RNvXININtNtNtNtNtCsjp8PXOiLT2t_8adapters6shared11persistence6schema16__sqlx_migrations7columnssS_0pENtB5_12installed_onINtNtNtCsl8K0bEFm1U0_4core3ops5arith3AddpE3addBf_
FNDA:0,_RNvXININtNtNtNtNtCsjp8PXOiLT2t_8adapters6shared11persistence6schema16__sqlx_migrations7columnssT_0pENtB5_12installed_onINtNtNtCsl8K0bEFm1U0_4core3ops5arith3SubpE3subBf_
FNDA:0,_RNvXININtNtNtNtNtCsjp8PXOiLT2t_8adapters6shared11persistence6schema16__sqlx_migrations7columnssg_0pENtB5_7versionINtNtNtCsl8K0bEFm1U0_4core3ops5arith3AddpE3addBf_
FNDA:0,_RNvXININtNtNtNtNtCsjp8PXOiLT2t_8adapters6shared11persistence6schema16__sqlx_migrations7columnssh_0pENtB5_7versionINtNtNtCsl8K0bEFm1U0_4core3ops5arith3SubpE3subBf_
FNDA:0,_RNvXININtNtNtNtNtCsjp8PXOiLT2t_8adapters6shared11persistence6schema16__sqlx_migrations7columnssi_0pENtB5_7versionINtNtNtCsl8K0bEFm1U0_4core3ops5arith3DivpE3divBf_
FNDA:0,_RNvXININtNtNtNtNtCsjp8PXOiLT2t_8adapters6shared11persistence6schema16__sqlx_migrations7columnssj_0pENtB5_7versionINtNtNtCsl8K0bEFm1U0_4core3ops5arith3MulpE3mulBf_
FNDA:0,_RNvXININtNtNtNtNtCsjp8PXOiLT2t_8adapters6shared11persistence6schema17flashcard_folders7columnss0_0pENtB5_4starINtNtCs4ZchdTtfQ7h_6diesel13query_builder13QueryFragmentpE8walk_astBf_
FNDA:0,_RNvXININtNtNtNtNtCsjp8PXOiLT2t_8adapters6shared11persistence6schema17flashcard_folders7columnss1E_0pENtB5_10created_atINtNtNtCsl8K0bEFm1U0_4core3ops5arith3AddpE3addBf_
FNDA:0,_RNvXININtNtNtNtNtCsjp8PXOiLT2t_8adapters6shared11persistence6schema17flashcard_folders7columnss1F_0pENtB5_10created_atINtNtNtCsl8K0bEFm1U0_4core3ops5arith3SubpE3subBf_
FNDA:0,_RNvXININtNtNtNtNtCsjp8PXOiLT2t_8adapters6shared11persistence6schema17flashcard_folders7columnss1X_0pENtB5_10updated_atINtNtNtCsl8K0bEFm1U0_4core3ops5arith3AddpE3addBf_
FNDA:0,_RNvXININtNtNtNtNtCsjp8PXOiLT2t_8adapters6shared11persistence6schema17flashcard_folders7columnss1Y_0pENtB5_10updated_atINtNtNtCsl8K0bEFm1U0_4core3ops5arith3SubpE3subBf_
FNDA:0,_RNvXININtNtNtNtNtCsjp8PXOiLT2t_8adapters6shared11persistence6schema18push_subscriptions7columnss0_0pENtB5_4starINtNtCs4ZchdTtfQ7h_6diesel13query_builder13QueryFragmentpE8walk_astBf_
FNDA:0,_RNvXININtNtNtNtNtCsjp8PXOiLT2t_8adapters6shared11persistence6schema18push_subscriptions7columnss1D_0pENtB5_10created_atINtNtNtCsl8K0bEFm1U0_4core3ops5arith3AddpE3addBf_
FNDA:0,_RNvXININtNtNtNtNtCsjp8PXOiLT2t_8adapters6shared11persistence6schema18push_subscriptions7columnss1E_0pENtB5_10created_atINtNtNtCsl8K0bEFm1U0_4core3ops5arith3SubpE3subBf_
FNDA:0,_RNvXININtNtNtNtNtCsjp8PXOiLT2t_8adapters6shared11persistence6schema22flashcard_folder_items7columnss0_0pENtB5_4starINtNtCs4ZchdTtfQ7h_6diesel13query_builder13QueryFragmentpE8walk_astBf_
FNDA:0,_RNvXININtNtNtNtNtCsjp8PXOiLT2t_8adapters6shared11persistence6schema5tasks7columnss0_0pENtB5_4starINtNtCs4ZchdTtfQ7h_6diesel13query_builder13QueryFragmentpE8walk_astBf_
FNDA:0,_RNvXININtNtNtNtNtCsjp8PXOiLT2t_8adapters6shared11persistence6schema5tasks7columnss1V_0pENtB5_14scheduled_dateINtNtNtCsl8K0bEFm1U0_4core3ops5arith3AddpE3addBf_
FNDA:0,_RNvXININtNtNtNtNtCsjp8PXOiLT2t_8adapters6shared11persistence6schema5tasks7columnss1W_0pENtB5_14scheduled_dateINtNtNtCsl8K0bEFm1U0_4core3ops5arith3SubpE3subBf_
FNDA:0,_RNvXININtNtNtNtNtCsjp8PXOiLT2t_8adapters6shared11persistence6schema5tasks7columnss2e_0pENtB5_10created_atINtNtNtCsl8K0bEFm1U0_4core3ops5arith3AddpE3addBf_
FNDA:0,_RNvXININtNtNtNtNtCsjp8PXOiLT2t_8adapters6shared11persistence6schema5tasks7columnss2f_0pENtB5_10created_atINtNtNtCsl8K0bEFm1U0_4core3ops5arith3SubpE3subBf_
FNDA:0,_RNvXININtNtNtNtNtCsjp8PXOiLT2t_8adapters6shared11persistence6schema5tasks7columnss2x_0pENtB5_12completed_atINtNtNtCsl8K0bEFm1U0_4core3ops5arith3AddpE3addBf_
FNDA:0,_RNvXININtNtNtNtNtCsjp8PXOiLT2t_8adapters6shared11persistence6schema5tasks7columnss2y_0pENtB5_12completed_atINtNtNtCsl8K0bEFm1U0_4core3ops5arith3SubpE3subBf_
FNDA:0,_RNvXININtNtNtNtNtCsjp8PXOiLT2t_8adapters6shared11persistence6schema5tasks7columnss38_0pENtB5_10deleted_atINtNtNtCsl8K0bEFm1U0_4core3ops5arith3AddpE3addBf_
FNDA:0,_RNvXININtNtNtNtNtCsjp8PXOiLT2t_8adapters6shared11persistence6schema5tasks7columnss39_0pENtB5_10deleted_atINtNtNtCsl8K0bEFm1U0_4core3ops5arith3SubpE3subBf_
FNDA:0,_RNvXININtNtNtNtNtCsjp8PXOiLT2t_8adapters6shared11persistence6schema5tasks7columnss3J_0pENtB5_21schedule_all_day_dateINtNtNtCsl8K0bEFm1U0_4core3ops5arith3AddpE3addBf_
FNDA:0,_RNvXININtNtNtNtNtCsjp8PXOiLT2t_8adapters6shared11persistence6schema5tasks7columnss3K_0pENtB5_21schedule_all_day_dateINtNtNtCsl8K0bEFm1U0_4core3ops5arith3SubpE3subBf_
FNDA:0,_RNvXININtNtNtNtNtCsjp8PXOiLT2t_8adapters6shared11persistence6schema5tasks7columnss42_0pENtB5_22schedule_duration_secsINtNtNtCsl8K0bEFm1U0_4core3ops5arith3AddpE3addBf_
FNDA:0,_RNvXININtNtNtNtNtCsjp8PXOiLT2t_8adapters6shared11persistence6schema5tasks7columnss43_0pENtB5_22schedule_duration_secsINtNtNtCsl8K0bEFm1U0_4core3ops5arith3SubpE3subBf_
FNDA:0,_RNvXININtNtNtNtNtCsjp8PXOiLT2t_8adapters6shared11persistence6schema5tasks7columnss44_0pENtB5_22schedule_duration_secsINtNtNtCsl8K0bEFm1U0_4core3ops5arith3DivpE3divBf_
FNDA:0,_RNvXININtNtNtNtNtCsjp8PXOiLT2t_8adapters6shared11persistence6schema5tasks7columnss45_0pENtB5_22schedule_duration_secsINtNtNtCsl8K0bEFm1U0_4core3ops5arith3MulpE3mulBf_
FNDA:0,_RNvXININtNtNtNtNtCsjp8PXOiLT2t_8adapters6shared11persistence6schema5users7columnss0_0pENtB5_4starINtNtCs4ZchdTtfQ7h_6diesel13query_builder13QueryFragmentpE8walk_astBf_
FNDA:0,_RNvXININtNtNtNtNtCsjp8PXOiLT2t_8adapters6shared11persistence6schema5users7columnss1I_0pENtB5_10updated_atINtNtNtCsl8K0bEFm1U0_4core3ops5arith3AddpE3addBf_
FNDA:0,_RNvXININtNtNtNtNtCsjp8PXOiLT2t_8adapters6shared11persistence6schema5users7columnss1J_0pENtB5_10updated_atINtNtNtCsl8K0bEFm1U0_4core3ops5arith3SubpE3subBf_
FNDA:0,_RNvXININtNtNtNtNtCsjp8PXOiLT2t_8adapters6shared11persistence6schema5users7columnss1p_0pENtB5_10created_atINtNtNtCsl8K0bEFm1U0_4core3ops5arith3AddpE3addBf_
FNDA:0,_RNvXININtNtNtNtNtCsjp8PXOiLT2t_8adapters6shared11persistence6schema5users7columnss1q_0pENtB5_10created_atINtNtNtCsl8K0bEFm1U0_4core3ops5arith3SubpE3subBf_
FNDA:0,_RNvXININtNtNtNtNtCsjp8PXOiLT2t_8adapters6shared11persistence6schema5users7columnss21_0pENtB5_10deleted_atINtNtNtCsl8K0bEFm1U0_4core3ops5arith3AddpE3addBf_
FNDA:0,_RNvXININtNtNtNtNtCsjp8PXOiLT2t_8adapters6shared11persistence6schema5users7columnss22_0pENtB5_10deleted_atINtNtNtCsl8K0bEFm1U0_4core3ops5arith3SubpE3subBf_
FNDA:0,_RNvXININtNtNtNtNtCsjp8PXOiLT2t_8adapters6shared11persistence6schema8subtasks7columnss0_0pENtB5_4starINtNtCs4ZchdTtfQ7h_6diesel13query_builder13QueryFragmentpE8walk_astBf_
FNDA:0,_RNvXININtNtNtNtNtCsjp8PXOiLT2t_8adapters6shared11persistence6schema8subtasks7columnss1E_0pENtB5_12completed_atINtNtNtCsl8K0bEFm1U0_4core3ops5arith3AddpE3addBf_
FNDA:0,_RNvXININtNtNtNtNtCsjp8PXOiLT2t_8adapters6shared11persistence6schema8subtasks7columnss1F_0pENtB5_12completed_atINtNtNtCsl8K0bEFm1U0_4core3ops5arith3SubpE3subBf_
FNDA:0,_RNvXININtNtNtNtNtCsjp8PXOiLT2t_8adapters6shared11persistence6schema8subtasks7columnss1X_0pENtB5_10sort_orderINtNtNtCsl8K0bEFm1U0_4core3ops5arith3AddpE3addBf_
FNDA:0,_RNvXININtNtNtNtNtCsjp8PXOiLT2t_8adapters6shared11persistence6schema8subtasks7columnss1Y_0pENtB5_10sort_orderINtNtNtCsl8K0bEFm1U0_4core3ops5arith3SubpE3subBf_
FNDA:0,_RNvXININtNtNtNtNtCsjp8PXOiLT2t_8adapters6shared11persistence6schema8subtasks7columnss1Z_0pENtB5_10sort_orderINtNtNtCsl8K0bEFm1U0_4core3ops5arith3DivpE3divBf_
FNDA:0,_RNvXININtNtNtNtNtCsjp8PXOiLT2t_8adapters6shared11persistence6schema8subtasks7columnss20_0pENtB5_10sort_orderINtNtNtCsl8K0bEFm1U0_4core3ops5arith3MulpE3mulBf_
FNDA:0,_RNvXININtNtNtNtNtCsjp8PXOiLT2t_8adapters6shared11persistence6schema8subtasks7columnss2i_0pENtB5_10created_atINtNtNtCsl8K0bEFm1U0_4core3ops5arith3AddpE3addBf_
FNDA:0,_RNvXININtNtNtNtNtCsjp8PXOiLT2t_8adapters6shared11persistence6schema8subtasks7columnss2j_0pENtB5_10created_atINtNtNtCsl8K0bEFm1U0_4core3ops5arith3SubpE3subBf_
FNDA:0,_RNvXININtNtNtNtNtCsjp8PXOiLT2t_8adapters6shared11persistence6schema9reminders7columnss0_0pENtB5_4starINtNtCs4ZchdTtfQ7h_6diesel13query_builder13QueryFragmentpE8walk_astBf_
FNDA:0,_RNvXININtNtNtNtNtCsjp8PXOiLT2t_8adapters6shared11persistence6schema9reminders7columnss1X_0pENtB5_10created_atINtNtNtCsl8K0bEFm1U0_4core3ops5arith3AddpE3addBf_
FNDA:0,_RNvXININtNtNtNtNtCsjp8PXOiLT2t_8adapters6shared11persistence6schema9reminders7columnss1Y_0pENtB5_10created_atINtNtNtCsl8K0bEFm1U0_4core3ops5arith3SubpE3subBf_
FNDA:0,_RNvXININtNtNtNtNtCsjp8PXOiLT2t_8adapters6shared11persistence6schema9reminders7columnss1n_0pENtB5_4dateINtNtNtCsl8K0bEFm1U0_4core3ops5arith3AddpE3addBf_
FNDA:0,_RNvXININtNtNtNtNtCsjp8PXOiLT2t_8adapters6shared11persistence6schema9reminders7columnss1o_0pENtB5_4dateINtNtNtCsl8K0bEFm1U0_4core3ops5arith3SubpE3subBf_
FNDA:0,_RNvXININtNtNtNtNtCsjp8PXOiLT2t_8adapters6shared11persistence6schema9reminders7columnss2g_0pENtB5_10updated_atINtNtNtCsl8K0bEFm1U0_4core3ops5arith3AddpE3addBf_
FNDA:0,_RNvXININtNtNtNtNtCsjp8PXOiLT2t_8adapters6shared11persistence6schema9reminders7columnss2h_0pENtB5_10updated_atINtNtNtCsl8K0bEFm1U0_4core3ops5arith3SubpE3subBf_
FNDA:0,_RNvMNtNtNtNtCsjp8PXOiLT2t_8adapters6shared11persistence6schema10flashcardsNtB2_5table4star
FNDA:0,_RNvXs2_NtNtNtNtCsjp8PXOiLT2t_8adapters6shared11persistence6schema10flashcardsNtB5_5tableNtNtCs4ZchdTtfQ7h_6diesel13query_builder7AsQuery8as_query
FNDA:0,_RNvXs3_NtNtNtNtCsjp8PXOiLT2t_8adapters6shared11persistence6schema10flashcardsNtB5_5tableNtNtCs4ZchdTtfQ7h_6diesel12query_source5Table11all_columns
FNDA:0,_RNvXs3_NtNtNtNtCsjp8PXOiLT2t_8adapters6shared11persistence6schema10flashcardsNtB5_5tableNtNtCs4ZchdTtfQ7h_6diesel12query_source5Table11primary_key
FNDA:0,_RNvXs4_NtNtNtNtCsjp8PXOiLT2t_8adapters6shared11persistence6schema10flashcardsNtB5_5tableNtNtCs4ZchdTtfQ7h_6diesel12associations8HasTable5table
FNDA:0,_RNvXs5_NtNtNtNtCsjp8PXOiLT2t_8adapters6shared11persistence6schema10flashcardsNtB5_5tableNtNtNtNtCs4ZchdTtfQ7h_6diesel13query_builder16update_statement6target16IntoUpdateTarget18into_update_target
FNDA:0,_RNvXs_NtNtNtNtCsjp8PXOiLT2t_8adapters6shared11persistence6schema10flashcardsNtB4_5tableNtNtCs4ZchdTtfQ7h_6diesel12query_source11QuerySource11from_clause
FNDA:0,_RNvXs_NtNtNtNtCsjp8PXOiLT2t_8adapters6shared11persistence6schema10flashcardsNtB4_5tableNtNtCs4ZchdTtfQ7h_6diesel12query_source11QuerySource17default_selection
FNDA:0,_RNvMNtNtNtNtCsjp8PXOiLT2t_8adapters6shared11persistence6schema10categoriesNtB2_5table4star
FNDA:9,_RNvXs2_NtNtNtNtCsjp8PXOiLT2t_8adapters6shared11persistence6schema10categoriesNtB5_5tableNtNtCs4ZchdTtfQ7h_6diesel13query_builder7AsQuery8as_query
FNDA:9,_RNvXs3_NtNtNtNtCsjp8PXOiLT2t_8adapters6shared11persistence6schema10categoriesNtB5_5tableNtNtCs4ZchdTtfQ7h_6diesel12query_source5Table11all_columns
FNDA:0,_RNvXs3_NtNtNtNtCsjp8PXOiLT2t_8adapters6shared11persistence6schema10categoriesNtB5_5tableNtNtCs4ZchdTtfQ7h_6diesel12query_source5Table11primary_key
FNDA:2,_RNvXs4_NtNtNtNtCsjp8PXOiLT2t_8adapters6shared11persistence6schema10categoriesNtB5_5tableNtNtCs4ZchdTtfQ7h_6diesel12associations8HasTable5table
FNDA:2,_RNvXs5_NtNtNtNtCsjp8PXOiLT2t_8adapters6shared11persistence6schema10categoriesNtB5_5tableNtNtNtNtCs4ZchdTtfQ7h_6diesel13query_builder16update_statement6target16IntoUpdateTarget18into_update_target
FNDA:29,_RNvXs_NtNtNtNtCsjp8PXOiLT2t_8adapters6shared11persistence6schema10categoriesNtB4_5tableNtNtCs4ZchdTtfQ7h_6diesel12query_source11QuerySource11from_clause
FNDA:9,_RNvXs_NtNtNtNtCsjp8PXOiLT2t_8adapters6shared11persistence6schema10categoriesNtB4_5tableNtNtCs4ZchdTtfQ7h_6diesel12query_source11QuerySource17default_selection
FNDA:0,_RNvMNtNtNtNtCsjp8PXOiLT2t_8adapters6shared11persistence6schema18push_subscriptionsNtB2_5table4star
FNDA:0,_RNvXs2_NtNtNtNtCsjp8PXOiLT2t_8adapters6shared11persistence6schema18push_subscriptionsNtB5_5tableNtNtCs4ZchdTtfQ7h_6diesel13query_builder7AsQuery8as_query
FNDA:0,_RNvXs3_NtNtNtNtCsjp8PXOiLT2t_8adapters6shared11persistence6schema18push_subscriptionsNtB5_5tableNtNtCs4ZchdTtfQ7h_6diesel12query_source5Table11all_columns
FNDA:0,_RNvXs3_NtNtNtNtCsjp8PXOiLT2t_8adapters6shared11persistence6schema18push_subscriptionsNtB5_5tableNtNtCs4ZchdTtfQ7h_6diesel12query_source5Table11primary_key
FNDA:0,_RNvXs4_NtNtNtNtCsjp8PXOiLT2t_8adapters6shared11persistence6schema18push_subscriptionsNtB5_5tableNtNtCs4ZchdTtfQ7h_6diesel12associations8HasTable5table
FNDA:0,_RNvXs5_NtNtNtNtCsjp8PXOiLT2t_8adapters6shared11persistence6schema18push_subscriptionsNtB5_5tableNtNtNtNtCs4ZchdTtfQ7h_6diesel13query_builder16update_statement6target16IntoUpdateTarget18into_update_target
FNDA:0,_RNvXs_NtNtNtNtCsjp8PXOiLT2t_8adapters6shared11persistence6schema18push_subscriptionsNtB4_5tableNtNtCs4ZchdTtfQ7h_6diesel12query_source11QuerySource11from_clause
FNDA:0,_RNvXs_NtNtNtNtCsjp8PXOiLT2t_8adapters6shared11persistence6schema18push_subscriptionsNtB4_5tableNtNtCs4ZchdTtfQ7h_6diesel12query_source11QuerySource17default_selection
FNDA:0,_RNvMNtNtNtNtCsjp8PXOiLT2t_8adapters6shared11persistence6schema16__sqlx_migrationsNtB2_5table4star
FNDA:0,_RNvXs2_NtNtNtNtCsjp8PXOiLT2t_8adapters6shared11persistence6schema16__sqlx_migrationsNtB5_5tableNtNtCs4ZchdTtfQ7h_6diesel13query_builder7AsQuery8as_query
FNDA:0,_RNvXs3_NtNtNtNtCsjp8PXOiLT2t_8adapters6shared11persistence6schema16__sqlx_migrationsNtB5_5tableNtNtCs4ZchdTtfQ7h_6diesel12query_source5Table11all_columns
FNDA:0,_RNvXs3_NtNtNtNtCsjp8PXOiLT2t_8adapters6shared11persistence6schema16__sqlx_migrationsNtB5_5tableNtNtCs4ZchdTtfQ7h_6diesel12query_source5Table11primary_key
FNDA:0,_RNvXs4_NtNtNtNtCsjp8PXOiLT2t_8adapters6shared11persistence6schema16__sqlx_migrationsNtB5_5tableNtNtCs4ZchdTtfQ7h_6diesel12associations8HasTable5table
FNDA:0,_RNvXs5_NtNtNtNtCsjp8PXOiLT2t_8adapters6shared11persistence6schema16__sqlx_migrationsNtB5_5tableNtNtNtNtCs4ZchdTtfQ7h_6diesel13query_builder16update_statement6target16IntoUpdateTarget18into_update_target
FNDA:0,_RNvXs_NtNtNtNtCsjp8PXOiLT2t_8adapters6shared11persistence6schema16__sqlx_migrationsNtB4_5tableNtNtCs4ZchdTtfQ7h_6diesel12query_source11QuerySource11from_clause
FNDA:0,_RNvXs_NtNtNtNtCsjp8PXOiLT2t_8adapters6shared11persistence6schema16__sqlx_migrationsNtB4_5tableNtNtCs4ZchdTtfQ7h_6diesel12query_source11QuerySource17default_selection
FNDA:0,_RNvMNtNtNtNtCsjp8PXOiLT2t_8adapters6shared11persistence6schema17flashcard_foldersNtB2_5table4star
FNDA:0,_RNvXs2_NtNtNtNtCsjp8PXOiLT2t_8adapters6shared11persistence6schema17flashcard_foldersNtB5_5tableNtNtCs4ZchdTtfQ7h_6diesel13query_builder7AsQuery8as_query
FNDA:0,_RNvXs3_NtNtNtNtCsjp8PXOiLT2t_8adapters6shared11persistence6schema17flashcard_foldersNtB5_5tableNtNtCs4ZchdTtfQ7h_6diesel12query_source5Table11all_columns
FNDA:0,_RNvXs3_NtNtNtNtCsjp8PXOiLT2t_8adapters6shared11persistence6schema17flashcard_foldersNtB5_5tableNtNtCs4ZchdTtfQ7h_6diesel12query_source5Table11primary_key
FNDA:0,_RNvXs4_NtNtNtNtCsjp8PXOiLT2t_8adapters6shared11persistence6schema17flashcard_foldersNtB5_5tableNtNtCs4ZchdTtfQ7h_6diesel12associations8HasTable5table
FNDA:0,_RNvXs5_NtNtNtNtCsjp8PXOiLT2t_8adapters6shared11persistence6schema17flashcard_foldersNtB5_5tableNtNtNtNtCs4ZchdTtfQ7h_6diesel13query_builder16update_statement6target16IntoUpdateTarget18into_update_target
FNDA:0,_RNvXs_NtNtNtNtCsjp8PXOiLT2t_8adapters6shared11persistence6schema17flashcard_foldersNtB4_5tableNtNtCs4ZchdTtfQ7h_6diesel12query_source11QuerySource11from_clause
FNDA:0,_RNvXs_NtNtNtNtCsjp8PXOiLT2t_8adapters6shared11persistence6schema17flashcard_foldersNtB4_5tableNtNtCs4ZchdTtfQ7h_6diesel12query_source11QuerySource17default_selection
FNDA:0,_RNvMNtNtNtNtCsjp8PXOiLT2t_8adapters6shared11persistence6schema8subtasksNtB2_5table4star
FNDA:11,_RNvXs2_NtNtNtNtCsjp8PXOiLT2t_8adapters6shared11persistence6schema8subtasksNtB5_5tableNtNtCs4ZchdTtfQ7h_6diesel13query_builder7AsQuery8as_query
FNDA:11,_RNvXs3_NtNtNtNtCsjp8PXOiLT2t_8adapters6shared11persistence6schema8subtasksNtB5_5tableNtNtCs4ZchdTtfQ7h_6diesel12query_source5Table11all_columns
FNDA:0,_RNvXs3_NtNtNtNtCsjp8PXOiLT2t_8adapters6shared11persistence6schema8subtasksNtB5_5tableNtNtCs4ZchdTtfQ7h_6diesel12query_source5Table11primary_key
FNDA:2,_RNvXs4_NtNtNtNtCsjp8PXOiLT2t_8adapters6shared11persistence6schema8subtasksNtB5_5tableNtNtCs4ZchdTtfQ7h_6diesel12associations8HasTable5table
FNDA:2,_RNvXs5_NtNtNtNtCsjp8PXOiLT2t_8adapters6shared11persistence6schema8subtasksNtB5_5tableNtNtNtNtCs4ZchdTtfQ7h_6diesel13query_builder16update_statement6target16IntoUpdateTarget18into_update_target
FNDA:13,_RNvXs_NtNtNtNtCsjp8PXOiLT2t_8adapters6shared11persistence6schema8subtasksNtB4_5tableNtNtCs4ZchdTtfQ7h_6diesel12query_source11QuerySource11from_clause
FNDA:11,_RNvXs_NtNtNtNtCsjp8PXOiLT2t_8adapters6shared11persistence6schema8subtasksNtB4_5tableNtNtCs4ZchdTtfQ7h_6diesel12query_source11QuerySource17default_selection
FNDA:0,_RNvMNtNtNtNtCsjp8PXOiLT2t_8adapters6shared11persistence6schema9remindersNtB2_5table4star
FNDA:5,_RNvXs2_NtNtNtNtCsjp8PXOiLT2t_8adapters6shared11persistence6schema9remindersNtB5_5tableNtNtCs4ZchdTtfQ7h_6diesel13query_builder7AsQuery8as_query
FNDA:5,_RNvXs3_NtNtNtNtCsjp8PXOiLT2t_8adapters6shared11persistence6schema9remindersNtB5_5tableNtNtCs4ZchdTtfQ7h_6diesel12query_source5Table11all_columns
FNDA:0,_RNvXs3_NtNtNtNtCsjp8PXOiLT2t_8adapters6shared11persistence6schema9remindersNtB5_5tableNtNtCs4ZchdTtfQ7h_6diesel12query_source5Table11primary_key
FNDA:0,_RNvXs4_NtNtNtNtCsjp8PXOiLT2t_8adapters6shared11persistence6schema9remindersNtB5_5tableNtNtCs4ZchdTtfQ7h_6diesel12associations8HasTable5table
FNDA:0,_RNvXs5_NtNtNtNtCsjp8PXOiLT2t_8adapters6shared11persistence6schema9remindersNtB5_5tableNtNtNtNtCs4ZchdTtfQ7h_6diesel13query_builder16update_statement6target16IntoUpdateTarget18into_update_target
FNDA:5,_RNvXs_NtNtNtNtCsjp8PXOiLT2t_8adapters6shared11persistence6schema9remindersNtB4_5tableNtNtCs4ZchdTtfQ7h_6diesel12query_source11QuerySource11from_clause
FNDA:5,_RNvXs_NtNtNtNtCsjp8PXOiLT2t_8adapters6shared11persistence6schema9remindersNtB4_5tableNtNtCs4ZchdTtfQ7h_6diesel12query_source11QuerySource17default_selection
FNDA:0,_RNvMNtNtNtNtCsjp8PXOiLT2t_8adapters6shared11persistence6schema5tasksNtB2_5table4star
FNDA:13,_RNvXs2_NtNtNtNtCsjp8PXOiLT2t_8adapters6shared11persistence6schema5tasksNtB5_5tableNtNtCs4ZchdTtfQ7h_6diesel13query_builder7AsQuery8as_query
FNDA:22,_RNvXs3_NtNtNtNtCsjp8PXOiLT2t_8adapters6shared11persistence6schema5tasksNtB5_5tableNtNtCs4ZchdTtfQ7h_6diesel12query_source5Table11all_columns
FNDA:9,_RNvXs3_NtNtNtNtCsjp8PXOiLT2t_8adapters6shared11persistence6schema5tasksNtB5_5tableNtNtCs4ZchdTtfQ7h_6diesel12query_source5Table11primary_key
FNDA:3,_RNvXs4_NtNtNtNtCsjp8PXOiLT2t_8adapters6shared11persistence6schema5tasksNtB5_5tableNtNtCs4ZchdTtfQ7h_6diesel12associations8HasTable5table
FNDA:3,_RNvXs5_NtNtNtNtCsjp8PXOiLT2t_8adapters6shared11persistence6schema5tasksNtB5_5tableNtNtNtNtCs4ZchdTtfQ7h_6diesel13query_builder16update_statement6target16IntoUpdateTarget18into_update_target
FNDA:43,_RNvXs_NtNtNtNtCsjp8PXOiLT2t_8adapters6shared11persistence6schema5tasksNtB4_5tableNtNtCs4ZchdTtfQ7h_6diesel12query_source11QuerySource11from_clause
FNDA:22,_RNvXs_NtNtNtNtCsjp8PXOiLT2t_8adapters6shared11persistence6schema5tasksNtB4_5tableNtNtCs4ZchdTtfQ7h_6diesel12query_source11QuerySource17default_selection
FNDA:0,_RNvMNtNtNtNtCsjp8PXOiLT2t_8adapters6shared11persistence6schema5usersNtB2_5table4star
FNDA:80,_RNvXs2_NtNtNtNtCsjp8PXOiLT2t_8adapters6shared11persistence6schema5usersNtB5_5tableNtNtCs4ZchdTtfQ7h_6diesel13query_builder7AsQuery8as_query
FNDA:80,_RNvXs3_NtNtNtNtCsjp8PXOiLT2t_8adapters6shared11persistence6schema5usersNtB5_5tableNtNtCs4ZchdTtfQ7h_6diesel12query_source5Table11all_columns
FNDA:14,_RNvXs3_NtNtNtNtCsjp8PXOiLT2t_8adapters6shared11persistence6schema5usersNtB5_5tableNtNtCs4ZchdTtfQ7h_6diesel12query_source5Table11primary_key
FNDA:2,_RNvXs4_NtNtNtNtCsjp8PXOiLT2t_8adapters6shared11persistence6schema5usersNtB5_5tableNtNtCs4ZchdTtfQ7h_6diesel12associations8HasTable5table
FNDA:2,_RNvXs5_NtNtNtNtCsjp8PXOiLT2t_8adapters6shared11persistence6schema5usersNtB5_5tableNtNtNtNtCs4ZchdTtfQ7h_6diesel13query_builder16update_statement6target16IntoUpdateTarget18into_update_target
FNDA:150,_RNvXs_NtNtNtNtCsjp8PXOiLT2t_8adapters6shared11persistence6schema5usersNtB4_5tableNtNtCs4ZchdTtfQ7h_6diesel12query_source11QuerySource11from_clause
FNDA:80,_RNvXs_NtNtNtNtCsjp8PXOiLT2t_8adapters6shared11persistence6schema5usersNtB4_5tableNtNtCs4ZchdTtfQ7h_6diesel12query_source11QuerySource17default_selection
FNDA:0,_RNvMNtNtNtNtCsjp8PXOiLT2t_8adapters6shared11persistence6schema13focus_sessionNtB2_5table4star
FNDA:11,_RNvXs2_NtNtNtNtCsjp8PXOiLT2t_8adapters6shared11persistence6schema13focus_sessionNtB5_5tableNtNtCs4ZchdTtfQ7h_6diesel13query_builder7AsQuery8as_query
FNDA:21,_RNvXs3_NtNtNtNtCsjp8PXOiLT2t_8adapters6shared11persistence6schema13focus_sessionNtB5_5tableNtNtCs4ZchdTtfQ7h_6diesel12query_source5Table11all_columns
FNDA:1,_RNvXs3_NtNtNtNtCsjp8PXOiLT2t_8adapters6shared11persistence6schema13focus_sessionNtB5_5tableNtNtCs4ZchdTtfQ7h_6diesel12query_source5Table11primary_key
FNDA:1,_RNvXs4_NtNtNtNtCsjp8PXOiLT2t_8adapters6shared11persistence6schema13focus_sessionNtB5_5tableNtNtCs4ZchdTtfQ7h_6diesel12associations8HasTable5table
FNDA:0,_RNvXs5_NtNtNtNtCsjp8PXOiLT2t_8adapters6shared11persistence6schema13focus_sessionNtB5_5tableNtNtNtNtCs4ZchdTtfQ7h_6diesel13query_builder16update_statement6target16IntoUpdateTarget18into_update_target
FNDA:41,_RNvXs_NtNtNtNtCsjp8PXOiLT2t_8adapters6shared11persistence6schema13focus_sessionNtB4_5tableNtNtCs4ZchdTtfQ7h_6diesel12query_source11QuerySource11from_clause
FNDA:11,_RNvXs_NtNtNtNtCsjp8PXOiLT2t_8adapters6shared11persistence6schema13focus_sessionNtB4_5tableNtNtCs4ZchdTtfQ7h_6diesel12query_source11QuerySource17default_selection
FNDA:0,_RNvMNtNtNtNtCsjp8PXOiLT2t_8adapters6shared11persistence6schema13user_settingsNtB2_5table4star
FNDA:10,_RNvXs2_NtNtNtNtCsjp8PXOiLT2t_8adapters6shared11persistence6schema13user_settingsNtB5_5tableNtNtCs4ZchdTtfQ7h_6diesel13query_builder7AsQuery8as_query
FNDA:10,_RNvXs3_NtNtNtNtCsjp8PXOiLT2t_8adapters6shared11persistence6schema13user_settingsNtB5_5tableNtNtCs4ZchdTtfQ7h_6diesel12query_source5Table11all_columns
FNDA:0,_RNvXs3_NtNtNtNtCsjp8PXOiLT2t_8adapters6shared11persistence6schema13user_settingsNtB5_5tableNtNtCs4ZchdTtfQ7h_6diesel12query_source5Table11primary_key
FNDA:1,_RNvXs4_NtNtNtNtCsjp8PXOiLT2t_8adapters6shared11persistence6schema13user_settingsNtB5_5tableNtNtCs4ZchdTtfQ7h_6diesel12associations8HasTable5table
FNDA:1,_RNvXs5_NtNtNtNtCsjp8PXOiLT2t_8adapters6shared11persistence6schema13user_settingsNtB5_5tableNtNtNtNtCs4ZchdTtfQ7h_6diesel13query_builder16update_statement6target16IntoUpdateTarget18into_update_target
FNDA:15,_RNvXs_NtNtNtNtCsjp8PXOiLT2t_8adapters6shared11persistence6schema13user_settingsNtB4_5tableNtNtCs4ZchdTtfQ7h_6diesel12query_source11QuerySource11from_clause
FNDA:10,_RNvXs_NtNtNtNtCsjp8PXOiLT2t_8adapters6shared11persistence6schema13user_settingsNtB4_5tableNtNtCs4ZchdTtfQ7h_6diesel12query_source11QuerySource17default_selection
FNF:12
FNH:8
DA:8,0
DA:21,0
DA:35,0
DA:46,0
DA:60,60
DA:76,86
DA:87,60
DA:102,59
DA:116,50
DA:138,115
DA:150,47
DA:165,502
BRF:0
BRH:0
LF:12
LH:8
end_of_record
SF:/Users/francescopiogaglione/projects/personal/focus_flow_workspace/focus_flow_cloud/backend/crates/adapters/src/shared/workers/reminder_worker.rs
FN:13,_RNvNtNtNtCsi6y5LRNeeCE_8adapters6shared7workers15reminder_worker13send_web_push
FN:63,_RNvNtNtNtCsi6y5LRNeeCE_8adapters6shared7workers15reminder_worker20process_reminder_job
FN:138,_RINvMs4_NtNtNtNtNtNtCsi6y5LRNeeCE_8adapters6shared7workers15reminder_worker5tests54___mock_MockReminderPersistenceMock_ReminderPersistence14___get_reminderNtB6_6Common4withpEBi_
FN:138,_RINvMs4_NtNtNtNtNtNtCsi6y5LRNeeCE_8adapters6shared7workers15reminder_worker5tests54___mock_MockReminderPersistenceMock_ReminderPersistence14___get_reminderNtB6_6Common5withfpEBi_
FN:138,_RINvMs4_NtNtNtNtNtNtCsi6y5LRNeeCE_8adapters6shared7workers15reminder_worker5tests54___mock_MockReminderPersistenceMock_ReminderPersistence14___get_reminderNtB6_6Common8withf_stpEBi_
FN:138,_RINvMs4_NtNtNtNtNtNtCsi6y5LRNeeCE_8adapters6shared7workers15reminder_worker5tests54___mock_MockReminderPersistenceMock_ReminderPersistence15___save_reminderNtB6_6Common4withpEBi_
FN:138,_RINvMs4_NtNtNtNtNtNtCsi6y5LRNeeCE_8adapters6shared7workers15reminder_worker5tests54___mock_MockReminderPersistenceMock_ReminderPersistence15___save_reminderNtB6_6Common5timespEBi_
FN:138,_RINvMs4_NtNtNtNtNtNtCsi6y5LRNeeCE_8adapters6shared7workers15reminder_worker5tests54___mock_MockReminderPersistenceMock_ReminderPersistence15___save_reminderNtB6_6Common5withfpEBi_
FN:138,_RINvMs4_NtNtNtNtNtNtCsi6y5LRNeeCE_8adapters6shared7workers15reminder_worker5tests54___mock_MockReminderPersistenceMock_ReminderPersistence15___save_reminderNtB6_6Common8withf_stpEBi_
FN:138,_RINvMs4_NtNtNtNtNtNtCsi6y5LRNeeCE_8adapters6shared7workers15reminder_worker5tests54___mock_MockReminderPersistenceMock_ReminderPersistence17___delete_reminderNtB6_6Common4withpEBi_
FN:138,_RINvMs4_NtNtNtNtNtNtCsi6y5LRNeeCE_8adapters6shared7workers15reminder_worker5tests54___mock_MockReminderPersistenceMock_ReminderPersistence17___delete_reminderNtB6_6Common5timespEBi_
FN:138,_RINvMs4_NtNtNtNtNtNtCsi6y5LRNeeCE_8adapters6shared7workers15reminder_worker5tests54___mock_MockReminderPersistenceMock_ReminderPersistence17___delete_reminderNtB6_6Common5withfpEBi_
FN:138,_RINvMs4_NtNtNtNtNtNtCsi6y5LRNeeCE_8adapters6shared7workers15reminder_worker5tests54___mock_MockReminderPersistenceMock_ReminderPersistence17___delete_reminderNtB6_6Common8withf_stpEBi_
FN:138,_RINvMs4_NtNtNtNtNtNtCsi6y5LRNeeCE_8adapters6shared7workers15reminder_worker5tests54___mock_MockReminderPersistenceMock_ReminderPersistence17___update_reminderNtB6_6Common4withpEBi_
FN:138,_RINvMs4_NtNtNtNtNtNtCsi6y5LRNeeCE_8adapters6shared7workers15reminder_worker5tests54___mock_MockReminderPersistenceMock_ReminderPersistence17___update_reminderNtB6_6Common5withfpEBi_
FN:138,_RINvMs4_NtNtNtNtNtNtCsi6y5LRNeeCE_8adapters6shared7workers15reminder_worker5tests54___mock_MockReminderPersistenceMock_ReminderPersistence17___update_reminderNtB6_6Common8withf_stpEBi_
FN:138,_RINvMs4_NtNtNtNtNtNtCsi6y5LRNeeCE_8adapters6shared7workers15reminder_worker5tests54___mock_MockReminderPersistenceMock_ReminderPersistence18___find_by_task_idsNtB6_6Common4withpEBi_
FN:138,_RINvMs4_NtNtNtNtNtNtCsi6y5LRNeeCE_8adapters6shared7workers15reminder_worker5tests54___mock_MockReminderPersistenceMock_ReminderPersistence18___find_by_task_idsNtB6_6Common5timespEBi_
FN:138,_RINvMs4_NtNtNtNtNtNtCsi6y5LRNeeCE_8adapters6shared7workers15reminder_worker5tests54___mock_MockReminderPersistenceMock_ReminderPersistence18___find_by_task_idsNtB6_6Common5withfpEBi_
FN:138,_RINvMs4_NtNtNtNtNtNtCsi6y5LRNeeCE_8adapters6shared7workers15reminder_worker5tests54___mock_MockReminderPersistenceMock_ReminderPersistence18___find_by_task_idsNtB6_6Common8withf_stpEBi_
FN:138,_RINvMs4_NtNtNtNtNtNtCsi6y5LRNeeCE_8adapters6shared7workers15reminder_worker5tests54___mock_MockReminderPersistenceMock_ReminderPersistence22___find_pending_by_userNtB6_6Common4withpEBi_
FN:138,_RINvMs4_NtNtNtNtNtNtCsi6y5LRNeeCE_8adapters6shared7workers15reminder_worker5tests54___mock_MockReminderPersistenceMock_ReminderPersistence22___find_pending_by_userNtB6_6Common5timespEBi_
FN:138,_RINvMs4_NtNtNtNtNtNtCsi6y5LRNeeCE_8adapters6shared7workers15reminder_worker5tests54___mock_MockReminderPersistenceMock_ReminderPersistence22___find_pending_by_userNtB6_6Common5withfpEBi_
FN:138,_RINvMs4_NtNtNtNtNtNtCsi6y5LRNeeCE_8adapters6shared7workers15reminder_worker5tests54___mock_MockReminderPersistenceMock_ReminderPersistence22___find_pending_by_userNtB6_6Common8withf_stpEBi_
FN:148,_RINvMs4_NtNtNtNtNtNtCsi6y5LRNeeCE_8adapters6shared7workers15reminder_worker5tests70___mock_MockPushSubscriptionPersistenceMock_PushSubscriptionPersistence16___get_by_user_idNtB6_6Common4withpEBi_
FN:148,_RINvMs4_NtNtNtNtNtNtCsi6y5LRNeeCE_8adapters6shared7workers15reminder_worker5tests70___mock_MockPushSubscriptionPersistenceMock_PushSubscriptionPersistence16___get_by_user_idNtB6_6Common5withfpEBi_
FN:148,_RINvMs4_NtNtNtNtNtNtCsi6y5LRNeeCE_8adapters6shared7workers15reminder_worker5tests70___mock_MockPushSubscriptionPersistenceMock_PushSubscriptionPersistence16___get_by_user_idNtB6_6Common8withf_stpEBi_
FN:148,_RINvMs4_NtNtNtNtNtNtCsi6y5LRNeeCE_8adapters6shared7workers15reminder_worker5tests70___mock_MockPushSubscriptionPersistenceMock_PushSubscriptionPersistence8___deleteNtB6_6Common4withpEBi_
FN:148,_RINvMs4_NtNtNtNtNtNtCsi6y5LRNeeCE_8adapters6shared7workers15reminder_worker5tests70___mock_MockPushSubscriptionPersistenceMock_PushSubscriptionPersistence8___deleteNtB6_6Common5timespEBi_
FN:148,_RINvMs4_NtNtNtNtNtNtCsi6y5LRNeeCE_8adapters6shared7workers15reminder_worker5tests70___mock_MockPushSubscriptionPersistenceMock_PushSubscriptionPersistence8___deleteNtB6_6Common5withfpEBi_
FN:148,_RINvMs4_NtNtNtNtNtNtCsi6y5LRNeeCE_8adapters6shared7workers15reminder_worker5tests70___mock_MockPushSubscriptionPersistenceMock_PushSubscriptionPersistence8___deleteNtB6_6Common8withf_stpEBi_
FN:148,_RINvMs4_NtNtNtNtNtNtCsi6y5LRNeeCE_8adapters6shared7workers15reminder_worker5tests70___mock_MockPushSubscriptionPersistenceMock_PushSubscriptionPersistence8___upsertNtB6_6Common4withpEBi_
FN:148,_RINvMs4_NtNtNtNtNtNtCsi6y5LRNeeCE_8adapters6shared7workers15reminder_worker5tests70___mock_MockPushSubscriptionPersistenceMock_PushSubscriptionPersistence8___upsertNtB6_6Common5timespEBi_
FN:148,_RINvMs4_NtNtNtNtNtNtCsi6y5LRNeeCE_8adapters6shared7workers15reminder_worker5tests70___mock_MockPushSubscriptionPersistenceMock_PushSubscriptionPersistence8___upsertNtB6_6Common5withfpEBi_
FN:148,_RINvMs4_NtNtNtNtNtNtCsi6y5LRNeeCE_8adapters6shared7workers15reminder_worker5tests70___mock_MockPushSubscriptionPersistenceMock_PushSubscriptionPersistence8___upsertNtB6_6Common8withf_stpEBi_
FN:138,_RINvMs6_NtNtNtNtNtNtCsi6y5LRNeeCE_8adapters6shared7workers15reminder_worker5tests54___mock_MockReminderPersistenceMock_ReminderPersistence14___get_reminderNtB6_11Expectation11return_oncepEBi_
FN:138,_RINvMs6_NtNtNtNtNtNtCsi6y5LRNeeCE_8adapters6shared7workers15reminder_worker5tests54___mock_MockReminderPersistenceMock_ReminderPersistence14___get_reminderNtB6_11Expectation12return_constpEBi_
FN:138,_RINvMs6_NtNtNtNtNtNtCsi6y5LRNeeCE_8adapters6shared7workers15reminder_worker5tests54___mock_MockReminderPersistenceMock_ReminderPersistence14___get_reminderNtB6_11Expectation12returning_stpEBi_
FN:138,_RINvMs6_NtNtNtNtNtNtCsi6y5LRNeeCE_8adapters6shared7workers15reminder_worker5tests54___mock_MockReminderPersistenceMock_ReminderPersistence14___get_reminderNtB6_11Expectation14return_once_stpEBi_
FN:138,_RINvMs6_NtNtNtNtNtNtCsi6y5LRNeeCE_8adapters6shared7workers15reminder_worker5tests54___mock_MockReminderPersistenceMock_ReminderPersistence14___get_reminderNtB6_11Expectation15return_const_stpEBi_
FN:138,_RINvMs6_NtNtNtNtNtNtCsi6y5LRNeeCE_8adapters6shared7workers15reminder_worker5tests54___mock_MockReminderPersistenceMock_ReminderPersistence14___get_reminderNtB6_11Expectation4withpEBi_
FN:138,_RINvMs6_NtNtNtNtNtNtCsi6y5LRNeeCE_8adapters6shared7workers15reminder_worker5tests54___mock_MockReminderPersistenceMock_ReminderPersistence14___get_reminderNtB6_11Expectation5withfpEBi_
FN:138,_RINvMs6_NtNtNtNtNtNtCsi6y5LRNeeCE_8adapters6shared7workers15reminder_worker5tests54___mock_MockReminderPersistenceMock_ReminderPersistence14___get_reminderNtB6_11Expectation8withf_stpEBi_
FN:138,_RINvMs6_NtNtNtNtNtNtCsi6y5LRNeeCE_8adapters6shared7workers15reminder_worker5tests54___mock_MockReminderPersistenceMock_ReminderPersistence15___save_reminderNtB6_11Expectation11return_oncepEBi_
FN:138,_RINvMs6_NtNtNtNtNtNtCsi6y5LRNeeCE_8adapters6shared7workers15reminder_worker5tests54___mock_MockReminderPersistenceMock_ReminderPersistence15___save_reminderNtB6_11Expectation12return_constpEBi_
FN:138,_RINvMs6_NtNtNtNtNtNtCsi6y5LRNeeCE_8adapters6shared7workers15reminder_worker5tests54___mock_MockReminderPersistenceMock_ReminderPersistence15___save_reminderNtB6_11Expectation12returning_stpEBi_
FN:138,_RINvMs6_NtNtNtNtNtNtCsi6y5LRNeeCE_8adapters6shared7workers15reminder_worker5tests54___mock_MockReminderPersistenceMock_ReminderPersistence15___save_reminderNtB6_11Expectation14return_once_stpEBi_
FN:138,_RINvMs6_NtNtNtNtNtNtCsi6y5LRNeeCE_8adapters6shared7workers15reminder_worker5tests54___mock_MockReminderPersistenceMock_ReminderPersistence15___save_reminderNtB6_11Expectation15return_const_stpEBi_
FN:138,_RINvMs6_NtNtNtNtNtNtCsi6y5LRNeeCE_8adapters6shared7workers15reminder_worker5tests54___mock_MockReminderPersistenceMock_ReminderPersistence15___save_reminderNtB6_11Expectation4withpEBi_
FN:138,_RINvMs6_NtNtNtNtNtNtCsi6y5LRNeeCE_8adapters6shared7workers15reminder_worker5tests54___mock_MockReminderPersistenceMock_ReminderPersistence15___save_reminderNtB6_11Expectation5timespEBi_
FN:138,_RINvMs6_NtNtNtNtNtNtCsi6y5LRNeeCE_8adapters6shared7workers15reminder_worker5tests54___mock_MockReminderPersistenceMock_ReminderPersistence15___save_reminderNtB6_11Expectation5withfpEBi_
FN:138,_RINvMs6_NtNtNtNtNtNtCsi6y5LRNeeCE_8adapters6shared7workers15reminder_worker5tests54___mock_MockReminderPersistenceMock_ReminderPersistence15___save_reminderNtB6_11Expectation8withf_stpEBi_
FN:138,_RINvMs6_NtNtNtNtNtNtCsi6y5LRNeeCE_8adapters6shared7workers15reminder_worker5tests54___mock_MockReminderPersistenceMock_ReminderPersistence15___save_reminderNtB6_11Expectation9returningpEBi_
FN:138,_RINvMs6_NtNtNtNtNtNtCsi6y5LRNeeCE_8adapters6shared7workers15reminder_worker5tests54___mock_MockReminderPersistenceMock_ReminderPersistence17___delete_reminderNtB6_11Expectation11return_oncepEBi_
FN:138,_RINvMs6_NtNtNtNtNtNtCsi6y5LRNeeCE_8adapters6shared7workers15reminder_worker5tests54___mock_MockReminderPersistenceMock_ReminderPersistence17___delete_reminderNtB6_11Expectation12return_constpEBi_
FN:138,_RINvMs6_NtNtNtNtNtNtCsi6y5LRNeeCE_8adapters6shared7workers15reminder_worker5tests54___mock_MockReminderPersistenceMock_ReminderPersistence17___delete_reminderNtB6_11Expectation12returning_stpEBi_
FN:138,_RINvMs6_NtNtNtNtNtNtCsi6y5LRNeeCE_8adapters6shared7workers15reminder_worker5tests54___mock_MockReminderPersistenceMock_ReminderPersistence17___delete_reminderNtB6_11Expectation14return_once_stpEBi_
FN:138,_RINvMs6_NtNtNtNtNtNtCsi6y5LRNeeCE_8adapters6shared7workers15reminder_worker5tests54___mock_MockReminderPersistenceMock_ReminderPersistence17___delete_reminderNtB6_11Expectation15return_const_stpEBi_
FN:138,_RINvMs6_NtNtNtNtNtNtCsi6y5LRNeeCE_8adapters6shared7workers15reminder_worker5tests54___mock_MockReminderPersistenceMock_ReminderPersistence17___delete_reminderNtB6_11Expectation4withpEBi_
FN:138,_RINvMs6_NtNtNtNtNtNtCsi6y5LRNeeCE_8adapters6shared7workers15reminder_worker5tests54___mock_MockReminderPersistenceMock_ReminderPersistence17___delete_reminderNtB6_11Expectation5timespEBi_
FN:138,_RINvMs6_NtNtNtNtNtNtCsi6y5LRNeeCE_8adapters6shared7workers15reminder_worker5tests54___mock_MockReminderPersistenceMock_ReminderPersistence17___delete_reminderNtB6_11Expectation5withfpEBi_
FN:138,_RINvMs6_NtNtNtNtNtNtCsi6y5LRNeeCE_8adapters6shared7workers15reminder_worker5tests54___mock_MockReminderPersistenceMock_ReminderPersistence17___delete_reminderNtB6_11Expectation8withf_stpEBi_
FN:138,_RINvMs6_NtNtNtNtNtNtCsi6y5LRNeeCE_8adapters6shared7workers15reminder_worker5tests54___mock_MockReminderPersistenceMock_ReminderPersistence17___delete_reminderNtB6_11Expectation9returningpEBi_
FN:138,_RINvMs6_NtNtNtNtNtNtCsi6y5LRNeeCE_8adapters6shared7workers15reminder_worker5tests54___mock_MockReminderPersistenceMock_ReminderPersistence17___update_reminderNtB6_11Expectation11return_oncepEBi_
FN:138,_RINvMs6_NtNtNtNtNtNtCsi6y5LRNeeCE_8adapters6shared7workers15reminder_worker5tests54___mock_MockReminderPersistenceMock_ReminderPersistence17___update_reminderNtB6_11Expectation12return_constpEBi_
FN:138,_RINvMs6_NtNtNtNtNtNtCsi6y5LRNeeCE_8adapters6shared7workers15reminder_worker5tests54___mock_MockReminderPersistenceMock_ReminderPersistence17___update_reminderNtB6_11Expectation12returning_stpEBi_
FN:138,_RINvMs6_NtNtNtNtNtNtCsi6y5LRNeeCE_8adapters6shared7workers15reminder_worker5tests54___mock_MockReminderPersistenceMock_ReminderPersistence17___update_reminderNtB6_11Expectation14return_once_stpEBi_
FN:138,_RINvMs6_NtNtNtNtNtNtCsi6y5LRNeeCE_8adapters6shared7workers15reminder_worker5tests54___mock_MockReminderPersistenceMock_ReminderPersistence17___update_reminderNtB6_11Expectation15return_const_stpEBi_
FN:138,_RINvMs6_NtNtNtNtNtNtCsi6y5LRNeeCE_8adapters6shared7workers15reminder_worker5tests54___mock_MockReminderPersistenceMock_ReminderPersistence17___update_reminderNtB6_11Expectation4withpEBi_
FN:138,_RINvMs6_NtNtNtNtNtNtCsi6y5LRNeeCE_8adapters6shared7workers15reminder_worker5tests54___mock_MockReminderPersistenceMock_ReminderPersistence17___update_reminderNtB6_11Expectation5withfpEBi_
FN:138,_RINvMs6_NtNtNtNtNtNtCsi6y5LRNeeCE_8adapters6shared7workers15reminder_worker5tests54___mock_MockReminderPersistenceMock_ReminderPersistence17___update_reminderNtB6_11Expectation8withf_stpEBi_
FN:138,_RINvMs6_NtNtNtNtNtNtCsi6y5LRNeeCE_8adapters6shared7workers15reminder_worker5tests54___mock_MockReminderPersistenceMock_ReminderPersistence18___find_by_task_idsNtB6_11Expectation11return_oncepEBi_
FN:138,_RINvMs6_NtNtNtNtNtNtCsi6y5LRNeeCE_8adapters6shared7workers15reminder_worker5tests54___mock_MockReminderPersistenceMock_ReminderPersistence18___find_by_task_idsNtB6_11Expectation12return_constpEBi_
FN:138,_RINvMs6_NtNtNtNtNtNtCsi6y5LRNeeCE_8adapters6shared7workers15reminder_worker5tests54___mock_MockReminderPersistenceMock_ReminderPersistence18___find_by_task_idsNtB6_11Expectation12returning_stpEBi_
FN:138,_RINvMs6_NtNtNtNtNtNtCsi6y5LRNeeCE_8adapters6shared7workers15reminder_worker5tests54___mock_MockReminderPersistenceMock_ReminderPersistence18___find_by_task_idsNtB6_11Expectation14return_once_stpEBi_
FN:138,_RINvMs6_NtNtNtNtNtNtCsi6y5LRNeeCE_8adapters6shared7workers15reminder_worker5tests54___mock_MockReminderPersistenceMock_ReminderPersistence18___find_by_task_idsNtB6_11Expectation15return_const_stpEBi_
FN:138,_RINvMs6_NtNtNtNtNtNtCsi6y5LRNeeCE_8adapters6shared7workers15reminder_worker5tests54___mock_MockReminderPersistenceMock_ReminderPersistence18___find_by_task_idsNtB6_11Expectation4withpEBi_
FN:138,_RINvMs6_NtNtNtNtNtNtCsi6y5LRNeeCE_8adapters6shared7workers15reminder_worker5tests54___mock_MockReminderPersistenceMock_ReminderPersistence18___find_by_task_idsNtB6_11Expectation5timespEBi_
FN:138,_RINvMs6_NtNtNtNtNtNtCsi6y5LRNeeCE_8adapters6shared7workers15reminder_worker5tests54___mock_MockReminderPersistenceMock_ReminderPersistence18___find_by_task_idsNtB6_11Expectation5withfpEBi_
FN:138,_RINvMs6_NtNtNtNtNtNtCsi6y5LRNeeCE_8adapters6shared7workers15reminder_worker5tests54___mock_MockReminderPersistenceMock_ReminderPersistence18___find_by_task_idsNtB6_11Expectation8withf_stpEBi_
FN:138,_RINvMs6_NtNtNtNtNtNtCsi6y5LRNeeCE_8adapters6shared7workers15reminder_worker5tests54___mock_MockReminderPersistenceMock_ReminderPersistence18___find_by_task_idsNtB6_11Expectation9returningpEBi_
FN:138,_RINvMs6_NtNtNtNtNtNtCsi6y5LRNeeCE_8adapters6shared7workers15reminder_worker5tests54___mock_MockReminderPersistenceMock_ReminderPersistence22___find_pending_by_userNtB6_11Expectation11return_oncepEBi_
FN:138,_RINvMs6_NtNtNtNtNtNtCsi6y5LRNeeCE_8adapters6shared7workers15reminder_worker5tests54___mock_MockReminderPersistenceMock_ReminderPersistence22___find_pending_by_userNtB6_11Expectation12return_constpEBi_
FN:138,_RINvMs6_NtNtNtNtNtNtCsi6y5LRNeeCE_8adapters6shared7workers15reminder_worker5tests54___mock_MockReminderPersistenceMock_ReminderPersistence22___find_pending_by_userNtB6_11Expectation12returning_stpEBi_
FN:138,_RINvMs6_NtNtNtNtNtNtCsi6y5LRNeeCE_8adapters6shared7workers15reminder_worker5tests54___mock_MockReminderPersistenceMock_ReminderPersistence22___find_pending_by_userNtB6_11Expectation14return_once_stpEBi_
FN:138,_RINvMs6_NtNtNtNtNtNtCsi6y5LRNeeCE_8adapters6shared7workers15reminder_worker5tests54___mock_MockReminderPersistenceMock_ReminderPersistence22___find_pending_by_userNtB6_11Expectation15return_const_stpEBi_
FN:138,_RINvMs6_NtNtNtNtNtNtCsi6y5LRNeeCE_8adapters6shared7workers15reminder_worker5tests54___mock_MockReminderPersistenceMock_ReminderPersistence22___find_pending_by_userNtB6_11Expectation4withpEBi_
FN:138,_RINvMs6_NtNtNtNtNtNtCsi6y5LRNeeCE_8adapters6shared7workers15reminder_worker5tests54___mock_MockReminderPersistenceMock_ReminderPersistence22___find_pending_by_userNtB6_11Expectation5timespEBi_
FN:138,_RINvMs6_NtNtNtNtNtNtCsi6y5LRNeeCE_8adapters6shared7workers15reminder_worker5tests54___mock_MockReminderPersistenceMock_ReminderPersistence22___find_pending_by_userNtB6_11Expectation5withfpEBi_
FN:138,_RINvMs6_NtNtNtNtNtNtCsi6y5LRNeeCE_8adapters6shared7workers15reminder_worker5tests54___mock_MockReminderPersistenceMock_ReminderPersistence22___find_pending_by_userNtB6_11Expectation8withf_stpEBi_
FN:138,_RINvMs6_NtNtNtNtNtNtCsi6y5LRNeeCE_8adapters6shared7workers15reminder_worker5tests54___mock_MockReminderPersistenceMock_ReminderPersistence22___find_pending_by_userNtB6_11Expectation9returningpEBi_
FN:148,_RINvMs6_NtNtNtNtNtNtCsi6y5LRNeeCE_8adapters6shared7workers15reminder_worker5tests70___mock_MockPushSubscriptionPersistenceMock_PushSubscriptionPersistence16___get_by_user_idNtB6_11Expectation11return_oncepEBi_
FN:148,_RINvMs6_NtNtNtNtNtNtCsi6y5LRNeeCE_8adapters6shared7workers15reminder_worker5tests70___mock_MockPushSubscriptionPersistenceMock_PushSubscriptionPersistence16___get_by_user_idNtB6_11Expectation12return_constpEBi_
FN:148,_RINvMs6_NtNtNtNtNtNtCsi6y5LRNeeCE_8adapters6shared7workers15reminder_worker5tests70___mock_MockPushSubscriptionPersistenceMock_PushSubscriptionPersistence16___get_by_user_idNtB6_11Expectation12returning_stpEBi_
FN:148,_RINvMs6_NtNtNtNtNtNtCsi6y5LRNeeCE_8adapters6shared7workers15reminder_worker5tests70___mock_MockPushSubscriptionPersistenceMock_PushSubscriptionPersistence16___get_by_user_idNtB6_11Expectation14return_once_stpEBi_
FN:148,_RINvMs6_NtNtNtNtNtNtCsi6y5LRNeeCE_8adapters6shared7workers15reminder_worker5tests70___mock_MockPushSubscriptionPersistenceMock_PushSubscriptionPersistence16___get_by_user_idNtB6_11Expectation15return_const_stpEBi_
FN:148,_RINvMs6_NtNtNtNtNtNtCsi6y5LRNeeCE_8adapters6shared7workers15reminder_worker5tests70___mock_MockPushSubscriptionPersistenceMock_PushSubscriptionPersistence16___get_by_user_idNtB6_11Expectation4withpEBi_
FN:148,_RINvMs6_NtNtNtNtNtNtCsi6y5LRNeeCE_8adapters6shared7workers15reminder_worker5tests70___mock_MockPushSubscriptionPersistenceMock_PushSubscriptionPersistence16___get_by_user_idNtB6_11Expectation5withfpEBi_
FN:148,_RINvMs6_NtNtNtNtNtNtCsi6y5LRNeeCE_8adapters6shared7workers15reminder_worker5tests70___mock_MockPushSubscriptionPersistenceMock_PushSubscriptionPersistence16___get_by_user_idNtB6_11Expectation8withf_stpEBi_
FN:148,_RINvMs6_NtNtNtNtNtNtCsi6y5LRNeeCE_8adapters6shared7workers15reminder_worker5tests70___mock_MockPushSubscriptionPersistenceMock_PushSubscriptionPersistence8___deleteNtB6_11Expectation11return_oncepEBi_
FN:148,_RINvMs6_NtNtNtNtNtNtCsi6y5LRNeeCE_8adapters6shared7workers15reminder_worker5tests70___mock_MockPushSubscriptionPersistenceMock_PushSubscriptionPersistence8___deleteNtB6_11Expectation12return_constpEBi_
FN:148,_RINvMs6_NtNtNtNtNtNtCsi6y5LRNeeCE_8adapters6shared7workers15reminder_worker5tests70___mock_MockPushSubscriptionPersistenceMock_PushSubscriptionPersistence8___deleteNtB6_11Expectation12returning_stpEBi_
FN:148,_RINvMs6_NtNtNtNtNtNtCsi6y5LRNeeCE_8adapters6shared7workers15reminder_worker5tests70___mock_MockPushSubscriptionPersistenceMock_PushSubscriptionPersistence8___deleteNtB6_11Expectation14return_once_stpEBi_
FN:148,_RINvMs6_NtNtNtNtNtNtCsi6y5LRNeeCE_8adapters6shared7workers15reminder_worker5tests70___mock_MockPushSubscriptionPersistenceMock_PushSubscriptionPersistence8___deleteNtB6_11Expectation15return_const_stpEBi_
FN:148,_RINvMs6_NtNtNtNtNtNtCsi6y5LRNeeCE_8adapters6shared7workers15reminder_worker5tests70___mock_MockPushSubscriptionPersistenceMock_PushSubscriptionPersistence8___deleteNtB6_11Expectation4withpEBi_
FN:148,_RINvMs6_NtNtNtNtNtNtCsi6y5LRNeeCE_8adapters6shared7workers15reminder_worker5tests70___mock_MockPushSubscriptionPersistenceMock_PushSubscriptionPersistence8___deleteNtB6_11Expectation5timespEBi_
FN:148,_RINvMs6_NtNtNtNtNtNtCsi6y5LRNeeCE_8adapters6shared7workers15reminder_worker5tests70___mock_MockPushSubscriptionPersistenceMock_PushSubscriptionPersistence8___deleteNtB6_11Expectation5withfpEBi_
FN:148,_RINvMs6_NtNtNtNtNtNtCsi6y5LRNeeCE_8adapters6shared7workers15reminder_worker5tests70___mock_MockPushSubscriptionPersistenceMock_PushSubscriptionPersistence8___deleteNtB6_11Expectation8withf_stpEBi_
FN:148,_RINvMs6_NtNtNtNtNtNtCsi6y5LRNeeCE_8adapters6shared7workers15reminder_worker5tests70___mock_MockPushSubscriptionPersistenceMock_PushSubscriptionPersistence8___deleteNtB6_11Expectation9returningpEBi_
FN:148,_RINvMs6_NtNtNtNtNtNtCsi6y5LRNeeCE_8adapters6shared7workers15reminder_worker5tests70___mock_MockPushSubscriptionPersistenceMock_PushSubscriptionPersistence8___upsertNtB6_11Expectation11return_oncepEBi_
FN:148,_RINvMs6_NtNtNtNtNtNtCsi6y5LRNeeCE_8adapters6shared7workers15reminder_worker5tests70___mock_MockPushSubscriptionPersistenceMock_PushSubscriptionPersistence8___upsertNtB6_11Expectation12return_constpEBi_
FN:148,_RINvMs6_NtNtNtNtNtNtCsi6y5LRNeeCE_8adapters6shared7workers15reminder_worker5tests70___mock_MockPushSubscriptionPersistenceMock_PushSubscriptionPersistence8___upsertNtB6_11Expectation12returning_stpEBi_
FN:148,_RINvMs6_NtNtNtNtNtNtCsi6y5LRNeeCE_8adapters6shared7workers15reminder_worker5tests70___mock_MockPushSubscriptionPersistenceMock_PushSubscriptionPersistence8___upsertNtB6_11Expectation14return_once_stpEBi_
FN:148,_RINvMs6_NtNtNtNtNtNtCsi6y5LRNeeCE_8adapters6shared7workers15reminder_worker5tests70___mock_MockPushSubscriptionPersistenceMock_PushSubscriptionPersistence8___upsertNtB6_11Expectation15return_const_stpEBi_
FN:148,_RINvMs6_NtNtNtNtNtNtCsi6y5LRNeeCE_8adapters6shared7workers15reminder_worker5tests70___mock_MockPushSubscriptionPersistenceMock_PushSubscriptionPersistence8___upsertNtB6_11Expectation4withpEBi_
FN:148,_RINvMs6_NtNtNtNtNtNtCsi6y5LRNeeCE_8adapters6shared7workers15reminder_worker5tests70___mock_MockPushSubscriptionPersistenceMock_PushSubscriptionPersistence8___upsertNtB6_11Expectation5timespEBi_
FN:148,_RINvMs6_NtNtNtNtNtNtCsi6y5LRNeeCE_8adapters6shared7workers15reminder_worker5tests70___mock_MockPushSubscriptionPersistenceMock_PushSubscriptionPersistence8___upsertNtB6_11Expectation5withfpEBi_
FN:148,_RINvMs6_NtNtNtNtNtNtCsi6y5LRNeeCE_8adapters6shared7workers15reminder_worker5tests70___mock_MockPushSubscriptionPersistenceMock_PushSubscriptionPersistence8___upsertNtB6_11Expectation8withf_stpEBi_
FN:148,_RINvMs6_NtNtNtNtNtNtCsi6y5LRNeeCE_8adapters6shared7workers15reminder_worker5tests70___mock_MockPushSubscriptionPersistenceMock_PushSubscriptionPersistence8___upsertNtB6_11Expectation9returningpEBi_
FN:138,_RNCINvMs6_NtNtNtNtNtNtCsi6y5LRNeeCE_8adapters6shared7workers15reminder_worker5tests54___mock_MockReminderPersistenceMock_ReminderPersistence14___get_reminderNtB8_11Expectation12return_constpE0Bk_
FN:138,_RNCINvMs6_NtNtNtNtNtNtCsi6y5LRNeeCE_8adapters6shared7workers15reminder_worker5tests54___mock_MockReminderPersistenceMock_ReminderPersistence14___get_reminderNtB8_11Expectation15return_const_stpE0Bk_
FN:138,_RNCINvMs6_NtNtNtNtNtNtCsi6y5LRNeeCE_8adapters6shared7workers15reminder_worker5tests54___mock_MockReminderPersistenceMock_ReminderPersistence15___save_reminderNtB8_11Expectation12return_constpE0Bk_
FN:138,_RNCINvMs6_NtNtNtNtNtNtCsi6y5LRNeeCE_8adapters6shared7workers15reminder_worker5tests54___mock_MockReminderPersistenceMock_ReminderPersistence15___save_reminderNtB8_11Expectation15return_const_stpE0Bk_
FN:138,_RNCINvMs6_NtNtNtNtNtNtCsi6y5LRNeeCE_8adapters6shared7workers15reminder_worker5tests54___mock_MockReminderPersistenceMock_ReminderPersistence17___delete_reminderNtB8_11Expectation12return_constpE0Bk_
FN:138,_RNCINvMs6_NtNtNtNtNtNtCsi6y5LRNeeCE_8adapters6shared7workers15reminder_worker5tests54___mock_MockReminderPersistenceMock_ReminderPersistence17___delete_reminderNtB8_11Expectation15return_const_stpE0Bk_
FN:138,_RNCINvMs6_NtNtNtNtNtNtCsi6y5LRNeeCE_8adapters6shared7workers15reminder_worker5tests54___mock_MockReminderPersistenceMock_ReminderPersistence17___update_reminderNtB8_11Expectation12return_constpE0Bk_
FN:138,_RNCINvMs6_NtNtNtNtNtNtCsi6y5LRNeeCE_8adapters6shared7workers15reminder_worker5tests54___mock_MockReminderPersistenceMock_ReminderPersistence17___update_reminderNtB8_11Expectation15return_const_stpE0Bk_
FN:138,_RNCINvMs6_NtNtNtNtNtNtCsi6y5LRNeeCE_8adapters6shared7workers15reminder_worker5tests54___mock_MockReminderPersistenceMock_ReminderPersistence18___find_by_task_idsNtB8_11Expectation12return_constpE0Bk_
FN:138,_RNCINvMs6_NtNtNtNtNtNtCsi6y5LRNeeCE_8adapters6shared7workers15reminder_worker5tests54___mock_MockReminderPersistenceMock_ReminderPersistence18___find_by_task_idsNtB8_11Expectation15return_const_stpE0Bk_
FN:138,_RNCINvMs6_NtNtNtNtNtNtCsi6y5LRNeeCE_8adapters6shared7workers15reminder_worker5tests54___mock_MockReminderPersistenceMock_ReminderPersistence22___find_pending_by_userNtB8_11Expectation12return_constpE0Bk_
FN:138,_RNCINvMs6_NtNtNtNtNtNtCsi6y5LRNeeCE_8adapters6shared7workers15reminder_worker5tests54___mock_MockReminderPersistenceMock_ReminderPersistence22___find_pending_by_userNtB8_11Expectation15return_const_stpE0Bk_
FN:148,_RNCINvMs6_NtNtNtNtNtNtCsi6y5LRNeeCE_8adapters6shared7workers15reminder_worker5tests70___mock_MockPushSubscriptionPersistenceMock_PushSubscriptionPersistence16___get_by_user_idNtB8_11Expectation12return_constpE0Bk_
FN:148,_RNCINvMs6_NtNtNtNtNtNtCsi6y5LRNeeCE_8adapters6shared7workers15reminder_worker5tests70___mock_MockPushSubscriptionPersistenceMock_PushSubscriptionPersistence16___get_by_user_idNtB8_11Expectation15return_const_stpE0Bk_
FN:148,_RNCINvMs6_NtNtNtNtNtNtCsi6y5LRNeeCE_8adapters6shared7workers15reminder_worker5tests70___mock_MockPushSubscriptionPersistenceMock_PushSubscriptionPersistence8___deleteNtB8_11Expectation12return_constpE0Bk_
FN:148,_RNCINvMs6_NtNtNtNtNtNtCsi6y5LRNeeCE_8adapters6shared7workers15reminder_worker5tests70___mock_MockPushSubscriptionPersistenceMock_PushSubscriptionPersistence8___deleteNtB8_11Expectation15return_const_stpE0Bk_
FN:148,_RNCINvMs6_NtNtNtNtNtNtCsi6y5LRNeeCE_8adapters6shared7workers15reminder_worker5tests70___mock_MockPushSubscriptionPersistenceMock_PushSubscriptionPersistence8___upsertNtB8_11Expectation12return_constpE0Bk_
FN:148,_RNCINvMs6_NtNtNtNtNtNtCsi6y5LRNeeCE_8adapters6shared7workers15reminder_worker5tests70___mock_MockPushSubscriptionPersistenceMock_PushSubscriptionPersistence8___upsertNtB8_11Expectation15return_const_stpE0Bk_
FN:138,_RNvMs0_NtNtNtNtCsi6y5LRNeeCE_8adapters6shared7workers15reminder_worker5testsNtB5_47MockReminderPersistenceMock_ReminderPersistence10checkpoint
FN:138,_RNvMs1_NtNtNtNtCsi6y5LRNeeCE_8adapters6shared7workers15reminder_worker5testsNtB5_27MockReminderPersistenceMock10checkpoint
FN:138,_RNvMs2_NtNtNtNtCsi6y5LRNeeCE_8adapters6shared7workers15reminder_worker5testsNtB5_27MockReminderPersistenceMock20expect_save_reminder
FN:138,_RNvMs2_NtNtNtNtCsi6y5LRNeeCE_8adapters6shared7workers15reminder_worker5testsNtB5_27MockReminderPersistenceMock22expect_delete_reminder
FN:138,_RNvMs2_NtNtNtNtCsi6y5LRNeeCE_8adapters6shared7workers15reminder_worker5testsNtB5_27MockReminderPersistenceMock23expect_find_by_task_ids
FN:138,_RNvMs2_NtNtNtNtCsi6y5LRNeeCE_8adapters6shared7workers15reminder_worker5testsNtB5_27MockReminderPersistenceMock27expect_find_pending_by_user
FN:127,_RNvMs4_NtNtNtNtNtNtCsi6y5LRNeeCE_8adapters6shared7workers15reminder_worker5tests54___mock_MockReminderPersistenceMock_ReminderPersistence14___get_reminderNtB5_6Common11in_sequence
FN:138,_RNvMs4_NtNtNtNtNtNtCsi6y5LRNeeCE_8adapters6shared7workers15reminder_worker5tests54___mock_MockReminderPersistenceMock_ReminderPersistence14___get_reminderNtB5_6Common5never
FN:127,_RNvMs4_NtNtNtNtNtNtCsi6y5LRNeeCE_8adapters6shared7workers15reminder_worker5tests54___mock_MockReminderPersistenceMock_ReminderPersistence15___save_reminderNtB5_6Common11in_sequence
FN:138,_RNvMs4_NtNtNtNtNtNtCsi6y5LRNeeCE_8adapters6shared7workers15reminder_worker5tests54___mock_MockReminderPersistenceMock_ReminderPersistence15___save_reminderNtB5_6Common5never
FN:127,_RNvMs4_NtNtNtNtNtNtCsi6y5LRNeeCE_8adapters6shared7workers15reminder_worker5tests54___mock_MockReminderPersistenceMock_ReminderPersistence17___delete_reminderNtB5_6Common11in_sequence
FN:138,_RNvMs4_NtNtNtNtNtNtCsi6y5LRNeeCE_8adapters6shared7workers15reminder_worker5tests54___mock_MockReminderPersistenceMock_ReminderPersistence17___delete_reminderNtB5_6Common5never
FN:127,_RNvMs4_NtNtNtNtNtNtCsi6y5LRNeeCE_8adapters6shared7workers15reminder_worker5tests54___mock_MockReminderPersistenceMock_ReminderPersistence17___update_reminderNtB5_6Common11in_sequence
FN:138,_RNvMs4_NtNtNtNtNtNtCsi6y5LRNeeCE_8adapters6shared7workers15reminder_worker5tests54___mock_MockReminderPersistenceMock_ReminderPersistence17___update_reminderNtB5_6Common5never
FN:127,_RNvMs4_NtNtNtNtNtNtCsi6y5LRNeeCE_8adapters6shared7workers15reminder_worker5tests54___mock_MockReminderPersistenceMock_ReminderPersistence18___find_by_task_idsNtB5_6Common11in_sequence
FN:138,_RNvMs4_NtNtNtNtNtNtCsi6y5LRNeeCE_8adapters6shared7workers15reminder_worker5tests54___mock_MockReminderPersistenceMock_ReminderPersistence18___find_by_task_idsNtB5_6Common5never
FN:127,_RNvMs4_NtNtNtNtNtNtCsi6y5LRNeeCE_8adapters6shared7workers15reminder_worker5tests54___mock_MockReminderPersistenceMock_ReminderPersistence22___find_pending_by_userNtB5_6Common11in_sequence
FN:138,_RNvMs4_NtNtNtNtNtNtCsi6y5LRNeeCE_8adapters6shared7workers15reminder_worker5tests54___mock_MockReminderPersistenceMock_ReminderPersistence22___find_pending_by_userNtB5_6Common5never
FN:140,_RNvMs4_NtNtNtNtNtNtCsi6y5LRNeeCE_8adapters6shared7workers15reminder_worker5tests70___mock_MockPushSubscriptionPersistenceMock_PushSubscriptionPersistence16___get_by_user_idNtB5_6Common11in_sequence
FN:148,_RNvMs4_NtNtNtNtNtNtCsi6y5LRNeeCE_8adapters6shared7workers15reminder_worker5tests70___mock_MockPushSubscriptionPersistenceMock_PushSubscriptionPersistence16___get_by_user_idNtB5_6Common5never
FN:140,_RNvMs4_NtNtNtNtNtNtCsi6y5LRNeeCE_8adapters6shared7workers15reminder_worker5tests70___mock_MockPushSubscriptionPersistenceMock_PushSubscriptionPersistence8___deleteNtB5_6Common11in_sequence
FN:148,_RNvMs4_NtNtNtNtNtNtCsi6y5LRNeeCE_8adapters6shared7workers15reminder_worker5tests70___mock_MockPushSubscriptionPersistenceMock_PushSubscriptionPersistence8___deleteNtB5_6Common5never
FN:140,_RNvMs4_NtNtNtNtNtNtCsi6y5LRNeeCE_8adapters6shared7workers15reminder_worker5tests70___mock_MockPushSubscriptionPersistenceMock_PushSubscriptionPersistence8___upsertNtB5_6Common11in_sequence
FN:148,_RNvMs4_NtNtNtNtNtNtCsi6y5LRNeeCE_8adapters6shared7workers15reminder_worker5tests70___mock_MockPushSubscriptionPersistenceMock_PushSubscriptionPersistence8___upsertNtB5_6Common5never
FN:148,_RNvMs6_NtNtNtNtCsi6y5LRNeeCE_8adapters6shared7workers15reminder_worker5testsNtB5_63MockPushSubscriptionPersistenceMock_PushSubscriptionPersistence10checkpoint
FN:138,_RNvMs6_NtNtNtNtNtNtCsi6y5LRNeeCE_8adapters6shared7workers15reminder_worker5tests54___mock_MockReminderPersistenceMock_ReminderPersistence14___get_reminderNtB5_11Expectation11in_sequence
FN:138,_RNvMs6_NtNtNtNtNtNtCsi6y5LRNeeCE_8adapters6shared7workers15reminder_worker5tests54___mock_MockReminderPersistenceMock_ReminderPersistence14___get_reminderNtB5_11Expectation3new
FN:138,_RNvMs6_NtNtNtNtNtNtCsi6y5LRNeeCE_8adapters6shared7workers15reminder_worker5tests54___mock_MockReminderPersistenceMock_ReminderPersistence14___get_reminderNtB5_11Expectation4once
FN:138,_RNvMs6_NtNtNtNtNtNtCsi6y5LRNeeCE_8adapters6shared7workers15reminder_worker5tests54___mock_MockReminderPersistenceMock_ReminderPersistence14___get_reminderNtB5_11Expectation5never
FN:138,_RNvMs6_NtNtNtNtNtNtCsi6y5LRNeeCE_8adapters6shared7workers15reminder_worker5tests54___mock_MockReminderPersistenceMock_ReminderPersistence15___save_reminderNtB5_11Expectation11in_sequence
FN:138,_RNvMs6_NtNtNtNtNtNtCsi6y5LRNeeCE_8adapters6shared7workers15reminder_worker5tests54___mock_MockReminderPersistenceMock_ReminderPersistence15___save_reminderNtB5_11Expectation3new
FN:138,_RNvMs6_NtNtNtNtNtNtCsi6y5LRNeeCE_8adapters6shared7workers15reminder_worker5tests54___mock_MockReminderPersistenceMock_ReminderPersistence15___save_reminderNtB5_11Expectation4once
FN:138,_RNvMs6_NtNtNtNtNtNtCsi6y5LRNeeCE_8adapters6shared7workers15reminder_worker5tests54___mock_MockReminderPersistenceMock_ReminderPersistence15___save_reminderNtB5_11Expectation5never
FN:138,_RNvMs6_NtNtNtNtNtNtCsi6y5LRNeeCE_8adapters6shared7workers15reminder_worker5tests54___mock_MockReminderPersistenceMock_ReminderPersistence17___delete_reminderNtB5_11Expectation11in_sequence
